 System.Data.SQLite

 Timestamp is 58106977 (Wed Oct 26 11:29:43 2016)

 Preferred load address is 10000000

 Start         Length     Name                   Class
 0001:00000000 00000110H .text                   CODE
 0001:00000110 000c9d5aH .text$mn                CODE
 0002:00000000 0000024cH .idata$5                DATA
 0002:0000024c 00000004H .00cfg                  DATA
 0002:00000250 00000004H .CRT$XCA                DATA
 0002:00000254 00000004H .CRT$XCZ                DATA
 0002:00000258 00000004H .CRT$XIA                DATA
 0002:0000025c 00000004H .CRT$XIZ                DATA
 0002:00000260 00000004H .CRT$XPA                DATA
 0002:00000264 00000004H .CRT$XPZ                DATA
 0002:00000268 00000004H .CRT$XTA                DATA
 0002:0000026c 00000004H .CRT$XTZ                DATA
 0002:00000270 0003f530H .rdata                  DATA
 0002:0003f7a0 00000004H .rdata$sxdata           DATA
 0002:0003f7a4 00000304H .rdata$zzzdbg           DATA
 0002:0003faa8 00000004H .rtc$IAA                DATA
 0002:0003faac 00000004H .rtc$IZZ                DATA
 0002:0003fab0 00000004H .rtc$TAA                DATA
 0002:0003fab4 00000004H .rtc$TZZ                DATA
 0002:0003fab8 00000088H .xdata$x                DATA
 0002:0003fb40 00002768H .edata                  DATA
 0002:000422a8 000000c8H .idata$2                DATA
 0002:00042370 00000014H .idata$3                DATA
 0002:00042384 0000024cH .idata$4                DATA
 0002:000425d0 00000a8aH .idata$6                DATA
 0003:00000000 00001150H .data                   DATA
 0003:00001150 0000223cH .bss                    DATA
 0004:00000000 00000014H .gfids$y                DATA
 0005:00000000 00000370H CONST                   DATA
 0006:00000000 00000060H .rsrc$01                DATA
 0006:00000060 000005c0H .rsrc$02                DATA

  Address         Publics by Value              Rva+Base       Lib:Object

 0000:00000000       ___guard_iat_table         00000000     <absolute>
 0000:00000000       ___guard_fids_table        00000000     <absolute>
 0000:00000000       ___guard_longjmp_count     00000000     <absolute>
 0000:00000000       ___guard_longjmp_table     00000000     <absolute>
 0000:00000000       ___dynamic_value_reloc_table 00000000     <absolute>
 0000:00000000       ___guard_fids_count        00000000     <absolute>
 0000:00000000       ___guard_iat_count         00000000     <absolute>
 0000:00000001       ___safe_se_handler_count   00000001     <absolute>
 0000:00000100       ___guard_flags             00000100     <absolute>
 0000:00000000       ___ImageBase               10000000     <linker-defined>
 0001:00000110       _AreFileApisANSI@0         10001110 f   kernel32:KERNEL32.dll
 0001:00000116       _ReadFile@20               10001116 f   kernel32:KERNEL32.dll
 0001:0000011c       _HeapCreate@12             1000111c f   kernel32:KERNEL32.dll
 0001:00000122       _HeapFree@12               10001122 f   kernel32:KERNEL32.dll
 0001:00000128       _GetFullPathNameW@16       10001128 f   kernel32:KERNEL32.dll
 0001:0000012e       _WriteFile@20              1000112e f   kernel32:KERNEL32.dll
 0001:00000134       _GetDiskFreeSpaceW@20      10001134 f   kernel32:KERNEL32.dll
 0001:0000013a       _OutputDebugStringA@4      1000113a f   kernel32:KERNEL32.dll
 0001:00000140       _LockFile@20               10001140 f   kernel32:KERNEL32.dll
 0001:00000146       _SetFilePointer@16         10001146 f   kernel32:KERNEL32.dll
 0001:0000014c       _GetFullPathNameA@16       1000114c f   kernel32:KERNEL32.dll
 0001:00000152       _SetEndOfFile@4            10001152 f   kernel32:KERNEL32.dll
 0001:00000158       _UnlockFileEx@20           10001158 f   kernel32:KERNEL32.dll
 0001:0000015e       _GetTempPathW@8            1000115e f   kernel32:KERNEL32.dll
 0001:00000164       _CreateMutexW@12           10001164 f   kernel32:KERNEL32.dll
 0001:0000016a       _WaitForSingleObject@8     1000116a f   kernel32:KERNEL32.dll
 0001:00000170       _CreateFileW@28            10001170 f   kernel32:KERNEL32.dll
 0001:00000176       _GetFileAttributesW@4      10001176 f   kernel32:KERNEL32.dll
 0001:0000017c       _UnmapViewOfFile@4         1000117c f   kernel32:KERNEL32.dll
 0001:00000182       _HeapValidate@12           10001182 f   kernel32:KERNEL32.dll
 0001:00000188       _HeapSize@12               10001188 f   kernel32:KERNEL32.dll
 0001:0000018e       _MultiByteToWideChar@24    1000118e f   kernel32:KERNEL32.dll
 0001:00000194       _Sleep@4                   10001194 f   kernel32:KERNEL32.dll
 0001:0000019a       _GetTempPathA@8            1000119a f   kernel32:KERNEL32.dll
 0001:000001a0       _FormatMessageW@28         100011a0 f   kernel32:KERNEL32.dll
 0001:000001a6       _GetDiskFreeSpaceA@20      100011a6 f   kernel32:KERNEL32.dll
 0001:000001ac       _GetLastError@0            100011ac f   kernel32:KERNEL32.dll
 0001:000001b2       _GetFileAttributesA@4      100011b2 f   kernel32:KERNEL32.dll
 0001:000001b8       _GetFileAttributesExW@12   100011b8 f   kernel32:KERNEL32.dll
 0001:000001be       _OutputDebugStringW@4      100011be f   kernel32:KERNEL32.dll
 0001:000001c4       _FlushViewOfFile@8         100011c4 f   kernel32:KERNEL32.dll
 0001:000001ca       _CreateFileA@28            100011ca f   kernel32:KERNEL32.dll
 0001:000001d0       _LoadLibraryA@4            100011d0 f   kernel32:KERNEL32.dll
 0001:000001d6       _WaitForSingleObjectEx@12  100011d6 f   kernel32:KERNEL32.dll
 0001:000001dc       _DeleteFileA@4             100011dc f   kernel32:KERNEL32.dll
 0001:000001e2       _DeleteFileW@4             100011e2 f   kernel32:KERNEL32.dll
 0001:000001e8       _HeapReAlloc@16            100011e8 f   kernel32:KERNEL32.dll
 0001:000001ee       _CloseHandle@4             100011ee f   kernel32:KERNEL32.dll
 0001:000001f4       _GetSystemInfo@4           100011f4 f   kernel32:KERNEL32.dll
 0001:000001fa       _LoadLibraryW@4            100011fa f   kernel32:KERNEL32.dll
 0001:00000200       _HeapAlloc@12              10001200 f   kernel32:KERNEL32.dll
 0001:00000206       _HeapCompact@8             10001206 f   kernel32:KERNEL32.dll
 0001:0000020c       _HeapDestroy@4             1000120c f   kernel32:KERNEL32.dll
 0001:00000212       _UnlockFile@20             10001212 f   kernel32:KERNEL32.dll
 0001:00000218       _GetProcAddress@8          10001218 f   kernel32:KERNEL32.dll
 0001:0000021e       _CreateFileMappingA@24     1000121e f   kernel32:KERNEL32.dll
 0001:00000224       _LocalFree@4               10001224 f   kernel32:KERNEL32.dll
 0001:0000022a       _LockFileEx@24             1000122a f   kernel32:KERNEL32.dll
 0001:00000230       _GetFileSize@8             10001230 f   kernel32:KERNEL32.dll
 0001:00000236       _GetCurrentProcessId@0     10001236 f   kernel32:KERNEL32.dll
 0001:0000023c       _GetProcessHeap@0          1000123c f   kernel32:KERNEL32.dll
 0001:00000242       _SystemTimeToFileTime@8    10001242 f   kernel32:KERNEL32.dll
 0001:00000248       _FreeLibrary@4             10001248 f   kernel32:KERNEL32.dll
 0001:0000024e       _WideCharToMultiByte@32    1000124e f   kernel32:KERNEL32.dll
 0001:00000254       _GetSystemTimeAsFileTime@4 10001254 f   kernel32:KERNEL32.dll
 0001:0000025a       _GetSystemTime@4           1000125a f   kernel32:KERNEL32.dll
 0001:00000260       _FormatMessageA@28         10001260 f   kernel32:KERNEL32.dll
 0001:00000266       _CreateFileMappingW@24     10001266 f   kernel32:KERNEL32.dll
 0001:0000026c       _MapViewOfFile@20          1000126c f   kernel32:KERNEL32.dll
 0001:00000272       _QueryPerformanceCounter@4 10001272 f   kernel32:KERNEL32.dll
 0001:00000278       _GetTickCount@0            10001278 f   kernel32:KERNEL32.dll
 0001:0000027e       _FlushFileBuffers@4        1000127e f   kernel32:KERNEL32.dll
 0001:00000284       @__security_check_cookie@4 10001284 f   MSVCRT:_secchk_.obj
 0001:00000295       ___raise_securityfailure   10001295 f   MSVCRT:gs_report.obj
 0001:000002bd       ___report_gsfailure        100012bd f   MSVCRT:gs_report.obj
 0001:000003b8       ___report_rangecheckfailure 100013b8 f   MSVCRT:gs_report.obj
 0001:000003c4       ___report_securityfailure  100013c4 f   MSVCRT:gs_report.obj
 0001:0000079c       __DllMainCRTStartup@12     1000179c f   MSVCRT:dll_dllmain.obj
 0001:00000803       ___scrt_acquire_startup_lock 10001803 f   MSVCRT:utility.obj
 0001:00000838       ___scrt_dllmain_after_initialize_c 10001838 f   MSVCRT:utility.obj
 0001:00000863       ___scrt_dllmain_before_initialize_c 10001863 f   MSVCRT:utility.obj
 0001:00000871       ___scrt_dllmain_crt_thread_attach 10001871 f   MSVCRT:utility.obj
 0001:00000890       ___scrt_dllmain_crt_thread_detach 10001890 f   MSVCRT:utility.obj
 0001:0000089d       ___scrt_dllmain_exception_filter 1000189d f   MSVCRT:utility.obj
 0001:000008d0       ___scrt_dllmain_uninitialize_c 100018d0 f   MSVCRT:utility.obj
 0001:000008f3       ___scrt_dllmain_uninitialize_critical 100018f3 f   MSVCRT:utility.obj
 0001:00000900       ___scrt_initialize_crt     10001900 f   MSVCRT:utility.obj
 0001:00000939       ___scrt_initialize_onexit_tables 10001939 f   MSVCRT:utility.obj
 0001:000009d0       ___scrt_is_nonwritable_in_current_image 100019d0 f   MSVCRT:utility.obj
 0001:00000a5a       ___scrt_release_startup_lock 10001a5a f   MSVCRT:utility.obj
 0001:00000a77       ___scrt_uninitialize_crt   10001a77 f   MSVCRT:utility.obj
 0001:00000a9f       __onexit                   10001a9f f   MSVCRT:utility.obj
 0001:00000ada       _atexit                    10001ada f   MSVCRT:utility.obj
 0001:00000aef       ___security_init_cookie    10001aef f   MSVCRT:gs_support.obj
 0001:00000b8b       _DllMain@12                10001b8b f   MSVCRT:dll_dllmain_stub.obj
 0001:00000bad       ?__scrt_initialize_type_info@@YAXXZ 10001bad f   MSVCRT:tncleanup.obj
 0001:00000bb9       ?__scrt_uninitialize_type_info@@YAXXZ 10001bb9 f   MSVCRT:tncleanup.obj
 0001:00000bc5       ___local_stdio_printf_options 10001bc5 f i MSVCRT:default_local_stdio_options.obj
 0001:00000bcb       ___local_stdio_scanf_options 10001bcb f i MSVCRT:default_local_stdio_options.obj
 0001:00000bd1       ___scrt_initialize_default_local_stdio_options 10001bd1 f   MSVCRT:default_local_stdio_options.obj
 0001:00000bee       ___scrt_get_dyn_tls_init_callback 10001bee f   MSVCRT:dyn_tls_init.obj
 0001:00000bf4       ___scrt_fastfail           10001bf4 f   MSVCRT:utility_desktop.obj
 0001:00000d0f       __RTC_Initialize           10001d0f f   MSVCRT:_initsect_.obj
 0001:00000d3a       __RTC_Terminate            10001d3a f   MSVCRT:_initsect_.obj
 0001:00000d65       @_guard_check_icall@4      10001d65 f i MSVCRT:checkcfg.obj
 0001:00000d70       __SEH_prolog4              10001d70 f   MSVCRT:_sehprolg4_.obj
 0001:00000db6       __SEH_epilog4              10001db6 f   MSVCRT:_sehprolg4_.obj
 0001:00000dcb       __except_handler4          10001dcb f   MSVCRT:_chandler4gs_.obj
 0001:00000dee       ___isa_available_init      10001dee f   MSVCRT:_cpu_disp_.obj
 0001:00000f88       __get_startup_argv_mode    10001f88 f   MSVCRT:argv_mode.obj
 0001:00000f8c       ___scrt_is_ucrt_dll_in_use 10001f8c f   MSVCRT:ucrt_detection.obj
 0001:00000f98       @_guard_check_icall_nop@4  10001f98 f i MSVCRT:guard_support.obj
 0001:00000f9a       ___std_type_info_destroy_list 10001f9a f   vcruntime:VCRUNTIME140.dll
 0001:00000fa0       _memset                    10001fa0 f   vcruntime:VCRUNTIME140.dll
 0001:00000fa6       __except_handler4_common   10001fa6 f   vcruntime:VCRUNTIME140.dll
 0001:00000fac       __initterm                 10001fac f   ucrt:api-ms-win-crt-runtime-l1-1-0.dll
 0001:00000fb2       __initterm_e               10001fb2 f   ucrt:api-ms-win-crt-runtime-l1-1-0.dll
 0001:00000fb8       __seh_filter_dll           10001fb8 f   ucrt:api-ms-win-crt-runtime-l1-1-0.dll
 0001:00000fbe       __configure_narrow_argv    10001fbe f   ucrt:api-ms-win-crt-runtime-l1-1-0.dll
 0001:00000fc4       __initialize_narrow_environment 10001fc4 f   ucrt:api-ms-win-crt-runtime-l1-1-0.dll
 0001:00000fca       __initialize_onexit_table  10001fca f   ucrt:api-ms-win-crt-runtime-l1-1-0.dll
 0001:00000fd0       __register_onexit_function 10001fd0 f   ucrt:api-ms-win-crt-runtime-l1-1-0.dll
 0001:00000fd6       __execute_onexit_table     10001fd6 f   ucrt:api-ms-win-crt-runtime-l1-1-0.dll
 0001:00000fdc       __crt_atexit               10001fdc f   ucrt:api-ms-win-crt-runtime-l1-1-0.dll
 0001:00000fe2       __cexit                    10001fe2 f   ucrt:api-ms-win-crt-runtime-l1-1-0.dll
 0001:00000fe8       _IsProcessorFeaturePresent@4 10001fe8 f   kernel32:KERNEL32.dll
 0001:00000fee       ___vcrt_thread_attach      10001fee f   MSVCRT:ucrt_stubs.obj
 0001:00000fee       ___acrt_thread_detach      10001fee f   MSVCRT:ucrt_stubs.obj
 0001:00000fee       ___scrt_stub_for_acrt_thread_attach 10001fee f   MSVCRT:ucrt_stubs.obj
 0001:00000fee       ___scrt_stub_for_acrt_uninitialize_critical 10001fee f   MSVCRT:ucrt_stubs.obj
 0001:00000fee       ___scrt_stub_for_acrt_thread_detach 10001fee f   MSVCRT:ucrt_stubs.obj
 0001:00000fee       ___scrt_stub_for_acrt_initialize 10001fee f   MSVCRT:ucrt_stubs.obj
 0001:00000fee       ___vcrt_initialize         10001fee f   MSVCRT:ucrt_stubs.obj
 0001:00000fee       ___vcrt_uninitialize       10001fee f   MSVCRT:ucrt_stubs.obj
 0001:00000fee       ___acrt_uninitialize       10001fee f   MSVCRT:ucrt_stubs.obj
 0001:00000fee       ___acrt_uninitialize_critical 10001fee f   MSVCRT:ucrt_stubs.obj
 0001:00000fee       ___vcrt_uninitialize_critical 10001fee f   MSVCRT:ucrt_stubs.obj
 0001:00000fee       ___scrt_stub_for_acrt_uninitialize 10001fee f   MSVCRT:ucrt_stubs.obj
 0001:00000fee       ___acrt_initialize         10001fee f   MSVCRT:ucrt_stubs.obj
 0001:00000fee       ___vcrt_thread_detach      10001fee f   MSVCRT:ucrt_stubs.obj
 0001:00000fee       ___acrt_thread_attach      10001fee f   MSVCRT:ucrt_stubs.obj
 0001:00000ff1       ___scrt_stub_for_is_c_termination_complete 10001ff1 f   MSVCRT:ucrt_stubs.obj
 0001:00000ff1       __is_c_termination_complete 10001ff1 f   MSVCRT:ucrt_stubs.obj
 0001:00000ff4       ?System.Data.SQLite.AssemblySourceIdAttribute..ctor@@2001010O 10001ff4 f   System.Data.SQLite.netmodule
 0001:00001010       ?System.Data.SQLite.AssemblySourceIdAttribute.get_SourceId@@20000O 10002010 f   System.Data.SQLite.netmodule
 0001:00001024       ?System.Data.SQLite.AssemblySourceTimeStampAttribute..ctor@@2001010O 10002024 f   System.Data.SQLite.netmodule
 0001:00001040       ?System.Data.SQLite.AssemblySourceTimeStampAttribute.get_SourceTimeStamp@@20000O 10002040 f   System.Data.SQLite.netmodule
 0001:00001054       ?System.Data.SQLite.SQLite3..ctor@@2006011180N811790O180O02 10002054 f   System.Data.SQLite.netmodule
 0001:000010f8       ?System.Data.SQLite.SQLite3.CheckDisposed@@200001 100020f8 f   System.Data.SQLite.netmodule
 0001:00001124       ?System.Data.SQLite.SQLite3.Dispose@@20010102 10002124 f   System.Data.SQLite.netmodule
 0001:00001174       ?System.Data.SQLite.SQLite3.DisposeModules@@200001 10002174 f   System.Data.SQLite.netmodule
 0001:000011f0       ?System.Data.SQLite.SQLite3.Close@@20010102 100021f0 f   System.Data.SQLite.netmodule
 0001:00001304       ?System.Data.SQLite.SQLite3.GetCancelCount@@200008 10002304 f   System.Data.SQLite.netmodule
 0001:00001320       ?System.Data.SQLite.SQLite3.ShouldThrowForCancel@@200002 10002320 f   System.Data.SQLite.netmodule
 0001:00001338       ?System.Data.SQLite.SQLite3.ResetCancelCount@@200008 10002338 f   System.Data.SQLite.netmodule
 0001:00001358       ?System.Data.SQLite.SQLite3.Cancel@@200001 10002358 f   System.Data.SQLite.netmodule
 0001:000013a0       ?System.Data.SQLite.SQLite3.BindFunction@@20030112815412811M112M 100023a0 f   System.Data.SQLite.netmodule
 0001:000013f4       ?System.Data.SQLite.SQLite3.UnbindFunction@@200202128154112M 100023f4 f   System.Data.SQLite.netmodule
 0001:00001448       ?System.Data.SQLite.SQLite3.get_Version@@20000O 10002448 f   System.Data.SQLite.netmodule
 0001:0000145c       ?System.Data.SQLite.SQLite3.get_VersionNumber@@200008 1000245c f   System.Data.SQLite.netmodule
 0001:00001470       ?System.Data.SQLite.SQLite3.get_DefineConstants@@00000O 10002470 f   System.Data.SQLite.netmodule
 0001:000014f0       ?System.Data.SQLite.SQLite3.get_SQLiteVersion@@00000O 100024f0 f   System.Data.SQLite.netmodule
 0001:00001508       ?System.Data.SQLite.SQLite3.get_SQLiteVersionNumber@@000008 10002508 f   System.Data.SQLite.netmodule
 0001:0000151c       ?System.Data.SQLite.SQLite3.get_SQLiteSourceId@@00000O 1000251c f   System.Data.SQLite.netmodule
 0001:00001534       ?System.Data.SQLite.SQLite3.get_SQLiteCompileOptions@@00000O 10002534 f   System.Data.SQLite.netmodule
 0001:00001594       ?System.Data.SQLite.SQLite3.get_InteropVersion@@00000O 10002594 f   System.Data.SQLite.netmodule
 0001:000015ac       ?System.Data.SQLite.SQLite3.get_InteropSourceId@@00000O 100025ac f   System.Data.SQLite.netmodule
 0001:000015c4       ?System.Data.SQLite.SQLite3.get_InteropCompileOptions@@00000O 100025c4 f   System.Data.SQLite.netmodule
 0001:00001624       ?System.Data.SQLite.SQLite3.get_AutoCommit@@200002 10002624 f   System.Data.SQLite.netmodule
 0001:00001648       ?System.Data.SQLite.SQLite3.IsReadOnly@@2001020O 10002648 f   System.Data.SQLite.netmodule
 0001:000016dc       ?System.Data.SQLite.SQLite3.get_LastInsertRowId@@20000K 100026dc f   System.Data.SQLite.netmodule
 0001:000016fc       ?System.Data.SQLite.SQLite3.get_Changes@@200008 100026fc f   System.Data.SQLite.netmodule
 0001:0000171c       ?System.Data.SQLite.SQLite3.get_MemoryUsed@@20000K 1000271c f   System.Data.SQLite.netmodule
 0001:00001730       ?System.Data.SQLite.SQLite3.get_StaticMemoryUsed@@00000K 10002730 f   System.Data.SQLite.netmodule
 0001:00001744       ?System.Data.SQLite.SQLite3.get_MemoryHighwater@@20000K 10002744 f   System.Data.SQLite.netmodule
 0001:00001758       ?System.Data.SQLite.SQLite3.get_StaticMemoryHighwater@@00000K 10002758 f   System.Data.SQLite.netmodule
 0001:0000176c       ?System.Data.SQLite.SQLite3.get_OwnHandle@@200002 1000276c f   System.Data.SQLite.netmodule
 0001:00001798       ?System.Data.SQLite.SQLite3.get_Functions@@2000151280910212815412811M 10002798 f   System.Data.SQLite.netmodule
 0001:000017ac       ?System.Data.SQLite.SQLite3.SetMemoryStatus@@200111811402 100027ac f   System.Data.SQLite.netmodule
 0001:000017c0       ?System.Data.SQLite.SQLite3.StaticSetMemoryStatus@@000111811402 100027c0 f   System.Data.SQLite.netmodule
 0001:000017dc       ?System.Data.SQLite.SQLite3.ReleaseMemory@@2000118114 100027dc f   System.Data.SQLite.netmodule
 0001:000017fc       ?System.Data.SQLite.SQLite3.StaticReleaseMemory@@0006118114080202100810021009 100027fc f   System.Data.SQLite.netmodule
 0001:00001858       ?System.Data.SQLite.SQLite3.Shutdown@@2000118114 10002858 f   System.Data.SQLite.netmodule
 0001:0000186c       ?System.Data.SQLite.SQLite3.StaticShutdown@@000111811402 1000286c f   System.Data.SQLite.netmodule
 0001:000018a8       ?System.Data.SQLite.SQLite3.IsOpen@@200002 100028a8 f   System.Data.SQLite.netmodule
 0001:000018dc       ?System.Data.SQLite.SQLite3.GetFileName@@20010O0O 100028dc f   System.Data.SQLite.netmodule
 0001:00001910       ?System.Data.SQLite.SQLite3.Open@@2006010O0O112M11280802 10002910 f   System.Data.SQLite.netmodule
 0001:00001b88       ?System.Data.SQLite.SQLite3.ClearPool@@200001 10002b88 f   System.Data.SQLite.netmodule
 0001:00001ba0       ?System.Data.SQLite.SQLite3.CountPool@@200008 10002ba0 f   System.Data.SQLite.netmodule
 0001:00001bcc       ?System.Data.SQLite.SQLite3.SetTimeout@@20010108 10002bcc f   System.Data.SQLite.netmodule
 0001:00001c14       ?System.Data.SQLite.SQLite3.Step@@200102128174 10002c14 f   System.Data.SQLite.netmodule
 0001:00001d0c       ?System.Data.SQLite.SQLite3.GetErrorString@@00010O118114 10002d0c f   System.Data.SQLite.netmodule
 0001:00001d94       ?System.Data.SQLite.SQLite3.IsReadOnly@@200102128174 10002d94 f   System.Data.SQLite.netmodule
 0001:00001e10       ?System.Data.SQLite.SQLite3.Reset@@2001118114128174 10002e10 f   System.Data.SQLite.netmodule
 0001:00001ec4       ?System.Data.SQLite.SQLite3.GetLastError@@20000O 10002ec4 f   System.Data.SQLite.netmodule
 0001:00001ed8       ?System.Data.SQLite.SQLite3.GetLastError@@20010O0O 10002ed8 f   System.Data.SQLite.netmodule
 0001:00001f08       ?System.Data.SQLite.SQLite3.ForceLogPrepare@@000002 10002f08 f   System.Data.SQLite.netmodule
 0001:00001f8c       ?System.Data.SQLite.SQLite3.Prepare@@200512817412700O12817409100O 10002f8c f   System.Data.SQLite.netmodule
 0001:000023d4       ?System.Data.SQLite.SQLite3.LogBind@@00020112819408 100033d4 f   System.Data.SQLite.netmodule
 0001:00002414       ?System.Data.SQLite.SQLite3.LogBind@@000301128194081280K1 10003414 f   System.Data.SQLite.netmodule
 0001:00002464       ?System.Data.SQLite.SQLite3.FormatDateTime@@00010O1180K5 10003464 f   System.Data.SQLite.netmodule
 0001:000024c4       ?System.Data.SQLite.SQLite3.LogBind@@000301128194081180K5 100034c4 f   System.Data.SQLite.netmodule
 0001:0000251c       ?System.Data.SQLite.SQLite3.LogBind@@000301128194080O 1000351c f   System.Data.SQLite.netmodule
 0001:00002578       ?System.Data.SQLite.SQLite3.ToHexadecimalString@@00010O1N05 10003578 f   System.Data.SQLite.netmodule
 0001:000025c4       ?System.Data.SQLite.SQLite3.LogBind@@000301128194081N05 100035c4 f   System.Data.SQLite.netmodule
 0001:00002624       ?System.Data.SQLite.SQLite3.Bind_Double@@200401128174112M080N 10003624 f   System.Data.SQLite.netmodule
 0001:00002670       ?System.Data.SQLite.SQLite3.Bind_Int32@@200401128174112M0808 10003670 f   System.Data.SQLite.netmodule
 0001:000026bc       ?System.Data.SQLite.SQLite3.Bind_UInt32@@200401128174112M0809 100036bc f   System.Data.SQLite.netmodule
 0001:00002724       ?System.Data.SQLite.SQLite3.Bind_Int64@@200401128174112M080K 10003724 f   System.Data.SQLite.netmodule
 0001:00002770       ?System.Data.SQLite.SQLite3.Bind_UInt64@@200401128174112M080L 10003770 f   System.Data.SQLite.netmodule
 0001:000027bc       ?System.Data.SQLite.SQLite3.Bind_Boolean@@200401128174112M0802 100037bc f   System.Data.SQLite.netmodule
 0001:00002810       ?System.Data.SQLite.SQLite3.Bind_Text@@200401128174112M080O 10003810 f   System.Data.SQLite.netmodule
 0001:00002878       ?System.Data.SQLite.SQLite3.Bind_DateTime@@200401128174112M081180K5 10003878 f   System.Data.SQLite.netmodule
 0001:00002a34       ?System.Data.SQLite.SQLite3.Bind_Blob@@200401128174112M081N05 10003a34 f   System.Data.SQLite.netmodule
 0001:00002a84       ?System.Data.SQLite.SQLite3.Bind_Null@@200301128174112M08 10003a84 f   System.Data.SQLite.netmodule
 0001:00002ac4       ?System.Data.SQLite.SQLite3.Bind_ParamCount@@200208128174112M 10003ac4 f   System.Data.SQLite.netmodule
 0001:00002b20       ?System.Data.SQLite.SQLite3.Bind_ParamName@@20030O128174112M08 10003b20 f   System.Data.SQLite.netmodule
 0001:00002b8c       ?System.Data.SQLite.SQLite3.Bind_ParamIndex@@200308128174112M0O 10003b8c f   System.Data.SQLite.netmodule
 0001:00002bf4       ?System.Data.SQLite.SQLite3.ColumnCount@@200108128174 10003bf4 f   System.Data.SQLite.netmodule
 0001:00002c14       ?System.Data.SQLite.SQLite3.ColumnName@@20020O12817408 10003c14 f   System.Data.SQLite.netmodule
 0001:00002c58       ?System.Data.SQLite.SQLite3.ColumnAffinity@@20021180N012817408 10003c58 f   System.Data.SQLite.netmodule
 0001:00002c78       ?System.Data.SQLite.SQLite3.ColumnType@@20030O12817408101180N0 10003c78 f   System.Data.SQLite.netmodule
 0001:00002cec       ?System.Data.SQLite.SQLite3.ColumnIndex@@2002081281740O 10003cec f   System.Data.SQLite.netmodule
 0001:00002d24       ?System.Data.SQLite.SQLite3.ColumnOriginalName@@20020O12817408 10003d24 f   System.Data.SQLite.netmodule
 0001:00002d4c       ?System.Data.SQLite.SQLite3.ColumnDatabaseName@@20020O12817408 10003d4c f   System.Data.SQLite.netmodule
 0001:00002d74       ?System.Data.SQLite.SQLite3.ColumnTableName@@20020O12817408 10003d74 f   System.Data.SQLite.netmodule
 0001:00002d9c       ?System.Data.SQLite.SQLite3.ColumnMetaData@@2008010O0O0O100O100O100210021002 10003d9c f   System.Data.SQLite.netmodule
 0001:00002e34       ?System.Data.SQLite.SQLite3.GetObject@@20021M12817408 10003e34 f   System.Data.SQLite.netmodule
 0001:00002ecc       ?System.Data.SQLite.SQLite3.GetDouble@@20020N12817408 10003ecc f   System.Data.SQLite.netmodule
 0001:00002eec       ?System.Data.SQLite.SQLite3.GetBoolean@@20020212817408 10003eec f   System.Data.SQLite.netmodule
 0001:00002f0c       ?System.Data.SQLite.SQLite3.GetSByte@@20020412817408 10003f0c f   System.Data.SQLite.netmodule
 0001:00002f28       ?System.Data.SQLite.SQLite3.GetByte@@20020512817408 10003f28 f   System.Data.SQLite.netmodule
 0001:00002f44       ?System.Data.SQLite.SQLite3.GetInt16@@20020612817408 10003f44 f   System.Data.SQLite.netmodule
 0001:00002f60       ?System.Data.SQLite.SQLite3.GetUInt16@@20020712817408 10003f60 f   System.Data.SQLite.netmodule
 0001:00002f7c       ?System.Data.SQLite.SQLite3.GetInt32@@20020812817408 10003f7c f   System.Data.SQLite.netmodule
 0001:00002f9c       ?System.Data.SQLite.SQLite3.GetUInt32@@20020912817408 10003f9c f   System.Data.SQLite.netmodule
 0001:00002fb4       ?System.Data.SQLite.SQLite3.GetInt64@@20020K12817408 10003fb4 f   System.Data.SQLite.netmodule
 0001:00002fd4       ?System.Data.SQLite.SQLite3.GetUInt64@@20020L12817408 10003fd4 f   System.Data.SQLite.netmodule
 0001:00002fec       ?System.Data.SQLite.SQLite3.GetText@@20020O12817408 10003fec f   System.Data.SQLite.netmodule
 0001:00003014       ?System.Data.SQLite.SQLite3.GetDateTime@@20021180K512817408 10004014 f   System.Data.SQLite.netmodule
 0001:00003094       ?System.Data.SQLite.SQLite3.GetBytes@@20060K12817408081N050808 10004094 f   System.Data.SQLite.netmodule
 0001:00003110       ?System.Data.SQLite.SQLite3.GetChars@@20060K12817408081N030808 10004110 f   System.Data.SQLite.netmodule
 0001:0000316c       ?System.Data.SQLite.SQLite3.IsNull@@20020212817408 1000416c f   System.Data.SQLite.netmodule
 0001:00003184       ?System.Data.SQLite.SQLite3.AggregateCount@@20010818 10004184 f   System.Data.SQLite.netmodule
 0001:00003198       ?System.Data.SQLite.SQLite3.CreateFunction@@20071181140O080212813M12813M12814002 10004198 f   System.Data.SQLite.netmodule
 0001:00003214       ?System.Data.SQLite.SQLite3.CreateCollation@@20041181140O12814412814402 10004214 f   System.Data.SQLite.netmodule
 0001:00003278       ?System.Data.SQLite.SQLite3.ContextCollateCompare@@20040811814M180O0O 10004278 f   System.Data.SQLite.netmodule
 0001:000032d4       ?System.Data.SQLite.SQLite3.ContextCollateCompare@@20040811814M181N031N03 100042d4 f   System.Data.SQLite.netmodule
 0001:00003330       ?System.Data.SQLite.SQLite3.GetCollationSequence@@200211815012811M18 10004330 f   System.Data.SQLite.netmodule
 0001:00003380       ?System.Data.SQLite.SQLite3.GetParamValueBytes@@20050K18081N050808 10004380 f   System.Data.SQLite.netmodule
 0001:000033e0       ?System.Data.SQLite.SQLite3.GetParamValueDouble@@20010N18 100043e0 f   System.Data.SQLite.netmodule
 0001:000033f4       ?System.Data.SQLite.SQLite3.GetParamValueInt32@@20010818 100043f4 f   System.Data.SQLite.netmodule
 0001:00003408       ?System.Data.SQLite.SQLite3.GetParamValueInt64@@20010K18 10004408 f   System.Data.SQLite.netmodule
 0001:0000341c       ?System.Data.SQLite.SQLite3.GetParamValueText@@20010O18 1000441c f   System.Data.SQLite.netmodule
 0001:0000343c       ?System.Data.SQLite.SQLite3.GetParamValueType@@20011180N018 1000443c f   System.Data.SQLite.netmodule
 0001:00003450       ?System.Data.SQLite.SQLite3.ReturnBlob@@200201181N05 10004450 f   System.Data.SQLite.netmodule
 0001:00003470       ?System.Data.SQLite.SQLite3.ReturnDouble@@200201180N 10004470 f   System.Data.SQLite.netmodule
 0001:00003484       ?System.Data.SQLite.SQLite3.ReturnError@@200201180O 10004484 f   System.Data.SQLite.netmodule
 0001:000034a4       ?System.Data.SQLite.SQLite3.ReturnInt32@@2002011808 100044a4 f   System.Data.SQLite.netmodule
 0001:000034b8       ?System.Data.SQLite.SQLite3.ReturnInt64@@200201180K 100044b8 f   System.Data.SQLite.netmodule
 0001:000034cc       ?System.Data.SQLite.SQLite3.ReturnNull@@20010118 100044cc f   System.Data.SQLite.netmodule
 0001:000034e0       ?System.Data.SQLite.SQLite3.ReturnText@@200201180O 100044e0 f   System.Data.SQLite.netmodule
 0001:0000350c       ?System.Data.SQLite.SQLite3.GetShimExtensionFileName@@20010O1002 1000450c f   System.Data.SQLite.netmodule
 0001:00003548       ?System.Data.SQLite.SQLite3.CreateModule@@2002011281P4112M 10004548 f   System.Data.SQLite.netmodule
 0001:0000364c       ?System.Data.SQLite.SQLite3.DisposeModule@@2002011281P4112M 1000464c f   System.Data.SQLite.netmodule
 0001:00003670       ?System.Data.SQLite.SQLite3.AggregateContext@@20011818 10004670 f   System.Data.SQLite.netmodule
 0001:00003684       ?System.Data.SQLite.SQLite3.DeclareVirtualTable@@20031181141281P40O100O 10004684 f   System.Data.SQLite.netmodule
 0001:00003714       ?System.Data.SQLite.SQLite3.DeclareVirtualFunction@@20041181141281P4080O100O 10004714 f   System.Data.SQLite.netmodule
 0001:00003798       ?System.Data.SQLite.SQLite3.SetConfigurationOption@@2002118114113002 10004798 f   System.Data.SQLite.netmodule
 0001:00003820       ?System.Data.SQLite.SQLite3.SetLoadExtension@@20010102 10004820 f   System.Data.SQLite.netmodule
 0001:00003870       ?System.Data.SQLite.SQLite3.LoadExtension@@2002010O0O 10004870 f   System.Data.SQLite.netmodule
 0001:00003920       ?System.Data.SQLite.SQLite3.SetExtendedResultCodes@@20010102 10004920 f   System.Data.SQLite.netmodule
 0001:00003958       ?System.Data.SQLite.SQLite3.ResultCode@@2000118114 10004958 f   System.Data.SQLite.netmodule
 0001:00003978       ?System.Data.SQLite.SQLite3.ExtendedResultCode@@2000118114 10004978 f   System.Data.SQLite.netmodule
 0001:00003998       ?System.Data.SQLite.SQLite3.LogMessage@@2002011181140O 10004998 f   System.Data.SQLite.netmodule
 0001:000039ac       ?System.Data.SQLite.SQLite3.StaticLogMessage@@0002011181140O 100049ac f   System.Data.SQLite.netmodule
 0001:000039c8       ?System.Data.SQLite.SQLite3.SetPassword@@2001011N05 100049c8 f   System.Data.SQLite.netmodule
 0001:00003a0c       ?System.Data.SQLite.SQLite3.ChangePassword@@2001011N05 10004a0c f   System.Data.SQLite.netmodule
 0001:00003a54       ?System.Data.SQLite.SQLite3.SetProgressHook@@200201081278 10004a54 f   System.Data.SQLite.netmodule
 0001:00003a78       ?System.Data.SQLite.SQLite3.SetAuthorizerHook@@200101127M 10004a78 f   System.Data.SQLite.netmodule
 0001:00003a9c       ?System.Data.SQLite.SQLite3.SetUpdateHook@@200101128080 10004a9c f   System.Data.SQLite.netmodule
 0001:00003ac0       ?System.Data.SQLite.SQLite3.SetCommitHook@@200101128084 10004ac0 f   System.Data.SQLite.netmodule
 0001:00003ae4       ?System.Data.SQLite.SQLite3.SetTraceCallback@@200101128088 10004ae4 f   System.Data.SQLite.netmodule
 0001:00003b08       ?System.Data.SQLite.SQLite3.SetRollbackHook@@20010112808M 10004b08 f   System.Data.SQLite.netmodule
 0001:00003b2c       ?System.Data.SQLite.SQLite3.SetLogCallback@@20011181141210 10004b2c f   System.Data.SQLite.netmodule
 0001:00003b48       ?System.Data.SQLite.SQLite3.InitializeBackup@@2003121M12700O0O 10004b48 f   System.Data.SQLite.netmodule
 0001:00003c98       ?System.Data.SQLite.SQLite3.StepBackup@@200302121M081002 10004c98 f   System.Data.SQLite.netmodule
 0001:00003d20       ?System.Data.SQLite.SQLite3.RemainingBackup@@200108121M 10004d20 f   System.Data.SQLite.netmodule
 0001:00003d74       ?System.Data.SQLite.SQLite3.PageCountBackup@@200108121M 10004d74 f   System.Data.SQLite.netmodule
 0001:00003dc8       ?System.Data.SQLite.SQLite3.FinishBackup@@200101121M 10004dc8 f   System.Data.SQLite.netmodule
 0001:00003e3c       ?System.Data.SQLite.SQLite3.IsInitialized@@200002 10004e3c f   System.Data.SQLite.netmodule
 0001:00003e50       ?System.Data.SQLite.SQLite3.StaticIsInitialized@@000002 10004e50 f   System.Data.SQLite.netmodule
 0001:00003ed0       ?System.Data.SQLite.SQLite3.GetValue@@20041M128174112M081280P4 10004ed0 f   System.Data.SQLite.netmodule
 0001:0000413c       ?System.Data.SQLite.SQLite3.GetCursorForTable@@2003081281740808 1000513c f   System.Data.SQLite.netmodule
 0001:0000415c       ?System.Data.SQLite.SQLite3.GetRowIdForCursor@@20020K12817408 1000515c f   System.Data.SQLite.netmodule
 0001:00004188       ?System.Data.SQLite.SQLite3.GetIndexColumnExtendedInfo@@2006010O0O0O10081008100O 10005188 f   System.Data.SQLite.netmodule
 0001:000041e0       ?System.Data.SQLite.SQLite3.FileControl@@20031181140O0818 100051e0 f   System.Data.SQLite.netmodule
 0001:0000420c       ?System.Data.SQLite.SQLite3..cctor@@000001 1000520c f   System.Data.SQLite.netmodule
 0001:00004244       ?System.Data.SQLite.SQLite3_UTF16..ctor@@2006011180N811790O180O02 10005244 f   System.Data.SQLite.netmodule
 0001:00004260       ?System.Data.SQLite.SQLite3_UTF16.CheckDisposed@@200001 10005260 f   System.Data.SQLite.netmodule
 0001:0000428c       ?System.Data.SQLite.SQLite3_UTF16.Dispose@@20010102 1000528c f   System.Data.SQLite.netmodule
 0001:000042d0       ?System.Data.SQLite.SQLite3_UTF16.ToString@@20020O1808 100052d0 f   System.Data.SQLite.netmodule
 0001:000042ec       ?System.Data.SQLite.SQLite3_UTF16.UTF16ToString@@00020O1808 100052ec f   System.Data.SQLite.netmodule
 0001:00004324       ?System.Data.SQLite.SQLite3_UTF16.Open@@2006010O0O112M11280802 10005324 f   System.Data.SQLite.netmodule
 0001:000045d0       ?System.Data.SQLite.SQLite3_UTF16.Bind_DateTime@@200401128174112M081180K5 100055d0 f   System.Data.SQLite.netmodule
 0001:00004638       ?System.Data.SQLite.SQLite3_UTF16.Bind_Text@@200401128174112M080O 10005638 f   System.Data.SQLite.netmodule
 0001:0000468c       ?System.Data.SQLite.SQLite3_UTF16.GetDateTime@@20021180K512817408 1000568c f   System.Data.SQLite.netmodule
 0001:00004700       ?System.Data.SQLite.SQLite3_UTF16.ColumnName@@20020O12817408 10005700 f   System.Data.SQLite.netmodule
 0001:00004744       ?System.Data.SQLite.SQLite3_UTF16.GetText@@20020O12817408 10005744 f   System.Data.SQLite.netmodule
 0001:0000476c       ?System.Data.SQLite.SQLite3_UTF16.ColumnOriginalName@@20020O12817408 1000576c f   System.Data.SQLite.netmodule
 0001:00004794       ?System.Data.SQLite.SQLite3_UTF16.ColumnDatabaseName@@20020O12817408 10005794 f   System.Data.SQLite.netmodule
 0001:000047bc       ?System.Data.SQLite.SQLite3_UTF16.ColumnTableName@@20020O12817408 100057bc f   System.Data.SQLite.netmodule
 0001:000047e4       ?System.Data.SQLite.SQLite3_UTF16.GetParamValueText@@20010O18 100057e4 f   System.Data.SQLite.netmodule
 0001:00004804       ?System.Data.SQLite.SQLite3_UTF16.ReturnError@@200201180O 10005804 f   System.Data.SQLite.netmodule
 0001:00004820       ?System.Data.SQLite.SQLite3_UTF16.ReturnText@@200201180O 10005820 f   System.Data.SQLite.netmodule
 0001:00004844       ?System.Data.SQLite.SQLiteBackup..ctor@@2006011220128198181N05181N05 10005844 f   System.Data.SQLite.netmodule
 0001:00004884       ?System.Data.SQLite.SQLiteBackup.Dispose@@200001 10005884 f   System.Data.SQLite.netmodule
 0001:000048a0       ?System.Data.SQLite.SQLiteBackup.CheckDisposed@@200001 100058a0 f   System.Data.SQLite.netmodule
 0001:000048cc       ?System.Data.SQLite.SQLiteBackup.Dispose@@20010102 100058cc f   System.Data.SQLite.netmodule
 0001:00004930       ?System.Data.SQLite.SQLiteBackup.Finalize@@200001 10005930 f   System.Data.SQLite.netmodule
 0001:0000496c       ?System.Data.SQLite.SQLiteBase..ctor@@2003011180N811790O 1000596c f   System.Data.SQLite.netmodule
 0001:00004984       ?System.Data.SQLite.SQLiteBase.Dispose@@200001 10005984 f   System.Data.SQLite.netmodule
 0001:000049a0       ?System.Data.SQLite.SQLiteBase.CheckDisposed@@200001 100059a0 f   System.Data.SQLite.netmodule
 0001:000049cc       ?System.Data.SQLite.SQLiteBase.Dispose@@20010102 100059cc f   System.Data.SQLite.netmodule
 0001:000049e8       ?System.Data.SQLite.SQLiteBase.Finalize@@200001 100059e8 f   System.Data.SQLite.netmodule
 0001:00004a24       ?System.Data.SQLite.SQLiteBase.FallbackGetErrorString@@00010O118114 10005a24 f   System.Data.SQLite.netmodule
 0001:00004a54       ?System.Data.SQLite.SQLiteBase.GetLastError@@00020O12819018 10005a54 f   System.Data.SQLite.netmodule
 0001:00004af8       ?System.Data.SQLite.SQLiteBase.FinishBackup@@00020112819018 10005af8 f   System.Data.SQLite.netmodule
 0001:00004b78       ?System.Data.SQLite.SQLiteBase.CloseBlob@@00020112819018 10005b78 f   System.Data.SQLite.netmodule
 0001:00004bf8       ?System.Data.SQLite.SQLiteBase.FinalizeStatement@@00020112819018 10005bf8 f   System.Data.SQLite.netmodule
 0001:00004c78       ?System.Data.SQLite.SQLiteBase.CloseConnection@@00020112819018 10005c78 f   System.Data.SQLite.netmodule
 0001:00004d00       ?System.Data.SQLite.SQLiteBase.CloseConnectionV2@@00020112819018 10005d00 f   System.Data.SQLite.netmodule
 0001:00004d88       ?System.Data.SQLite.SQLiteBase.ResetConnection@@0003021281901802 10005d88 f   System.Data.SQLite.netmodule
 0001:00004eb4       ?System.Data.SQLite.SQLiteBase.IsAutocommit@@00020212819018 10005eb4 f   System.Data.SQLite.netmodule
 0001:00004f48       ?System.Data.SQLite.SQLiteBase..cctor@@000001 10005f48 f   System.Data.SQLite.netmodule
 0001:00005060       ?System.Data.SQLite.SQLiteBlob..ctor@@200201122012819M 10006060 f   System.Data.SQLite.netmodule
 0001:00005084       ?System.Data.SQLite.SQLiteBlob.Create@@000312381281080802 10006084 f   System.Data.SQLite.netmodule
 0001:000051b4       ?System.Data.SQLite.SQLiteBlob.CheckOpen@@200001 100061b4 f   System.Data.SQLite.netmodule
 0001:000051e4       ?System.Data.SQLite.SQLiteBlob.VerifyParameters@@2003011N050808 100061e4 f   System.Data.SQLite.netmodule
 0001:00005230       ?System.Data.SQLite.SQLiteBlob.Reopen@@2001010K 10006230 f   System.Data.SQLite.netmodule
 0001:0000526c       ?System.Data.SQLite.SQLiteBlob.GetCount@@200008 1000626c f   System.Data.SQLite.netmodule
 0001:00005298       ?System.Data.SQLite.SQLiteBlob.Read@@2003011N050808 10006298 f   System.Data.SQLite.netmodule
 0001:000052dc       ?System.Data.SQLite.SQLiteBlob.Write@@2003011N050808 100062dc f   System.Data.SQLite.netmodule
 0001:00005320       ?System.Data.SQLite.SQLiteBlob.Close@@200001 10006320 f   System.Data.SQLite.netmodule
 0001:00005334       ?System.Data.SQLite.SQLiteBlob.Dispose@@200001 10006334 f   System.Data.SQLite.netmodule
 0001:00005350       ?System.Data.SQLite.SQLiteBlob.CheckDisposed@@200001 10006350 f   System.Data.SQLite.netmodule
 0001:0000537c       ?System.Data.SQLite.SQLiteBlob.Dispose@@20010102 1000637c f   System.Data.SQLite.netmodule
 0001:000053bc       ?System.Data.SQLite.SQLiteBlob.Finalize@@200001 100063bc f   System.Data.SQLite.netmodule
 0001:000053f8       ?System.Data.SQLite.SQLiteCommand..ctor@@200001 100063f8 f   System.Data.SQLite.netmodule
 0001:00005410       ?System.Data.SQLite.SQLiteCommand..ctor@@2001010O 10006410 f   System.Data.SQLite.netmodule
 0001:00005428       ?System.Data.SQLite.SQLiteCommand..ctor@@2002010O1270 10006428 f   System.Data.SQLite.netmodule
 0001:00005440       ?System.Data.SQLite.SQLiteCommand..ctor@@2001011270 10006440 f   System.Data.SQLite.netmodule
 0001:00005458       ?System.Data.SQLite.SQLiteCommand..ctor@@200101123M 10006458 f   System.Data.SQLite.netmodule
 0001:00005504       ?System.Data.SQLite.SQLiteCommand..ctor@@2003010O1270128178 10006504 f   System.Data.SQLite.netmodule
 0001:00005578       ?System.Data.SQLite.SQLiteCommand.Check@@000101123M 10006578 f   System.Data.SQLite.netmodule
 0001:0000559c       ?System.Data.SQLite.SQLiteCommand.CheckDisposed@@200001 1000659c f   System.Data.SQLite.netmodule
 0001:000055c8       ?System.Data.SQLite.SQLiteCommand.Dispose@@20010102 100065c8 f   System.Data.SQLite.netmodule
 0001:000056b4       ?System.Data.SQLite.SQLiteCommand.GetFlags@@0001112M123M 100066b4 f   System.Data.SQLite.netmodule
 0001:00005700       ?System.Data.SQLite.SQLiteCommand.DisposeStatements@@200001 10006700 f   System.Data.SQLite.netmodule
 0001:0000574c       ?System.Data.SQLite.SQLiteCommand.ClearDataReader@@200001 1000674c f   System.Data.SQLite.netmodule
 0001:000057a8       ?System.Data.SQLite.SQLiteCommand.ClearCommands@@200001 100067a8 f   System.Data.SQLite.netmodule
 0001:000057cc       ?System.Data.SQLite.SQLiteCommand.BuildNextCommand@@2000128174 100067cc f   System.Data.SQLite.netmodule
 0001:000058f0       ?System.Data.SQLite.SQLiteCommand.GetStatement@@200112817408 100068f0 f   System.Data.SQLite.netmodule
 0001:00005944       ?System.Data.SQLite.SQLiteCommand.Cancel@@200001 10006944 f   System.Data.SQLite.netmodule
 0001:0000597c       ?System.Data.SQLite.SQLiteCommand.get_CommandText@@20000O 1000697c f   System.Data.SQLite.netmodule
 0001:00005998       ?System.Data.SQLite.SQLiteCommand.set_CommandText@@2001010O 10006998 f   System.Data.SQLite.netmodule
 0001:000059f0       ?System.Data.SQLite.SQLiteCommand.get_CommandTimeout@@200008 100069f0 f   System.Data.SQLite.netmodule
 0001:00005a0c       ?System.Data.SQLite.SQLiteCommand.set_CommandTimeout@@20010108 10006a0c f   System.Data.SQLite.netmodule
 0001:00005a28       ?System.Data.SQLite.SQLiteCommand.get_CommandType@@20001180P1 10006a28 f   System.Data.SQLite.netmodule
 0001:00005a3c       ?System.Data.SQLite.SQLiteCommand.set_CommandType@@2001011180P1 10006a3c f   System.Data.SQLite.netmodule
 0001:00005a5c       ?System.Data.SQLite.SQLiteCommand.CreateDbParameter@@20001280P5 10006a5c f   System.Data.SQLite.netmodule
 0001:00005a70       ?System.Data.SQLite.SQLiteCommand.CreateParameter@@200012816M 10006a70 f   System.Data.SQLite.netmodule
 0001:00005a8c       ?System.Data.SQLite.SQLiteCommand.get_Connection@@20001270 10006a8c f   System.Data.SQLite.netmodule
 0001:00005aa8       ?System.Data.SQLite.SQLiteCommand.set_Connection@@2001011270 10006aa8 f   System.Data.SQLite.netmodule
 0001:00005b0c       ?System.Data.SQLite.SQLiteCommand.get_DbConnection@@20001280P9 10006b0c f   System.Data.SQLite.netmodule
 0001:00005b20       ?System.Data.SQLite.SQLiteCommand.set_DbConnection@@2001011280P9 10006b20 f   System.Data.SQLite.netmodule
 0001:00005b3c       ?System.Data.SQLite.SQLiteCommand.get_Parameters@@2000128170 10006b3c f   System.Data.SQLite.netmodule
 0001:00005b58       ?System.Data.SQLite.SQLiteCommand.get_DbParameterCollection@@20001280PN 10006b58 f   System.Data.SQLite.netmodule
 0001:00005b6c       ?System.Data.SQLite.SQLiteCommand.get_Transaction@@2000128178 10006b6c f   System.Data.SQLite.netmodule
 0001:00005b88       ?System.Data.SQLite.SQLiteCommand.set_Transaction@@200101128178 10006b88 f   System.Data.SQLite.netmodule
 0001:00005c00       ?System.Data.SQLite.SQLiteCommand.get_DbTransaction@@2000128101 10006c00 f   System.Data.SQLite.netmodule
 0001:00005c14       ?System.Data.SQLite.SQLiteCommand.set_DbTransaction@@200101128101 10006c14 f   System.Data.SQLite.netmodule
 0001:00005c30       ?System.Data.SQLite.SQLiteCommand.VerifyOnly@@200001 10006c30 f   System.Data.SQLite.netmodule
 0001:00005d44       ?System.Data.SQLite.SQLiteCommand.InitializeForReader@@200001 10006d44 f   System.Data.SQLite.netmodule
 0001:00005dd4       ?System.Data.SQLite.SQLiteCommand.ExecuteDbDataReader@@200112810911810N 10006dd4 f   System.Data.SQLite.netmodule
 0001:00005de8       ?System.Data.SQLite.SQLiteCommand.Execute@@00041M0O1180O40O1N1M 10006de8 f   System.Data.SQLite.netmodule
 0001:00005e00       ?System.Data.SQLite.SQLiteCommand.Execute@@00051M0O1180O411810N0O1N1M 10006e00 f   System.Data.SQLite.netmodule
 0001:00005f84       ?System.Data.SQLite.SQLiteCommand.ExecuteReader@@200112810811810N 10006f84 f   System.Data.SQLite.netmodule
 0001:00005fb4       ?System.Data.SQLite.SQLiteCommand.ExecuteReader@@2000128108 10006fb4 f   System.Data.SQLite.netmodule
 0001:00005fd0       ?System.Data.SQLite.SQLiteCommand.ResetDataReader@@200001 10006fd0 f   System.Data.SQLite.netmodule
 0001:00005fe4       ?System.Data.SQLite.SQLiteCommand.ExecuteNonQuery@@200008 10006fe4 f   System.Data.SQLite.netmodule
 0001:00006000       ?System.Data.SQLite.SQLiteCommand.ExecuteNonQuery@@20010811810N 10007000 f   System.Data.SQLite.netmodule
 0001:00006058       ?System.Data.SQLite.SQLiteCommand.ExecuteScalar@@20001M 10007058 f   System.Data.SQLite.netmodule
 0001:00006074       ?System.Data.SQLite.SQLiteCommand.ExecuteScalar@@20011M11810N 10007074 f   System.Data.SQLite.netmodule
 0001:000060dc       ?System.Data.SQLite.SQLiteCommand.Reset@@200001 100070dc f   System.Data.SQLite.netmodule
 0001:000060f8       ?System.Data.SQLite.SQLiteCommand.Reset@@2002010202 100070f8 f   System.Data.SQLite.netmodule
 0001:000061d0       ?System.Data.SQLite.SQLiteCommand.Prepare@@200001 100071d0 f   System.Data.SQLite.netmodule
 0001:000061e4       ?System.Data.SQLite.SQLiteCommand.get_UpdatedRowSource@@20001180N5 100071e4 f   System.Data.SQLite.netmodule
 0001:00006200       ?System.Data.SQLite.SQLiteCommand.set_UpdatedRowSource@@2001011180N5 10007200 f   System.Data.SQLite.netmodule
 0001:0000621c       ?System.Data.SQLite.SQLiteCommand.get_DesignTimeVisible@@200002 1000721c f   System.Data.SQLite.netmodule
 0001:00006238       ?System.Data.SQLite.SQLiteCommand.set_DesignTimeVisible@@20010102 10007238 f   System.Data.SQLite.netmodule
 0001:00006258       ?System.Data.SQLite.SQLiteCommand.Clone@@20001M 10007258 f   System.Data.SQLite.netmodule
 0001:00006274       ?System.Data.SQLite.SQLiteCommand..cctor@@000001 10007274 f   System.Data.SQLite.netmodule
 0001:0000628c       ?System.Data.SQLite.SQLiteCommandBuilder..ctor@@200001 1000728c f   System.Data.SQLite.netmodule
 0001:000062a0       ?System.Data.SQLite.SQLiteCommandBuilder..ctor@@200101128104 100072a0 f   System.Data.SQLite.netmodule
 0001:000062d0       ?System.Data.SQLite.SQLiteCommandBuilder.CheckDisposed@@200001 100072d0 f   System.Data.SQLite.netmodule
 0001:000062fc       ?System.Data.SQLite.SQLiteCommandBuilder.Dispose@@20010102 100072fc f   System.Data.SQLite.netmodule
 0001:00006340       ?System.Data.SQLite.SQLiteCommandBuilder.ApplyParameterInfo@@2004011280P512814111814502 10007340 f   System.Data.SQLite.netmodule
 0001:00006368       ?System.Data.SQLite.SQLiteCommandBuilder.GetParameterName@@20010O0O 10007368 f   System.Data.SQLite.netmodule
 0001:00006390       ?System.Data.SQLite.SQLiteCommandBuilder.GetParameterName@@20010O08 10007390 f   System.Data.SQLite.netmodule
 0001:000063bc       ?System.Data.SQLite.SQLiteCommandBuilder.GetParameterPlaceholder@@20010O08 100073bc f   System.Data.SQLite.netmodule
 0001:000063d0       ?System.Data.SQLite.SQLiteCommandBuilder.SetRowUpdatingHandler@@200101128149 100073d0 f   System.Data.SQLite.netmodule
 0001:00006418       ?System.Data.SQLite.SQLiteCommandBuilder.RowUpdatingEventHandler@@2002011M12814N 10007418 f   System.Data.SQLite.netmodule
 0001:0000642c       ?System.Data.SQLite.SQLiteCommandBuilder.get_DataAdapter@@2000128104 1000742c f   System.Data.SQLite.netmodule
 0001:0000644c       ?System.Data.SQLite.SQLiteCommandBuilder.set_DataAdapter@@200101128104 1000744c f   System.Data.SQLite.netmodule
 0001:00006468       ?System.Data.SQLite.SQLiteCommandBuilder.GetDeleteCommand@@2000123M 10007468 f   System.Data.SQLite.netmodule
 0001:00006488       ?System.Data.SQLite.SQLiteCommandBuilder.GetDeleteCommand@@2001123M02 10007488 f   System.Data.SQLite.netmodule
 0001:000064a8       ?System.Data.SQLite.SQLiteCommandBuilder.GetUpdateCommand@@2000123M 100074a8 f   System.Data.SQLite.netmodule
 0001:000064c8       ?System.Data.SQLite.SQLiteCommandBuilder.GetUpdateCommand@@2001123M02 100074c8 f   System.Data.SQLite.netmodule
 0001:000064e8       ?System.Data.SQLite.SQLiteCommandBuilder.GetInsertCommand@@2000123M 100074e8 f   System.Data.SQLite.netmodule
 0001:00006508       ?System.Data.SQLite.SQLiteCommandBuilder.GetInsertCommand@@2001123M02 10007508 f   System.Data.SQLite.netmodule
 0001:00006528       ?System.Data.SQLite.SQLiteCommandBuilder.get_CatalogLocation@@2000118151 10007528 f   System.Data.SQLite.netmodule
 0001:00006544       ?System.Data.SQLite.SQLiteCommandBuilder.set_CatalogLocation@@200101118151 10007544 f   System.Data.SQLite.netmodule
 0001:00006560       ?System.Data.SQLite.SQLiteCommandBuilder.get_CatalogSeparator@@20000O 10007560 f   System.Data.SQLite.netmodule
 0001:0000657c       ?System.Data.SQLite.SQLiteCommandBuilder.set_CatalogSeparator@@2001010O 1000757c f   System.Data.SQLite.netmodule
 0001:00006598       ?System.Data.SQLite.SQLiteCommandBuilder.get_QuotePrefix@@20000O 10007598 f   System.Data.SQLite.netmodule
 0001:000065b4       ?System.Data.SQLite.SQLiteCommandBuilder.set_QuotePrefix@@2001010O 100075b4 f   System.Data.SQLite.netmodule
 0001:000065d0       ?System.Data.SQLite.SQLiteCommandBuilder.get_QuoteSuffix@@20000O 100075d0 f   System.Data.SQLite.netmodule
 0001:000065ec       ?System.Data.SQLite.SQLiteCommandBuilder.set_QuoteSuffix@@2001010O 100075ec f   System.Data.SQLite.netmodule
 0001:00006608       ?System.Data.SQLite.SQLiteCommandBuilder.QuoteIdentifier@@20010O0O 10007608 f   System.Data.SQLite.netmodule
 0001:00006670       ?System.Data.SQLite.SQLiteCommandBuilder.UnquoteIdentifier@@20010O0O 10007670 f   System.Data.SQLite.netmodule
 0001:00006714       ?System.Data.SQLite.SQLiteCommandBuilder.get_SchemaSeparator@@20000O 10007714 f   System.Data.SQLite.netmodule
 0001:00006730       ?System.Data.SQLite.SQLiteCommandBuilder.set_SchemaSeparator@@2001010O 10007730 f   System.Data.SQLite.netmodule
 0001:0000674c       ?System.Data.SQLite.SQLiteCommandBuilder.GetSchemaTable@@20011281551280M9 1000774c f   System.Data.SQLite.netmodule
 0001:000067a4       ?System.Data.SQLite.SQLiteCommandBuilder.HasSchemaPrimaryKey@@200102128155 100077a4 f   System.Data.SQLite.netmodule
 0001:00006828       ?System.Data.SQLite.SQLiteCommandBuilder.ResetIsUniqueSchemaColumn@@200101128155 10007828 f   System.Data.SQLite.netmodule
 0001:000068cc       ?System.Data.SQLite.SQLiteDataReaderValue..ctor@@200001 100078cc f   System.Data.SQLite.netmodule
 0001:000068e0       ?System.Data.SQLite.SQLiteReadEventArgs..ctor@@200001 100078e0 f   System.Data.SQLite.netmodule
 0001:000068f4       ?System.Data.SQLite.SQLiteReadBlobEventArgs..ctor@@20010102 100078f4 f   System.Data.SQLite.netmodule
 0001:00006910       ?System.Data.SQLite.SQLiteReadBlobEventArgs.get_ReadOnly@@200002 10007910 f   System.Data.SQLite.netmodule
 0001:00006924       ?System.Data.SQLite.SQLiteReadBlobEventArgs.set_ReadOnly@@20010102 10007924 f   System.Data.SQLite.netmodule
 0001:00006938       ?System.Data.SQLite.SQLiteReadArrayEventArgs..ctor@@2004010K1N050808 10007938 f   System.Data.SQLite.netmodule
 0001:00006968       ?System.Data.SQLite.SQLiteReadArrayEventArgs..ctor@@2004010K1N030808 10007968 f   System.Data.SQLite.netmodule
 0001:00006998       ?System.Data.SQLite.SQLiteReadArrayEventArgs.get_DataOffset@@20000K 10007998 f   System.Data.SQLite.netmodule
 0001:000069ac       ?System.Data.SQLite.SQLiteReadArrayEventArgs.set_DataOffset@@2001010K 100079ac f   System.Data.SQLite.netmodule
 0001:000069c0       ?System.Data.SQLite.SQLiteReadArrayEventArgs.get_ByteBuffer@@20001N05 100079c0 f   System.Data.SQLite.netmodule
 0001:000069d4       ?System.Data.SQLite.SQLiteReadArrayEventArgs.get_CharBuffer@@20001N03 100079d4 f   System.Data.SQLite.netmodule
 0001:000069e8       ?System.Data.SQLite.SQLiteReadArrayEventArgs.get_BufferOffset@@200008 100079e8 f   System.Data.SQLite.netmodule
 0001:000069fc       ?System.Data.SQLite.SQLiteReadArrayEventArgs.set_BufferOffset@@20010108 100079fc f   System.Data.SQLite.netmodule
 0001:00006a10       ?System.Data.SQLite.SQLiteReadArrayEventArgs.get_Length@@200008 10007a10 f   System.Data.SQLite.netmodule
 0001:00006a24       ?System.Data.SQLite.SQLiteReadArrayEventArgs.set_Length@@20010108 10007a24 f   System.Data.SQLite.netmodule
 0001:00006a38       ?System.Data.SQLite.SQLiteReadValueEventArgs..ctor@@2003010O12481244 10007a38 f   System.Data.SQLite.netmodule
 0001:00006a60       ?System.Data.SQLite.SQLiteReadValueEventArgs.get_MethodName@@20000O 10007a60 f   System.Data.SQLite.netmodule
 0001:00006a74       ?System.Data.SQLite.SQLiteReadValueEventArgs.get_ExtraEventArgs@@20001248 10007a74 f   System.Data.SQLite.netmodule
 0001:00006a88       ?System.Data.SQLite.SQLiteReadValueEventArgs.get_Value@@20001244 10007a88 f   System.Data.SQLite.netmodule
 0001:00006a9c       ?System.Data.SQLite.SQLiteTypeCallbacks..ctor@@2004011258125M1M1M 10007a9c f   System.Data.SQLite.netmodule
 0001:00006acc       ?System.Data.SQLite.SQLiteTypeCallbacks.Create@@000412601258125M1M1M 10007acc f   System.Data.SQLite.netmodule
 0001:00006ae4       ?System.Data.SQLite.SQLiteTypeCallbacks.get_TypeName@@20000O 10007ae4 f   System.Data.SQLite.netmodule
 0001:00006af8       ?System.Data.SQLite.SQLiteTypeCallbacks.set_TypeName@@2001010O 10007af8 f   System.Data.SQLite.netmodule
 0001:00006b0c       ?System.Data.SQLite.SQLiteTypeCallbacks.get_BindValueCallback@@20001258 10007b0c f   System.Data.SQLite.netmodule
 0001:00006b20       ?System.Data.SQLite.SQLiteTypeCallbacks.get_ReadValueCallback@@2000125M 10007b20 f   System.Data.SQLite.netmodule
 0001:00006b34       ?System.Data.SQLite.SQLiteTypeCallbacks.get_BindValueUserData@@20001M 10007b34 f   System.Data.SQLite.netmodule
 0001:00006b48       ?System.Data.SQLite.SQLiteTypeCallbacks.get_ReadValueUserData@@20001M 10007b48 f   System.Data.SQLite.netmodule
 0001:00006b5c       ?System.Data.SQLite.SQLiteTypeCallbacksMap..ctor@@200001 10007b5c f   System.Data.SQLite.netmodule
 0001:00006b74       ?System.Data.SQLite.ConnectionEventArgs..ctor@@2008011180N412816N1281711281751281591281790O1M 10007b74 f   System.Data.SQLite.netmodule
 0001:00006bc4       ?System.Data.SQLite.SQLiteConnection.add__handlers@@000101126M 10007bc4 f   System.Data.SQLite.netmodule
 0001:00006bf8       ?System.Data.SQLite.SQLiteConnection.remove__handlers@@000101126M 10007bf8 f   System.Data.SQLite.netmodule
 0001:00006c2c       ?System.Data.SQLite.SQLiteConnection.add__progressHandler@@200101128090 10007c2c f   System.Data.SQLite.netmodule
 0001:00006c64       ?System.Data.SQLite.SQLiteConnection.remove__progressHandler@@200101128090 10007c64 f   System.Data.SQLite.netmodule
 0001:00006c9c       ?System.Data.SQLite.SQLiteConnection.add__authorizerHandler@@200101128094 10007c9c f   System.Data.SQLite.netmodule
 0001:00006cd4       ?System.Data.SQLite.SQLiteConnection.remove__authorizerHandler@@200101128094 10007cd4 f   System.Data.SQLite.netmodule
 0001:00006d0c       ?System.Data.SQLite.SQLiteConnection.add__updateHandler@@20010112809M 10007d0c f   System.Data.SQLite.netmodule
 0001:00006d44       ?System.Data.SQLite.SQLiteConnection.remove__updateHandler@@20010112809M 10007d44 f   System.Data.SQLite.netmodule
 0001:00006d7c       ?System.Data.SQLite.SQLiteConnection.add__commitHandler@@200101128098 10007d7c f   System.Data.SQLite.netmodule
 0001:00006db4       ?System.Data.SQLite.SQLiteConnection.remove__commitHandler@@200101128098 10007db4 f   System.Data.SQLite.netmodule
 0001:00006dec       ?System.Data.SQLite.SQLiteConnection.add__traceHandler@@2001011280K0 10007dec f   System.Data.SQLite.netmodule
 0001:00006e24       ?System.Data.SQLite.SQLiteConnection.remove__traceHandler@@2001011280K0 10007e24 f   System.Data.SQLite.netmodule
 0001:00006e5c       ?System.Data.SQLite.SQLiteConnection.add__rollbackHandler@@20010112817N 10007e5c f   System.Data.SQLite.netmodule
 0001:00006e94       ?System.Data.SQLite.SQLiteConnection.remove__rollbackHandler@@20010112817N 10007e94 f   System.Data.SQLite.netmodule
 0001:00006ecc       ?System.Data.SQLite.SQLiteConnection.add_StateChange@@200101128181 10007ecc f   System.Data.SQLite.netmodule
 0001:00006f04       ?System.Data.SQLite.SQLiteConnection.remove_StateChange@@200101128181 10007f04 f   System.Data.SQLite.netmodule
 0001:00006f3c       ?System.Data.SQLite.SQLiteConnection..ctor@@200001 10007f3c f   System.Data.SQLite.netmodule
 0001:00006f50       ?System.Data.SQLite.SQLiteConnection..ctor@@2001010O 10007f50 f   System.Data.SQLite.netmodule
 0001:00006f68       ?System.Data.SQLite.SQLiteConnection..ctor@@200301180O02 10007f68 f   System.Data.SQLite.netmodule
 0001:00006fb4       ?System.Data.SQLite.SQLiteConnection..ctor@@2002010O02 10007fb4 f   System.Data.SQLite.netmodule
 0001:0000704c       ?System.Data.SQLite.SQLiteConnection..ctor@@2001011270 1000804c f   System.Data.SQLite.netmodule
 0001:00007194       ?System.Data.SQLite.SQLiteConnection.OnChanged@@00020112701268 10008194 f   System.Data.SQLite.netmodule
 0001:0000720c       ?System.Data.SQLite.SQLiteConnection.add_Changed@@000101126M 1000820c f   System.Data.SQLite.netmodule
 0001:00007260       ?System.Data.SQLite.SQLiteConnection.remove_Changed@@000101126M 10008260 f   System.Data.SQLite.netmodule
 0001:000072ac       ?System.Data.SQLite.SQLiteConnection.get_ConnectionPool@@00001280M0 100082ac f   System.Data.SQLite.netmodule
 0001:000072c0       ?System.Data.SQLite.SQLiteConnection.set_ConnectionPool@@0001011280M0 100082c0 f   System.Data.SQLite.netmodule
 0001:000072d4       ?System.Data.SQLite.SQLiteConnection.CreateHandle@@00011M18 100082d4 f   System.Data.SQLite.netmodule
 0001:0000734c       ?System.Data.SQLite.SQLiteConnection.BackupDatabase@@20060112700O0O081280K408 1000834c f   System.Data.SQLite.netmodule
 0001:00007494       ?System.Data.SQLite.SQLiteConnection.ClearCachedSettings@@200008 10008494 f   System.Data.SQLite.netmodule
 0001:000074cc       ?System.Data.SQLite.SQLiteConnection.TryGetCachedSetting@@2003020O1M101M 100084cc f   System.Data.SQLite.netmodule
 0001:000074f8       ?System.Data.SQLite.SQLiteConnection.SetCachedSetting@@2002010O1M 100084f8 f   System.Data.SQLite.netmodule
 0001:00007520       ?System.Data.SQLite.SQLiteConnection.ClearTypeMappings@@200008 10008520 f   System.Data.SQLite.netmodule
 0001:0000754c       ?System.Data.SQLite.SQLiteConnection.GetTypeMappings@@2000151271020O1M 1000854c f   System.Data.SQLite.netmodule
 0001:00007628       ?System.Data.SQLite.SQLiteConnection.AddTypeMapping@@2003080O11818502 10008628 f   System.Data.SQLite.netmodule
 0001:000076b4       ?System.Data.SQLite.SQLiteConnection.ClearTypeCallbacks@@200008 100086b4 f   System.Data.SQLite.netmodule
 0001:000076ec       ?System.Data.SQLite.SQLiteConnection.TryGetTypeCallbacks@@2002020O101260 100086ec f   System.Data.SQLite.netmodule
 0001:00007728       ?System.Data.SQLite.SQLiteConnection.SetTypeCallbacks@@2002020O1260 10008728 f   System.Data.SQLite.netmodule
 0001:00007778       ?System.Data.SQLite.SQLiteConnection.BindFunction@@20020112815412811M 10008778 f   System.Data.SQLite.netmodule
 0001:000077b4       ?System.Data.SQLite.SQLiteConnection.BindFunction@@20030112815412819N12819N 100087b4 f   System.Data.SQLite.netmodule
 0001:000077f4       ?System.Data.SQLite.SQLiteConnection.UnbindFunction@@200102128154 100087f4 f   System.Data.SQLite.netmodule
 0001:0000782c       ?System.Data.SQLite.SQLiteConnection.UnbindAllFunctions@@20010202 1000882c f   System.Data.SQLite.netmodule
 0001:00007864       ?System.Data.SQLite.SQLiteConnection.Check@@0001011270 10008864 f   System.Data.SQLite.netmodule
 0001:000078ec       ?System.Data.SQLite.SQLiteConnection.ParseConnectionString@@0003151281K1020O0O0O0202 100088ec f   System.Data.SQLite.netmodule
 0001:00007904       ?System.Data.SQLite.SQLiteConnection.ParseConnectionString@@0004151281K1020O0O12700O0202 10008904 f   System.Data.SQLite.netmodule
 0001:00007928       ?System.Data.SQLite.SQLiteConnection.SetupSQLiteBase@@200101151281K1020O0O 10008928 f   System.Data.SQLite.netmodule
 0001:00007a08       ?System.Data.SQLite.SQLiteConnection.Dispose@@200001 10008a08 f   System.Data.SQLite.netmodule
 0001:00007a24       ?System.Data.SQLite.SQLiteConnection.CheckDisposed@@200001 10008a24 f   System.Data.SQLite.netmodule
 0001:00007a50       ?System.Data.SQLite.SQLiteConnection.Dispose@@20010102 10008a50 f   System.Data.SQLite.netmodule
 0001:00007ae0       ?System.Data.SQLite.SQLiteConnection.Clone@@20001M 10008ae0 f   System.Data.SQLite.netmodule
 0001:00007afc       ?System.Data.SQLite.SQLiteConnection.CreateFile@@0001010O 10008afc f   System.Data.SQLite.netmodule
 0001:00007b14       ?System.Data.SQLite.SQLiteConnection.OnStateChange@@2002011181991012816N 10008b14 f   System.Data.SQLite.netmodule
 0001:00007b54       ?System.Data.SQLite.SQLiteConnection.GetFallbackDefaultIsolationLevel@@0000118189 10008b54 f   System.Data.SQLite.netmodule
 0001:00007b68       ?System.Data.SQLite.SQLiteConnection.GetDefaultIsolationLevel@@2000118189 10008b68 f   System.Data.SQLite.netmodule
 0001:00007b7c       ?System.Data.SQLite.SQLiteConnection.BeginTransaction@@200212817811818902 10008b7c f   System.Data.SQLite.netmodule
 0001:00007bac       ?System.Data.SQLite.SQLiteConnection.BeginTransaction@@200112817802 10008bac f   System.Data.SQLite.netmodule
 0001:00007bdc       ?System.Data.SQLite.SQLiteConnection.BeginTransaction@@2001128178118189 10008bdc f   System.Data.SQLite.netmodule
 0001:00007bfc       ?System.Data.SQLite.SQLiteConnection.BeginTransaction@@2000128178 10008bfc f   System.Data.SQLite.netmodule
 0001:00007c20       ?System.Data.SQLite.SQLiteConnection.BeginDbTransaction@@2001128101118189 10008c20 f   System.Data.SQLite.netmodule
 0001:00007c94       ?System.Data.SQLite.SQLiteConnection.ChangeDatabase@@2001010O 10008c94 f   System.Data.SQLite.netmodule
 0001:00007cc0       ?System.Data.SQLite.SQLiteConnection.Close@@200001 10008cc0 f   System.Data.SQLite.netmodule
 0001:00007db0       ?System.Data.SQLite.SQLiteConnection.get_PoolCount@@200008 10008db0 f   System.Data.SQLite.netmodule
 0001:00007dd4       ?System.Data.SQLite.SQLiteConnection.ClearPool@@0001011270 10008dd4 f   System.Data.SQLite.netmodule
 0001:00007df8       ?System.Data.SQLite.SQLiteConnection.ClearAllPools@@000001 10008df8 f   System.Data.SQLite.netmodule
 0001:00007e0c       ?System.Data.SQLite.SQLiteConnection.get_ConnectionString@@20000O 10008e0c f   System.Data.SQLite.netmodule
 0001:00007e28       ?System.Data.SQLite.SQLiteConnection.set_ConnectionString@@2001010O 10008e28 f   System.Data.SQLite.netmodule
 0001:00007e5c       ?System.Data.SQLite.SQLiteConnection.CreateCommand@@2000123M 10008e5c f   System.Data.SQLite.netmodule
 0001:00007e78       ?System.Data.SQLite.SQLiteConnection.CreateDbCommand@@20001280M9 10008e78 f   System.Data.SQLite.netmodule
 0001:00007e8c       ?System.Data.SQLite.SQLiteConnection.get_DataSource@@20000O 10008e8c f   System.Data.SQLite.netmodule
 0001:00007ea8       ?System.Data.SQLite.SQLiteConnection.get_FileName@@20000O 10008ea8 f   System.Data.SQLite.netmodule
 0001:00007ee0       ?System.Data.SQLite.SQLiteConnection.get_Database@@20000O 10008ee0 f   System.Data.SQLite.netmodule
 0001:00007ef8       ?System.Data.SQLite.SQLiteConnection.MapUriPath@@00010O0O 10008ef8 f   System.Data.SQLite.netmodule
 0001:00007f4c       ?System.Data.SQLite.SQLiteConnection.ShouldUseLegacyConnectionStringParser@@0001021270 10008f4c f   System.Data.SQLite.netmodule
 0001:00007f8c       ?System.Data.SQLite.SQLiteConnection.ParseConnectionString@@0002151281K1020O0O0O02 10008f8c f   System.Data.SQLite.netmodule
 0001:00007fa4       ?System.Data.SQLite.SQLiteConnection.ParseConnectionString@@0003151281K1020O0O12700O02 10008fa4 f   System.Data.SQLite.netmodule
 0001:000080d0       ?System.Data.SQLite.SQLiteConnection.ParseConnectionStringViaFramework@@0003151281K1020O0O12700O02 100090d0 f   System.Data.SQLite.netmodule
 0001:00008190       ?System.Data.SQLite.SQLiteConnection.EnlistTransaction@@2001011281KN 10009190 f   System.Data.SQLite.netmodule
 0001:00008250       ?System.Data.SQLite.SQLiteConnection.FindKey@@00030O151281K1020O0O0O0O 10009250 f   System.Data.SQLite.netmodule
 0001:000082b0       ?System.Data.SQLite.SQLiteConnection.TryParseEnum@@00031M1280L10O02 100092b0 f   System.Data.SQLite.netmodule
 0001:000082f4       ?System.Data.SQLite.SQLiteConnection.TryParseByte@@0003020O1181L11005 100092f4 f   System.Data.SQLite.netmodule
 0001:0000830c       ?System.Data.SQLite.SQLiteConnection.SetConfigurationOption@@200201113002 1000930c f   System.Data.SQLite.netmodule
 0001:0000838c       ?System.Data.SQLite.SQLiteConnection.EnableExtensions@@20010102 1000938c f   System.Data.SQLite.netmodule
 0001:00008400       ?System.Data.SQLite.SQLiteConnection.LoadExtension@@2001010O 10009400 f   System.Data.SQLite.netmodule
 0001:0000841c       ?System.Data.SQLite.SQLiteConnection.LoadExtension@@2002010O0O 1000941c f   System.Data.SQLite.netmodule
 0001:00008470       ?System.Data.SQLite.SQLiteConnection.CreateModule@@2001011281P4 10009470 f   System.Data.SQLite.netmodule
 0001:000084c8       ?System.Data.SQLite.SQLiteConnection.FromHexString@@00011N050O 100094c8 f   System.Data.SQLite.netmodule
 0001:000084e0       ?System.Data.SQLite.SQLiteConnection.ToHexString@@00010O1N05 100094e0 f   System.Data.SQLite.netmodule
 0001:00008524       ?System.Data.SQLite.SQLiteConnection.FromHexString@@00021N050O100O 10009524 f   System.Data.SQLite.netmodule
 0001:000085ac       ?System.Data.SQLite.SQLiteConnection.GetDefaultPooling@@200002 100095ac f   System.Data.SQLite.netmodule
 0001:00008620       ?System.Data.SQLite.SQLiteConnection.GetEffectiveIsolationLevel@@2001118189118189 10009620 f   System.Data.SQLite.netmodule
 0001:0000869c       ?System.Data.SQLite.SQLiteConnection.Open@@200001 1000969c f   System.Data.SQLite.netmodule
 0001:00009178       ?System.Data.SQLite.SQLiteConnection.OpenAndReturn@@20001270 1000a178 f   System.Data.SQLite.netmodule
 0001:00009194       ?System.Data.SQLite.SQLiteConnection.get_DefaultTimeout@@200008 1000a194 f   System.Data.SQLite.netmodule
 0001:000091b0       ?System.Data.SQLite.SQLiteConnection.set_DefaultTimeout@@20010108 1000a1b0 f   System.Data.SQLite.netmodule
 0001:000091cc       ?System.Data.SQLite.SQLiteConnection.get_BusyTimeout@@200008 1000a1cc f   System.Data.SQLite.netmodule
 0001:000091e8       ?System.Data.SQLite.SQLiteConnection.set_BusyTimeout@@20010108 1000a1e8 f   System.Data.SQLite.netmodule
 0001:00009204       ?System.Data.SQLite.SQLiteConnection.get_PrepareRetries@@200008 1000a204 f   System.Data.SQLite.netmodule
 0001:00009220       ?System.Data.SQLite.SQLiteConnection.set_PrepareRetries@@20010108 1000a220 f   System.Data.SQLite.netmodule
 0001:0000923c       ?System.Data.SQLite.SQLiteConnection.get_ProgressOps@@200008 1000a23c f   System.Data.SQLite.netmodule
 0001:00009258       ?System.Data.SQLite.SQLiteConnection.set_ProgressOps@@20010108 1000a258 f   System.Data.SQLite.netmodule
 0001:00009274       ?System.Data.SQLite.SQLiteConnection.get_ParseViaFramework@@200002 1000a274 f   System.Data.SQLite.netmodule
 0001:00009290       ?System.Data.SQLite.SQLiteConnection.set_ParseViaFramework@@20010102 1000a290 f   System.Data.SQLite.netmodule
 0001:000092ac       ?System.Data.SQLite.SQLiteConnection.get_Flags@@2000112M 1000a2ac f   System.Data.SQLite.netmodule
 0001:000092c8       ?System.Data.SQLite.SQLiteConnection.set_Flags@@200101112M 1000a2c8 f   System.Data.SQLite.netmodule
 0001:000092e4       ?System.Data.SQLite.SQLiteConnection.get_DefaultDbType@@200015117501118185 1000a2e4 f   System.Data.SQLite.netmodule
 0001:00009300       ?System.Data.SQLite.SQLiteConnection.set_DefaultDbType@@20010115117501118185 1000a300 f   System.Data.SQLite.netmodule
 0001:0000931c       ?System.Data.SQLite.SQLiteConnection.get_DefaultTypeName@@20000O 1000a31c f   System.Data.SQLite.netmodule
 0001:00009338       ?System.Data.SQLite.SQLiteConnection.set_DefaultTypeName@@2001010O 1000a338 f   System.Data.SQLite.netmodule
 0001:00009354       ?System.Data.SQLite.SQLiteConnection.get_VfsName@@20000O 1000a354 f   System.Data.SQLite.netmodule
 0001:00009370       ?System.Data.SQLite.SQLiteConnection.set_VfsName@@2001010O 1000a370 f   System.Data.SQLite.netmodule
 0001:0000938c       ?System.Data.SQLite.SQLiteConnection.get_OwnHandle@@200002 1000a38c f   System.Data.SQLite.netmodule
 0001:000093c0       ?System.Data.SQLite.SQLiteConnection.get_ServerVersion@@20000O 1000a3c0 f   System.Data.SQLite.netmodule
 0001:000093d8       ?System.Data.SQLite.SQLiteConnection.get_LastInsertRowId@@20000K 1000a3d8 f   System.Data.SQLite.netmodule
 0001:0000940c       ?System.Data.SQLite.SQLiteConnection.Cancel@@200001 1000a40c f   System.Data.SQLite.netmodule
 0001:00009440       ?System.Data.SQLite.SQLiteConnection.get_Changes@@200008 1000a440 f   System.Data.SQLite.netmodule
 0001:00009474       ?System.Data.SQLite.SQLiteConnection.IsReadOnly@@2001020O 1000a474 f   System.Data.SQLite.netmodule
 0001:000094a8       ?System.Data.SQLite.SQLiteConnection.get_AutoCommit@@200002 1000a4a8 f   System.Data.SQLite.netmodule
 0001:000094dc       ?System.Data.SQLite.SQLiteConnection.get_MemoryUsed@@20000K 1000a4dc f   System.Data.SQLite.netmodule
 0001:00009510       ?System.Data.SQLite.SQLiteConnection.get_MemoryHighwater@@20000K 1000a510 f   System.Data.SQLite.netmodule
 0001:00009544       ?System.Data.SQLite.SQLiteConnection.GetMemoryStatistics@@0001011015128091020O0K 1000a544 f   System.Data.SQLite.netmodule
 0001:00009580       ?System.Data.SQLite.SQLiteConnection.ReleaseMemory@@200001 1000a580 f   System.Data.SQLite.netmodule
 0001:000095cc       ?System.Data.SQLite.SQLiteConnection.ReleaseMemory@@0006118114080202100810021009 1000a5cc f   System.Data.SQLite.netmodule
 0001:000095e8       ?System.Data.SQLite.SQLiteConnection.SetMemoryStatus@@000111811402 1000a5e8 f   System.Data.SQLite.netmodule
 0001:000095fc       ?System.Data.SQLite.SQLiteConnection.get_DefineConstants@@00000O 1000a5fc f   System.Data.SQLite.netmodule
 0001:00009610       ?System.Data.SQLite.SQLiteConnection.get_SQLiteVersion@@00000O 1000a610 f   System.Data.SQLite.netmodule
 0001:00009624       ?System.Data.SQLite.SQLiteConnection.get_SQLiteSourceId@@00000O 1000a624 f   System.Data.SQLite.netmodule
 0001:00009638       ?System.Data.SQLite.SQLiteConnection.get_SQLiteCompileOptions@@00000O 1000a638 f   System.Data.SQLite.netmodule
 0001:0000964c       ?System.Data.SQLite.SQLiteConnection.get_InteropVersion@@00000O 1000a64c f   System.Data.SQLite.netmodule
 0001:00009660       ?System.Data.SQLite.SQLiteConnection.get_InteropSourceId@@00000O 1000a660 f   System.Data.SQLite.netmodule
 0001:00009674       ?System.Data.SQLite.SQLiteConnection.get_InteropCompileOptions@@00000O 1000a674 f   System.Data.SQLite.netmodule
 0001:00009688       ?System.Data.SQLite.SQLiteConnection.get_ProviderVersion@@00000O 1000a688 f   System.Data.SQLite.netmodule
 0001:000096b8       ?System.Data.SQLite.SQLiteConnection.get_ProviderSourceId@@00000O 1000a6b8 f   System.Data.SQLite.netmodule
 0001:00009784       ?System.Data.SQLite.SQLiteConnection.TryGetLastCachedSetting@@0003020O1M101M 1000a784 f   System.Data.SQLite.netmodule
 0001:000097ac       ?System.Data.SQLite.SQLiteConnection.get_DefaultFlags@@0000112M 1000a7ac f   System.Data.SQLite.netmodule
 0001:00009808       ?System.Data.SQLite.SQLiteConnection.get_SharedFlags@@0000112M 1000a808 f   System.Data.SQLite.netmodule
 0001:00009854       ?System.Data.SQLite.SQLiteConnection.set_SharedFlags@@000101112M 1000a854 f   System.Data.SQLite.netmodule
 0001:000098a0       ?System.Data.SQLite.SQLiteConnection.get_State@@2000118199 1000a8a0 f   System.Data.SQLite.netmodule
 0001:000098bc       ?System.Data.SQLite.SQLiteConnection.Shutdown@@2000118114 1000a8bc f   System.Data.SQLite.netmodule
 0001:000098fc       ?System.Data.SQLite.SQLiteConnection.Shutdown@@0002010202 1000a8fc f   System.Data.SQLite.netmodule
 0001:00009920       ?System.Data.SQLite.SQLiteConnection.SetExtendedResultCodes@@20010102 1000a920 f   System.Data.SQLite.netmodule
 0001:00009948       ?System.Data.SQLite.SQLiteConnection.ResultCode@@2000118114 1000a948 f   System.Data.SQLite.netmodule
 0001:0000997c       ?System.Data.SQLite.SQLiteConnection.ExtendedResultCode@@2000118114 1000a97c f   System.Data.SQLite.netmodule
 0001:000099b0       ?System.Data.SQLite.SQLiteConnection.LogMessage@@2002011181140O 1000a9b0 f   System.Data.SQLite.netmodule
 0001:000099e4       ?System.Data.SQLite.SQLiteConnection.LogMessage@@200201080O 1000a9e4 f   System.Data.SQLite.netmodule
 0001:00009a18       ?System.Data.SQLite.SQLiteConnection.ChangePassword@@2001010O 1000aa18 f   System.Data.SQLite.netmodule
 0001:00009a48       ?System.Data.SQLite.SQLiteConnection.ChangePassword@@2001011N05 1000aa48 f   System.Data.SQLite.netmodule
 0001:00009a7c       ?System.Data.SQLite.SQLiteConnection.SetPassword@@2001010O 1000aa7c f   System.Data.SQLite.netmodule
 0001:00009aac       ?System.Data.SQLite.SQLiteConnection.SetPassword@@2001011N05 1000aaac f   System.Data.SQLite.netmodule
 0001:00009ae4       ?System.Data.SQLite.SQLiteConnection.SetAvRetry@@200211811410081008 1000aae4 f   System.Data.SQLite.netmodule
 0001:00009b84       ?System.Data.SQLite.SQLiteConnection.SetChunkSize@@200111811408 1000ab84 f   System.Data.SQLite.netmodule
 0001:00009c04       ?System.Data.SQLite.SQLiteConnection.UnwrapString@@00010O0O 1000ac04 f   System.Data.SQLite.netmodule
 0001:00009c60       ?System.Data.SQLite.SQLiteConnection.GetDataDirectory@@00000O 1000ac60 f   System.Data.SQLite.netmodule
 0001:00009c98       ?System.Data.SQLite.SQLiteConnection.ExpandFileName@@00020O0O02 1000ac98 f   System.Data.SQLite.netmodule
 0001:00009d38       ?System.Data.SQLite.SQLiteConnection.GetSchema@@2000128155 1000ad38 f   System.Data.SQLite.netmodule
 0001:00009d58       ?System.Data.SQLite.SQLiteConnection.GetSchema@@20011281550O 1000ad58 f   System.Data.SQLite.netmodule
 0001:00009d78       ?System.Data.SQLite.SQLiteConnection.GetSchema@@20021281550O1N0O 1000ad78 f   System.Data.SQLite.netmodule
 0001:0000a070       ?System.Data.SQLite.SQLiteConnection.Schema_ReservedWords@@0000128155 1000b070 f   System.Data.SQLite.netmodule
 0001:0000a13c       ?System.Data.SQLite.SQLiteConnection.Schema_MetaDataCollections@@0000128155 1000b13c f   System.Data.SQLite.netmodule
 0001:0000a1dc       ?System.Data.SQLite.SQLiteConnection.Schema_DataSourceInformation@@2000128155 1000b1dc f   System.Data.SQLite.netmodule
 0001:0000a49c       ?System.Data.SQLite.SQLiteConnection.Schema_Columns@@20031281550O0O0O 1000b49c f   System.Data.SQLite.netmodule
 0001:0000abec       ?System.Data.SQLite.SQLiteConnection.Schema_Indexes@@20031281550O0O0O 1000bbec f   System.Data.SQLite.netmodule
 0001:0000b460       ?System.Data.SQLite.SQLiteConnection.Schema_Triggers@@20031281550O0O0O 1000c460 f   System.Data.SQLite.netmodule
 0001:0000b658       ?System.Data.SQLite.SQLiteConnection.Schema_Tables@@20031281550O0O0O 1000c658 f   System.Data.SQLite.netmodule
 0001:0000b8cc       ?System.Data.SQLite.SQLiteConnection.Schema_Views@@20021281550O0O 1000c8cc f   System.Data.SQLite.netmodule
 0001:0000bb68       ?System.Data.SQLite.SQLiteConnection.Schema_Catalogs@@20011281550O 1000cb68 f   System.Data.SQLite.netmodule
 0001:0000bcbc       ?System.Data.SQLite.SQLiteConnection.Schema_DataTypes@@2000128155 1000ccbc f   System.Data.SQLite.netmodule
 0001:0000bf5c       ?System.Data.SQLite.SQLiteConnection.Schema_IndexColumns@@20041281550O0O0O0O 1000cf5c f   System.Data.SQLite.netmodule
 0001:0000c63c       ?System.Data.SQLite.SQLiteConnection.Schema_ViewColumns@@20031281550O0O0O 1000d63c f   System.Data.SQLite.netmodule
 0001:0000cdfc       ?System.Data.SQLite.SQLiteConnection.Schema_ForeignKeys@@20031281550O0O0O 1000ddfc f   System.Data.SQLite.netmodule
 0001:0000d3ac       ?System.Data.SQLite.SQLiteConnection.add_Progress@@200101128090 1000e3ac f   System.Data.SQLite.netmodule
 0001:0000d400       ?System.Data.SQLite.SQLiteConnection.remove_Progress@@200101128090 1000e400 f   System.Data.SQLite.netmodule
 0001:0000d440       ?System.Data.SQLite.SQLiteConnection.add_Authorize@@200101128094 1000e440 f   System.Data.SQLite.netmodule
 0001:0000d490       ?System.Data.SQLite.SQLiteConnection.remove_Authorize@@200101128094 1000e490 f   System.Data.SQLite.netmodule
 0001:0000d4d0       ?System.Data.SQLite.SQLiteConnection.add_Update@@20010112809M 1000e4d0 f   System.Data.SQLite.netmodule
 0001:0000d520       ?System.Data.SQLite.SQLiteConnection.remove_Update@@20010112809M 1000e520 f   System.Data.SQLite.netmodule
 0001:0000d560       ?System.Data.SQLite.SQLiteConnection.ProgressCallback@@20011180OM18 1000e560 f   System.Data.SQLite.netmodule
 0001:0000d61c       ?System.Data.SQLite.SQLiteConnection.AuthorizerCallback@@20061180P0181180O818181818 1000e61c f   System.Data.SQLite.netmodule
 0001:0000d6f8       ?System.Data.SQLite.SQLiteConnection.UpdateCallback@@200501180818180K 1000e6f8 f   System.Data.SQLite.netmodule
 0001:0000d798       ?System.Data.SQLite.SQLiteConnection.add_Commit@@200101128098 1000e798 f   System.Data.SQLite.netmodule
 0001:0000d7e8       ?System.Data.SQLite.SQLiteConnection.remove_Commit@@200101128098 1000e7e8 f   System.Data.SQLite.netmodule
 0001:0000d828       ?System.Data.SQLite.SQLiteConnection.add_Trace@@2001011280K0 1000e828 f   System.Data.SQLite.netmodule
 0001:0000d878       ?System.Data.SQLite.SQLiteConnection.remove_Trace@@2001011280K0 1000e878 f   System.Data.SQLite.netmodule
 0001:0000d8b8       ?System.Data.SQLite.SQLiteConnection.TraceCallback@@2002011818 1000e8b8 f   System.Data.SQLite.netmodule
 0001:0000d954       ?System.Data.SQLite.SQLiteConnection.add_RollBack@@20010112817N 1000e954 f   System.Data.SQLite.netmodule
 0001:0000d9a4       ?System.Data.SQLite.SQLiteConnection.remove_RollBack@@20010112817N 1000e9a4 f   System.Data.SQLite.netmodule
 0001:0000d9e4       ?System.Data.SQLite.SQLiteConnection.CommitCallback@@20010818 1000e9e4 f   System.Data.SQLite.netmodule
 0001:0000daa4       ?System.Data.SQLite.SQLiteConnection.RollbackCallback@@20010118 1000eaa4 f   System.Data.SQLite.netmodule
 0001:0000db38       ?System.Data.SQLite.SQLiteConnection.get_DbProviderFactory@@20001281L9 1000eb38 f   System.Data.SQLite.netmodule
 0001:0000db4c       ?System.Data.SQLite.SQLiteConnection..cctor@@000001 1000eb4c f   System.Data.SQLite.netmodule
 0001:0000db78       ?System.Data.SQLite.ProgressEventArgs..ctor@@200001 1000eb78 f   System.Data.SQLite.netmodule
 0001:0000dba0       ?System.Data.SQLite.ProgressEventArgs..ctor@@200201181180OM 1000eba0 f   System.Data.SQLite.netmodule
 0001:0000dbc4       ?System.Data.SQLite.AuthorizerEventArgs..ctor@@200001 1000ebc4 f   System.Data.SQLite.netmodule
 0001:0000dc0c       ?System.Data.SQLite.AuthorizerEventArgs..ctor@@200701181180O80O0O0O0O1180P0 1000ec0c f   System.Data.SQLite.netmodule
 0001:0000dc54       ?System.Data.SQLite.UpdateEventArgs..ctor@@2004010O0O1180L00K 1000ec54 f   System.Data.SQLite.netmodule
 0001:0000dc84       ?System.Data.SQLite.CommitEventArgs..ctor@@200001 1000ec84 f   System.Data.SQLite.netmodule
 0001:0000dc98       ?System.Data.SQLite.TraceEventArgs..ctor@@2001010O 1000ec98 f   System.Data.SQLite.netmodule
 0001:0000dcb4       ?System.Data.SQLite.SQLiteConnectionPool.GetCounts@@0005010O10151271020O08100810081008 1000ecb4 f   System.Data.SQLite.netmodule
 0001:0000ddf0       ?System.Data.SQLite.SQLiteConnectionPool.ClearPool@@0001010O 1000edf0 f   System.Data.SQLite.netmodule
 0001:0000dea8       ?System.Data.SQLite.SQLiteConnectionPool.ClearAllPools@@000001 1000eea8 f   System.Data.SQLite.netmodule
 0001:0000dfc0       ?System.Data.SQLite.SQLiteConnectionPool.Add@@0003010O12819008 1000efc0 f   System.Data.SQLite.netmodule
 0001:0000e06c       ?System.Data.SQLite.SQLiteConnectionPool.Remove@@00031281900O081008 1000f06c f   System.Data.SQLite.netmodule
 0001:0000e274       ?System.Data.SQLite.SQLiteConnectionPool.GetConnectionPool@@00001280M0 1000f274 f   System.Data.SQLite.netmodule
 0001:0000e2c0       ?System.Data.SQLite.SQLiteConnectionPool.SetConnectionPool@@0001011280M0 1000f2c0 f   System.Data.SQLite.netmodule
 0001:0000e30c       ?System.Data.SQLite.SQLiteConnectionPool.ResizePool@@00020112821402 1000f30c f   System.Data.SQLite.netmodule
 0001:0000e364       ?System.Data.SQLite.SQLiteConnectionPool..cctor@@000001 1000f364 f   System.Data.SQLite.netmodule
 0001:0000e3a4       ?System.Data.SQLite.SQLiteConnectionStringBuilder..ctor@@200001 1000f3a4 f   System.Data.SQLite.netmodule
 0001:0000e3c0       ?System.Data.SQLite.SQLiteConnectionStringBuilder..ctor@@2001010O 1000f3c0 f   System.Data.SQLite.netmodule
 0001:0000e3dc       ?System.Data.SQLite.SQLiteConnectionStringBuilder.Initialize@@2001010O 1000f3dc f   System.Data.SQLite.netmodule
 0001:0000e444       ?System.Data.SQLite.SQLiteConnectionStringBuilder.get_Version@@200008 1000f444 f   System.Data.SQLite.netmodule
 0001:0000e46c       ?System.Data.SQLite.SQLiteConnectionStringBuilder.set_Version@@20010108 1000f46c f   System.Data.SQLite.netmodule
 0001:0000e494       ?System.Data.SQLite.SQLiteConnectionStringBuilder.get_SyncMode@@20001174 1000f494 f   System.Data.SQLite.netmodule
 0001:0000e4d8       ?System.Data.SQLite.SQLiteConnectionStringBuilder.set_SyncMode@@2001011174 1000f4d8 f   System.Data.SQLite.netmodule
 0001:0000e4f8       ?System.Data.SQLite.SQLiteConnectionStringBuilder.get_UseUTF16Encoding@@200002 1000f4f8 f   System.Data.SQLite.netmodule
 0001:0000e51c       ?System.Data.SQLite.SQLiteConnectionStringBuilder.set_UseUTF16Encoding@@20010102 1000f51c f   System.Data.SQLite.netmodule
 0001:0000e53c       ?System.Data.SQLite.SQLiteConnectionStringBuilder.get_Pooling@@200002 1000f53c f   System.Data.SQLite.netmodule
 0001:0000e560       ?System.Data.SQLite.SQLiteConnectionStringBuilder.set_Pooling@@20010102 1000f560 f   System.Data.SQLite.netmodule
 0001:0000e580       ?System.Data.SQLite.SQLiteConnectionStringBuilder.get_BinaryGUID@@200002 1000f580 f   System.Data.SQLite.netmodule
 0001:0000e5a4       ?System.Data.SQLite.SQLiteConnectionStringBuilder.set_BinaryGUID@@20010102 1000f5a4 f   System.Data.SQLite.netmodule
 0001:0000e5c4       ?System.Data.SQLite.SQLiteConnectionStringBuilder.get_DataSource@@20000O 1000f5c4 f   System.Data.SQLite.netmodule
 0001:0000e5ec       ?System.Data.SQLite.SQLiteConnectionStringBuilder.set_DataSource@@2001010O 1000f5ec f   System.Data.SQLite.netmodule
 0001:0000e608       ?System.Data.SQLite.SQLiteConnectionStringBuilder.get_Uri@@20000O 1000f608 f   System.Data.SQLite.netmodule
 0001:0000e630       ?System.Data.SQLite.SQLiteConnectionStringBuilder.set_Uri@@2001010O 1000f630 f   System.Data.SQLite.netmodule
 0001:0000e64c       ?System.Data.SQLite.SQLiteConnectionStringBuilder.get_FullUri@@20000O 1000f64c f   System.Data.SQLite.netmodule
 0001:0000e674       ?System.Data.SQLite.SQLiteConnectionStringBuilder.set_FullUri@@2001010O 1000f674 f   System.Data.SQLite.netmodule
 0001:0000e690       ?System.Data.SQLite.SQLiteConnectionStringBuilder.get_DefaultTimeout@@200008 1000f690 f   System.Data.SQLite.netmodule
 0001:0000e6b8       ?System.Data.SQLite.SQLiteConnectionStringBuilder.set_DefaultTimeout@@20010108 1000f6b8 f   System.Data.SQLite.netmodule
 0001:0000e6d8       ?System.Data.SQLite.SQLiteConnectionStringBuilder.get_BusyTimeout@@200008 1000f6d8 f   System.Data.SQLite.netmodule
 0001:0000e700       ?System.Data.SQLite.SQLiteConnectionStringBuilder.set_BusyTimeout@@20010108 1000f700 f   System.Data.SQLite.netmodule
 0001:0000e720       ?System.Data.SQLite.SQLiteConnectionStringBuilder.get_PrepareRetries@@200008 1000f720 f   System.Data.SQLite.netmodule
 0001:0000e748       ?System.Data.SQLite.SQLiteConnectionStringBuilder.set_PrepareRetries@@20010108 1000f748 f   System.Data.SQLite.netmodule
 0001:0000e768       ?System.Data.SQLite.SQLiteConnectionStringBuilder.get_ProgressOps@@200008 1000f768 f   System.Data.SQLite.netmodule
 0001:0000e790       ?System.Data.SQLite.SQLiteConnectionStringBuilder.set_ProgressOps@@20010108 1000f790 f   System.Data.SQLite.netmodule
 0001:0000e7b0       ?System.Data.SQLite.SQLiteConnectionStringBuilder.get_Enlist@@200002 1000f7b0 f   System.Data.SQLite.netmodule
 0001:0000e7d4       ?System.Data.SQLite.SQLiteConnectionStringBuilder.set_Enlist@@20010102 1000f7d4 f   System.Data.SQLite.netmodule
 0001:0000e7f4       ?System.Data.SQLite.SQLiteConnectionStringBuilder.get_FailIfMissing@@200002 1000f7f4 f   System.Data.SQLite.netmodule
 0001:0000e818       ?System.Data.SQLite.SQLiteConnectionStringBuilder.set_FailIfMissing@@20010102 1000f818 f   System.Data.SQLite.netmodule
 0001:0000e838       ?System.Data.SQLite.SQLiteConnectionStringBuilder.get_LegacyFormat@@200002 1000f838 f   System.Data.SQLite.netmodule
 0001:0000e85c       ?System.Data.SQLite.SQLiteConnectionStringBuilder.set_LegacyFormat@@20010102 1000f85c f   System.Data.SQLite.netmodule
 0001:0000e87c       ?System.Data.SQLite.SQLiteConnectionStringBuilder.get_ReadOnly@@200002 1000f87c f   System.Data.SQLite.netmodule
 0001:0000e8a0       ?System.Data.SQLite.SQLiteConnectionStringBuilder.set_ReadOnly@@20010102 1000f8a0 f   System.Data.SQLite.netmodule
 0001:0000e8c0       ?System.Data.SQLite.SQLiteConnectionStringBuilder.get_Password@@20000O 1000f8c0 f   System.Data.SQLite.netmodule
 0001:0000e8e8       ?System.Data.SQLite.SQLiteConnectionStringBuilder.set_Password@@2001010O 1000f8e8 f   System.Data.SQLite.netmodule
 0001:0000e904       ?System.Data.SQLite.SQLiteConnectionStringBuilder.get_HexPassword@@20001N05 1000f904 f   System.Data.SQLite.netmodule
 0001:0000e940       ?System.Data.SQLite.SQLiteConnectionStringBuilder.set_HexPassword@@2001011N05 1000f940 f   System.Data.SQLite.netmodule
 0001:0000e960       ?System.Data.SQLite.SQLiteConnectionStringBuilder.get_PageSize@@200008 1000f960 f   System.Data.SQLite.netmodule
 0001:0000e988       ?System.Data.SQLite.SQLiteConnectionStringBuilder.set_PageSize@@20010108 1000f988 f   System.Data.SQLite.netmodule
 0001:0000e9a8       ?System.Data.SQLite.SQLiteConnectionStringBuilder.get_MaxPageCount@@200008 1000f9a8 f   System.Data.SQLite.netmodule
 0001:0000e9d0       ?System.Data.SQLite.SQLiteConnectionStringBuilder.set_MaxPageCount@@20010108 1000f9d0 f   System.Data.SQLite.netmodule
 0001:0000e9f0       ?System.Data.SQLite.SQLiteConnectionStringBuilder.get_CacheSize@@200008 1000f9f0 f   System.Data.SQLite.netmodule
 0001:0000ea18       ?System.Data.SQLite.SQLiteConnectionStringBuilder.set_CacheSize@@20010108 1000fa18 f   System.Data.SQLite.netmodule
 0001:0000ea38       ?System.Data.SQLite.SQLiteConnectionStringBuilder.get_DateTimeFormat@@20001180N8 1000fa38 f   System.Data.SQLite.netmodule
 0001:0000ea84       ?System.Data.SQLite.SQLiteConnectionStringBuilder.set_DateTimeFormat@@2001011180N8 1000fa84 f   System.Data.SQLite.netmodule
 0001:0000eaa4       ?System.Data.SQLite.SQLiteConnectionStringBuilder.get_DateTimeKind@@20001179 1000faa4 f   System.Data.SQLite.netmodule
 0001:0000eaf0       ?System.Data.SQLite.SQLiteConnectionStringBuilder.set_DateTimeKind@@2001011179 1000faf0 f   System.Data.SQLite.netmodule
 0001:0000eb10       ?System.Data.SQLite.SQLiteConnectionStringBuilder.get_DateTimeFormatString@@20000O 1000fb10 f   System.Data.SQLite.netmodule
 0001:0000eb48       ?System.Data.SQLite.SQLiteConnectionStringBuilder.set_DateTimeFormatString@@2001010O 1000fb48 f   System.Data.SQLite.netmodule
 0001:0000eb64       ?System.Data.SQLite.SQLiteConnectionStringBuilder.get_BaseSchemaName@@20000O 1000fb64 f   System.Data.SQLite.netmodule
 0001:0000eb9c       ?System.Data.SQLite.SQLiteConnectionStringBuilder.set_BaseSchemaName@@2001010O 1000fb9c f   System.Data.SQLite.netmodule
 0001:0000ebb8       ?System.Data.SQLite.SQLiteConnectionStringBuilder.get_JournalMode@@20001180NM 1000fbb8 f   System.Data.SQLite.netmodule
 0001:0000ebfc       ?System.Data.SQLite.SQLiteConnectionStringBuilder.set_JournalMode@@2001011180NM 1000fbfc f   System.Data.SQLite.netmodule
 0001:0000ec1c       ?System.Data.SQLite.SQLiteConnectionStringBuilder.get_DefaultIsolationLevel@@2000118189 1000fc1c f   System.Data.SQLite.netmodule
 0001:0000ec60       ?System.Data.SQLite.SQLiteConnectionStringBuilder.set_DefaultIsolationLevel@@200101118189 1000fc60 f   System.Data.SQLite.netmodule
 0001:0000ec80       ?System.Data.SQLite.SQLiteConnectionStringBuilder.get_DefaultDbType@@2000118185 1000fc80 f   System.Data.SQLite.netmodule
 0001:0000eccc       ?System.Data.SQLite.SQLiteConnectionStringBuilder.set_DefaultDbType@@200101118185 1000fccc f   System.Data.SQLite.netmodule
 0001:0000ecec       ?System.Data.SQLite.SQLiteConnectionStringBuilder.get_DefaultTypeName@@20000O 1000fcec f   System.Data.SQLite.netmodule
 0001:0000ed14       ?System.Data.SQLite.SQLiteConnectionStringBuilder.set_DefaultTypeName@@2001010O 1000fd14 f   System.Data.SQLite.netmodule
 0001:0000ed30       ?System.Data.SQLite.SQLiteConnectionStringBuilder.get_VfsName@@20000O 1000fd30 f   System.Data.SQLite.netmodule
 0001:0000ed58       ?System.Data.SQLite.SQLiteConnectionStringBuilder.set_VfsName@@2001010O 1000fd58 f   System.Data.SQLite.netmodule
 0001:0000ed74       ?System.Data.SQLite.SQLiteConnectionStringBuilder.get_ForeignKeys@@200002 1000fd74 f   System.Data.SQLite.netmodule
 0001:0000ed98       ?System.Data.SQLite.SQLiteConnectionStringBuilder.set_ForeignKeys@@20010102 1000fd98 f   System.Data.SQLite.netmodule
 0001:0000edb8       ?System.Data.SQLite.SQLiteConnectionStringBuilder.get_RecursiveTriggers@@200002 1000fdb8 f   System.Data.SQLite.netmodule
 0001:0000eddc       ?System.Data.SQLite.SQLiteConnectionStringBuilder.set_RecursiveTriggers@@20010102 1000fddc f   System.Data.SQLite.netmodule
 0001:0000edfc       ?System.Data.SQLite.SQLiteConnectionStringBuilder.get_ZipVfsVersion@@20000O 1000fdfc f   System.Data.SQLite.netmodule
 0001:0000ee24       ?System.Data.SQLite.SQLiteConnectionStringBuilder.set_ZipVfsVersion@@2001010O 1000fe24 f   System.Data.SQLite.netmodule
 0001:0000ee40       ?System.Data.SQLite.SQLiteConnectionStringBuilder.get_Flags@@2000112M 1000fe40 f   System.Data.SQLite.netmodule
 0001:0000ee90       ?System.Data.SQLite.SQLiteConnectionStringBuilder.set_Flags@@200101112M 1000fe90 f   System.Data.SQLite.netmodule
 0001:0000eeb0       ?System.Data.SQLite.SQLiteConnectionStringBuilder.get_SetDefaults@@200002 1000feb0 f   System.Data.SQLite.netmodule
 0001:0000eed4       ?System.Data.SQLite.SQLiteConnectionStringBuilder.set_SetDefaults@@20010102 1000fed4 f   System.Data.SQLite.netmodule
 0001:0000eef4       ?System.Data.SQLite.SQLiteConnectionStringBuilder.get_ToFullPath@@200002 1000fef4 f   System.Data.SQLite.netmodule
 0001:0000ef18       ?System.Data.SQLite.SQLiteConnectionStringBuilder.set_ToFullPath@@20010102 1000ff18 f   System.Data.SQLite.netmodule
 0001:0000ef38       ?System.Data.SQLite.SQLiteConnectionStringBuilder.get_NoDefaultFlags@@200002 1000ff38 f   System.Data.SQLite.netmodule
 0001:0000ef5c       ?System.Data.SQLite.SQLiteConnectionStringBuilder.set_NoDefaultFlags@@20010102 1000ff5c f   System.Data.SQLite.netmodule
 0001:0000ef7c       ?System.Data.SQLite.SQLiteConnectionStringBuilder.get_NoSharedFlags@@200002 1000ff7c f   System.Data.SQLite.netmodule
 0001:0000efa0       ?System.Data.SQLite.SQLiteConnectionStringBuilder.set_NoSharedFlags@@20010102 1000ffa0 f   System.Data.SQLite.netmodule
 0001:0000efc0       ?System.Data.SQLite.SQLiteConnectionStringBuilder.TryGetValue@@2002020O101M 1000ffc0 f   System.Data.SQLite.netmodule
 0001:0000f080       ?System.Data.SQLite.SQLiteConnectionStringBuilder.FallbackGetProperties@@2001011281M9 10010080 f   System.Data.SQLite.netmodule
 0001:0000f10c       ?System.Data.SQLite.SQLiteConvert..ctor@@2003011180N811790O 1001010c f   System.Data.SQLite.netmodule
 0001:0000f134       ?System.Data.SQLite.SQLiteConvert.ToUTF8@@00011N050O 10010134 f   System.Data.SQLite.netmodule
 0001:0000f178       ?System.Data.SQLite.SQLiteConvert.ToUTF8@@20011N051180K5 10010178 f   System.Data.SQLite.netmodule
 0001:0000f194       ?System.Data.SQLite.SQLiteConvert.ToString@@20020O1808 10010194 f   System.Data.SQLite.netmodule
 0001:0000f1a8       ?System.Data.SQLite.SQLiteConvert.UTF8ToString@@00020O1808 100101a8 f   System.Data.SQLite.netmodule
 0001:0000f208       ?System.Data.SQLite.SQLiteConvert.isValidJd@@0001020K 10010208 f   System.Data.SQLite.netmodule
 0001:0000f22c       ?System.Data.SQLite.SQLiteConvert.DoubleToJd@@00010K0N 1001022c f   System.Data.SQLite.netmodule
 0001:0000f248       ?System.Data.SQLite.SQLiteConvert.JdToDouble@@00010N0K 10010248 f   System.Data.SQLite.netmodule
 0001:0000f264       ?System.Data.SQLite.SQLiteConvert.computeYMD@@00021180K50K151175011180K5 10010264 f   System.Data.SQLite.netmodule
 0001:0000f384       ?System.Data.SQLite.SQLiteConvert.computeHMS@@00021180K50K151175011180K5 10010384 f   System.Data.SQLite.netmodule
 0001:0000f4a4       ?System.Data.SQLite.SQLiteConvert.computeJD@@00010K1180K5 100104a4 f   System.Data.SQLite.netmodule
 0001:0000f558       ?System.Data.SQLite.SQLiteConvert.ToDateTime@@20011180K50O 10010558 f   System.Data.SQLite.netmodule
 0001:0000f580       ?System.Data.SQLite.SQLiteConvert.ToDateTime@@00041180K50O1180N811790O 10010580 f   System.Data.SQLite.netmodule
 0001:0000f698       ?System.Data.SQLite.SQLiteConvert.ToDateTime@@20011180K50N 10010698 f   System.Data.SQLite.netmodule
 0001:0000f6b4       ?System.Data.SQLite.SQLiteConvert.ToDateTime@@00021180K50N1179 100106b4 f   System.Data.SQLite.netmodule
 0001:0000f720       ?System.Data.SQLite.SQLiteConvert.UnixEpochToDateTime@@00021180K50K1179 10010720 f   System.Data.SQLite.netmodule
 0001:0000f744       ?System.Data.SQLite.SQLiteConvert.TicksToDateTime@@00021180K50K1179 10010744 f   System.Data.SQLite.netmodule
 0001:0000f758       ?System.Data.SQLite.SQLiteConvert.ToJulianDay@@00010N1180K5 10010758 f   System.Data.SQLite.netmodule
 0001:0000f770       ?System.Data.SQLite.SQLiteConvert.ToUnixEpoch@@00010K1180K5 10010770 f   System.Data.SQLite.netmodule
 0001:0000f798       ?System.Data.SQLite.SQLiteConvert.GetDateTimeKindFormat@@00020O11790O 10010798 f   System.Data.SQLite.netmodule
 0001:0000f7bc       ?System.Data.SQLite.SQLiteConvert.ToString@@20010O1180K5 100107bc f   System.Data.SQLite.netmodule
 0001:0000f7e4       ?System.Data.SQLite.SQLiteConvert.ToString@@00040O1180K51180N811790O 100107e4 f   System.Data.SQLite.netmodule
 0001:0000f8d0       ?System.Data.SQLite.SQLiteConvert.ToDateTime@@20021180K51808 100108d0 f   System.Data.SQLite.netmodule
 0001:0000f8ec       ?System.Data.SQLite.SQLiteConvert.Split@@00021N0O0O03 100108ec f   System.Data.SQLite.netmodule
 0001:0000fa3c       ?System.Data.SQLite.SQLiteConvert.NewSplit@@00041N0O0O0302100O 10010a3c f   System.Data.SQLite.netmodule
 0001:0000fb4c       ?System.Data.SQLite.SQLiteConvert.ToStringWithProvider@@00020O1M1281NN 10010b4c f   System.Data.SQLite.netmodule
 0001:0000fb88       ?System.Data.SQLite.SQLiteConvert.ToBoolean@@0003021M1281NN02 10010b88 f   System.Data.SQLite.netmodule
 0001:0000fcec       ?System.Data.SQLite.SQLiteConvert.ToBoolean@@0001021M 10010cec f   System.Data.SQLite.netmodule
 0001:0000fd18       ?System.Data.SQLite.SQLiteConvert.ToBoolean@@0001020O 10010d18 f   System.Data.SQLite.netmodule
 0001:0000fe6c       ?System.Data.SQLite.SQLiteConvert.SQLiteTypeToType@@00011280L11280P4 10010e6c f   System.Data.SQLite.netmodule
 0001:0000fe9c       ?System.Data.SQLite.SQLiteConvert.TypeToDbType@@00011181851280L1 10010e9c f   System.Data.SQLite.netmodule
 0001:0000fee8       ?System.Data.SQLite.SQLiteConvert.DbTypeToColumnSize@@000108118185 10010ee8 f   System.Data.SQLite.netmodule
 0001:0000fefc       ?System.Data.SQLite.SQLiteConvert.DbTypeToNumericPrecision@@00011M118185 10010efc f   System.Data.SQLite.netmodule
 0001:0000ff10       ?System.Data.SQLite.SQLiteConvert.DbTypeToNumericScale@@00011M118185 10010f10 f   System.Data.SQLite.netmodule
 0001:0000ff24       ?System.Data.SQLite.SQLiteConvert.GetDefaultTypeName@@00010O1270 10010f24 f   System.Data.SQLite.netmodule
 0001:0000ffb0       ?System.Data.SQLite.SQLiteConvert.DefaultTypeNameWarning@@000301118185112M0O 10010fb0 f   System.Data.SQLite.netmodule
 0001:0000fff4       ?System.Data.SQLite.SQLiteConvert.DefaultDbTypeWarning@@0003010O112M15117501118185 10010ff4 f   System.Data.SQLite.netmodule
 0001:00010040       ?System.Data.SQLite.SQLiteConvert.DbTypeToTypeName@@00030O1270118185112M 10011040 f   System.Data.SQLite.netmodule
 0001:00010134       ?System.Data.SQLite.SQLiteConvert.DbTypeToType@@00011280L1118185 10011134 f   System.Data.SQLite.netmodule
 0001:00010148       ?System.Data.SQLite.SQLiteConvert.TypeToAffinity@@00011180N01280L1 10011148 f   System.Data.SQLite.netmodule
 0001:00010190       ?System.Data.SQLite.SQLiteConvert.GetSQLiteDbTypeMap@@00001280P8 10011190 f   System.Data.SQLite.netmodule
 0001:0001064c       ?System.Data.SQLite.SQLiteConvert.IsStringDbType@@000102118185 1001164c f   System.Data.SQLite.netmodule
 0001:00010678       ?System.Data.SQLite.SQLiteConvert.SettingValueToString@@00010O1M 10011678 f   System.Data.SQLite.netmodule
 0001:000106a0       ?System.Data.SQLite.SQLiteConvert.GetDefaultDbType@@00011181851270 100116a0 f   System.Data.SQLite.netmodule
 0001:00010768       ?System.Data.SQLite.SQLiteConvert.GetStringOrNull@@00010O1M 10011768 f   System.Data.SQLite.netmodule
 0001:0001079c       ?System.Data.SQLite.SQLiteConvert.LooksLikeNull@@0001020O 1001179c f   System.Data.SQLite.netmodule
 0001:000107b0       ?System.Data.SQLite.SQLiteConvert.LooksLikeInt64@@0001020O 100117b0 f   System.Data.SQLite.netmodule
 0001:000107e4       ?System.Data.SQLite.SQLiteConvert.LooksLikeDouble@@0001020O 100117e4 f   System.Data.SQLite.netmodule
 0001:0001081c       ?System.Data.SQLite.SQLiteConvert.LooksLikeDateTime@@0002021280MM0O 1001181c f   System.Data.SQLite.netmodule
 0001:00010870       ?System.Data.SQLite.SQLiteConvert.TypeNameToDbType@@000311818512700O112M 10011870 f   System.Data.SQLite.netmodule
 0001:00010a10       ?System.Data.SQLite.SQLiteConvert..cctor@@000001 10011a10 f   System.Data.SQLite.netmodule
 0001:00010fd8       ?System.Data.SQLite.SQLiteType..ctor@@200001 10011fd8 f   System.Data.SQLite.netmodule
 0001:00010fec       ?System.Data.SQLite.SQLiteType..ctor@@2002011180N0118185 10011fec f   System.Data.SQLite.netmodule
 0001:00011010       ?System.Data.SQLite.SQLiteDbTypeMap..ctor@@200001 10012010 f   System.Data.SQLite.netmodule
 0001:00011034       ?System.Data.SQLite.SQLiteDbTypeMap..ctor@@200101151281O9011280PM 10012034 f   System.Data.SQLite.netmodule
 0001:00011050       ?System.Data.SQLite.SQLiteDbTypeMap.Clear@@200008 10012050 f   System.Data.SQLite.netmodule
 0001:00011090       ?System.Data.SQLite.SQLiteDbTypeMap.Add@@200101151281O9011280PM 10012090 f   System.Data.SQLite.netmodule
 0001:000110f4       ?System.Data.SQLite.SQLiteDbTypeMap.Add@@2001011280PM 100120f4 f   System.Data.SQLite.netmodule
 0001:0001114c       ?System.Data.SQLite.SQLiteDbTypeMap.ContainsKey@@200102118185 1001214c f   System.Data.SQLite.netmodule
 0001:00011170       ?System.Data.SQLite.SQLiteDbTypeMap.TryGetValue@@200202118185101280PM 10012170 f   System.Data.SQLite.netmodule
 0001:00011198       ?System.Data.SQLite.SQLiteDbTypeMap.Remove@@200102118185 10012198 f   System.Data.SQLite.netmodule
 0001:000111bc       ?System.Data.SQLite.SQLiteDbTypeMapping..ctor@@2003010O11818502 100121bc f   System.Data.SQLite.netmodule
 0001:000111e4       ?System.Data.SQLite.TypeNameStringComparer.Equals@@2002020O0O 100121e4 f   System.Data.SQLite.netmodule
 0001:000111fc       ?System.Data.SQLite.TypeNameStringComparer.GetHashCode@@2001080O 100121fc f   System.Data.SQLite.netmodule
 0001:00011224       ?System.Data.SQLite.TypeNameStringComparer.Compare@@2002080O0O 10012224 f   System.Data.SQLite.netmodule
 0001:0001124c       ?System.Data.SQLite.TypeNameStringComparer..ctor@@200001 1001224c f   System.Data.SQLite.netmodule
 0001:00011260       ?System.Data.SQLite.SQLiteDataAdapter..ctor@@200001 10012260 f   System.Data.SQLite.netmodule
 0001:0001127c       ?System.Data.SQLite.SQLiteDataAdapter..ctor@@200101123M 1001227c f   System.Data.SQLite.netmodule
 0001:000112a4       ?System.Data.SQLite.SQLiteDataAdapter..ctor@@2002010O1270 100122a4 f   System.Data.SQLite.netmodule
 0001:000112cc       ?System.Data.SQLite.SQLiteDataAdapter..ctor@@2002010O0O 100122cc f   System.Data.SQLite.netmodule
 0001:000112e4       ?System.Data.SQLite.SQLiteDataAdapter..ctor@@2003010O0O02 100122e4 f   System.Data.SQLite.netmodule
 0001:00011314       ?System.Data.SQLite.SQLiteDataAdapter.CheckDisposed@@200001 10012314 f   System.Data.SQLite.netmodule
 0001:00011340       ?System.Data.SQLite.SQLiteDataAdapter.Dispose@@20010102 10012340 f   System.Data.SQLite.netmodule
 0001:000113f8       ?System.Data.SQLite.SQLiteDataAdapter.add_RowUpdating@@200101151281P90112814N 100123f8 f   System.Data.SQLite.netmodule
 0001:00011464       ?System.Data.SQLite.SQLiteDataAdapter.remove_RowUpdating@@200101151281P90112814N 10012464 f   System.Data.SQLite.netmodule
 0001:00011488       ?System.Data.SQLite.SQLiteDataAdapter.FindBuilder@@000112819N1261 10012488 f   System.Data.SQLite.netmodule
 0001:000114c4       ?System.Data.SQLite.SQLiteDataAdapter.add_RowUpdated@@200101151281P9011281PN 100124c4 f   System.Data.SQLite.netmodule
 0001:000114e8       ?System.Data.SQLite.SQLiteDataAdapter.remove_RowUpdated@@200101151281P9011281PN 100124e8 f   System.Data.SQLite.netmodule
 0001:0001150c       ?System.Data.SQLite.SQLiteDataAdapter.OnRowUpdating@@20010112814N 1001250c f   System.Data.SQLite.netmodule
 0001:0001153c       ?System.Data.SQLite.SQLiteDataAdapter.OnRowUpdated@@2001011281PN 1001253c f   System.Data.SQLite.netmodule
 0001:0001156c       ?System.Data.SQLite.SQLiteDataAdapter.get_SelectCommand@@2000123M 1001256c f   System.Data.SQLite.netmodule
 0001:0001158c       ?System.Data.SQLite.SQLiteDataAdapter.set_SelectCommand@@200101123M 1001258c f   System.Data.SQLite.netmodule
 0001:000115a8       ?System.Data.SQLite.SQLiteDataAdapter.get_InsertCommand@@2000123M 100125a8 f   System.Data.SQLite.netmodule
 0001:000115c8       ?System.Data.SQLite.SQLiteDataAdapter.set_InsertCommand@@200101123M 100125c8 f   System.Data.SQLite.netmodule
 0001:000115e4       ?System.Data.SQLite.SQLiteDataAdapter.get_UpdateCommand@@2000123M 100125e4 f   System.Data.SQLite.netmodule
 0001:00011604       ?System.Data.SQLite.SQLiteDataAdapter.set_UpdateCommand@@200101123M 10012604 f   System.Data.SQLite.netmodule
 0001:00011620       ?System.Data.SQLite.SQLiteDataAdapter.get_DeleteCommand@@2000123M 10012620 f   System.Data.SQLite.netmodule
 0001:00011640       ?System.Data.SQLite.SQLiteDataAdapter.set_DeleteCommand@@200101123M 10012640 f   System.Data.SQLite.netmodule
 0001:0001165c       ?System.Data.SQLite.SQLiteDataAdapter..cctor@@000001 1001265c f   System.Data.SQLite.netmodule
 0001:00011680       ?System.Data.SQLite.SQLiteDataReader..ctor@@200201123M11810N 10012680 f   System.Data.SQLite.netmodule
 0001:00011724       ?System.Data.SQLite.SQLiteDataReader.CheckDisposed@@200001 10012724 f   System.Data.SQLite.netmodule
 0001:00011758       ?System.Data.SQLite.SQLiteDataReader.Dispose@@20010102 10012758 f   System.Data.SQLite.netmodule
 0001:00011840       ?System.Data.SQLite.SQLiteDataReader.Cancel@@200001 10012840 f   System.Data.SQLite.netmodule
 0001:00011854       ?System.Data.SQLite.SQLiteDataReader.Close@@200001 10012854 f   System.Data.SQLite.netmodule
 0001:000119f4       ?System.Data.SQLite.SQLiteDataReader.CheckClosed@@200001 100129f4 f   System.Data.SQLite.netmodule
 0001:00011a60       ?System.Data.SQLite.SQLiteDataReader.CheckValidRow@@200001 10012a60 f   System.Data.SQLite.netmodule
 0001:00011a80       ?System.Data.SQLite.SQLiteDataReader.GetEnumerator@@20001280NN 10012a80 f   System.Data.SQLite.netmodule
 0001:00011aa8       ?System.Data.SQLite.SQLiteDataReader.get_Depth@@200008 10012aa8 f   System.Data.SQLite.netmodule
 0001:00011ac4       ?System.Data.SQLite.SQLiteDataReader.get_FieldCount@@200008 10012ac4 f   System.Data.SQLite.netmodule
 0001:00011b00       ?System.Data.SQLite.SQLiteDataReader.RefreshFlags@@200001 10012b00 f   System.Data.SQLite.netmodule
 0001:00011b24       ?System.Data.SQLite.SQLiteDataReader.get_StepCount@@200008 10012b24 f   System.Data.SQLite.netmodule
 0001:00011b44       ?System.Data.SQLite.SQLiteDataReader.get_PrivateVisibleFieldCount@@200008 10012b44 f   System.Data.SQLite.netmodule
 0001:00011b58       ?System.Data.SQLite.SQLiteDataReader.get_VisibleFieldCount@@200008 10012b58 f   System.Data.SQLite.netmodule
 0001:00011b78       ?System.Data.SQLite.SQLiteDataReader.VerifyForGet@@200001 10012b78 f   System.Data.SQLite.netmodule
 0001:00011b94       ?System.Data.SQLite.SQLiteDataReader.VerifyType@@20021180N008118185 10012b94 f   System.Data.SQLite.netmodule
 0001:00011c7c       ?System.Data.SQLite.SQLiteDataReader.InvokeReadValueCallback@@2003010812481002 10012c7c f   System.Data.SQLite.netmodule
 0001:00011d38       ?System.Data.SQLite.SQLiteDataReader.GetRowId@@2001151175010K08 10012d38 f   System.Data.SQLite.netmodule
 0001:00011d94       ?System.Data.SQLite.SQLiteDataReader.GetBlob@@200212380802 10012d94 f   System.Data.SQLite.netmodule
 0001:00011e20       ?System.Data.SQLite.SQLiteDataReader.GetBoolean@@20010208 10012e20 f   System.Data.SQLite.netmodule
 0001:00011ed8       ?System.Data.SQLite.SQLiteDataReader.GetByte@@20010508 10012ed8 f   System.Data.SQLite.netmodule
 0001:00011f98       ?System.Data.SQLite.SQLiteDataReader.GetBytes@@20050K080K1N050808 10012f98 f   System.Data.SQLite.netmodule
 0001:00012080       ?System.Data.SQLite.SQLiteDataReader.GetChar@@20010308 10013080 f   System.Data.SQLite.netmodule
 0001:00012144       ?System.Data.SQLite.SQLiteDataReader.GetChars@@20050K080K1N030808 10013144 f   System.Data.SQLite.netmodule
 0001:00012248       ?System.Data.SQLite.SQLiteDataReader.GetDataTypeName@@20010O08 10013248 f   System.Data.SQLite.netmodule
 0001:0001229c       ?System.Data.SQLite.SQLiteDataReader.GetDateTime@@20011180K508 1001329c f   System.Data.SQLite.netmodule
 0001:00012358       ?System.Data.SQLite.SQLiteDataReader.GetDecimal@@200111816108 10013358 f   System.Data.SQLite.netmodule
 0001:00012424       ?System.Data.SQLite.SQLiteDataReader.GetDouble@@20010N08 10013424 f   System.Data.SQLite.netmodule
 0001:000124e0       ?System.Data.SQLite.SQLiteDataReader.GetFieldType@@20011280L108 100134e0 f   System.Data.SQLite.netmodule
 0001:0001252c       ?System.Data.SQLite.SQLiteDataReader.GetFloat@@20010M08 1001352c f   System.Data.SQLite.netmodule
 0001:000125f0       ?System.Data.SQLite.SQLiteDataReader.GetGuid@@200111816508 100135f0 f   System.Data.SQLite.netmodule
 0001:000126e0       ?System.Data.SQLite.SQLiteDataReader.GetInt16@@20010608 100136e0 f   System.Data.SQLite.netmodule
 0001:000127a4       ?System.Data.SQLite.SQLiteDataReader.GetInt32@@20010808 100137a4 f   System.Data.SQLite.netmodule
 0001:00012860       ?System.Data.SQLite.SQLiteDataReader.GetInt64@@20010K08 10013860 f   System.Data.SQLite.netmodule
 0001:0001291c       ?System.Data.SQLite.SQLiteDataReader.GetName@@20010O08 1001391c f   System.Data.SQLite.netmodule
 0001:0001296c       ?System.Data.SQLite.SQLiteDataReader.GetDatabaseName@@20010O08 1001396c f   System.Data.SQLite.netmodule
 0001:000129bc       ?System.Data.SQLite.SQLiteDataReader.GetTableName@@20010O08 100139bc f   System.Data.SQLite.netmodule
 0001:00012a0c       ?System.Data.SQLite.SQLiteDataReader.GetOriginalName@@20010O08 10013a0c f   System.Data.SQLite.netmodule
 0001:00012a5c       ?System.Data.SQLite.SQLiteDataReader.GetOrdinal@@2001080O 10013a5c f   System.Data.SQLite.netmodule
 0001:00012aec       ?System.Data.SQLite.SQLiteDataReader.GetSchemaTable@@2000128155 10013aec f   System.Data.SQLite.netmodule
 0001:00012b08       ?System.Data.SQLite.SQLiteDataReader.GetStatementColumnParents@@0005011220128174081015127102128218151280N90108101512710208128218 10013b08 f   System.Data.SQLite.netmodule
 0001:00012bc8       ?System.Data.SQLite.SQLiteDataReader.CountParents@@00010815127102128218151280N90108 10013bc8 f   System.Data.SQLite.netmodule
 0001:00012c3c       ?System.Data.SQLite.SQLiteDataReader.GetSchemaTable@@20021281550202 10013c3c f   System.Data.SQLite.netmodule
 0001:00013694       ?System.Data.SQLite.SQLiteDataReader.GetString@@20010O08 10014694 f   System.Data.SQLite.netmodule
 0001:00013750       ?System.Data.SQLite.SQLiteDataReader.GetValue@@20011M08 10014750 f   System.Data.SQLite.netmodule
 0001:00013880       ?System.Data.SQLite.SQLiteDataReader.GetValues@@2001081N1M 10014880 f   System.Data.SQLite.netmodule
 0001:000138bc       ?System.Data.SQLite.SQLiteDataReader.GetValues@@2000128209 100148bc f   System.Data.SQLite.netmodule
 0001:00013940       ?System.Data.SQLite.SQLiteDataReader.get_HasRows@@200002 10014940 f   System.Data.SQLite.netmodule
 0001:00013990       ?System.Data.SQLite.SQLiteDataReader.get_IsClosed@@200002 10014990 f   System.Data.SQLite.netmodule
 0001:000139ac       ?System.Data.SQLite.SQLiteDataReader.IsDBNull@@20010208 100149ac f   System.Data.SQLite.netmodule
 0001:00013a04       ?System.Data.SQLite.SQLiteDataReader.NextResult@@200002 10014a04 f   System.Data.SQLite.netmodule
 0001:00013c48       ?System.Data.SQLite.SQLiteDataReader.GetConnection@@00011270128108 10014c48 f   System.Data.SQLite.netmodule
 0001:00013c94       ?System.Data.SQLite.SQLiteDataReader.GetSQLiteType@@20021280P41280P40O 10014c94 f   System.Data.SQLite.netmodule
 0001:00013cf8       ?System.Data.SQLite.SQLiteDataReader.GetSQLiteType@@20021280P4112M08 10014cf8 f   System.Data.SQLite.netmodule
 0001:00013d7c       ?System.Data.SQLite.SQLiteDataReader.Read@@200002 10014d7c f   System.Data.SQLite.netmodule
 0001:00013e10       ?System.Data.SQLite.SQLiteDataReader.get_RecordsAffected@@200008 10014e10 f   System.Data.SQLite.netmodule
 0001:00013e2c       ?System.Data.SQLite.SQLiteDataReader.get_Item@@20011M0O 10014e2c f   System.Data.SQLite.netmodule
 0001:00013e4c       ?System.Data.SQLite.SQLiteDataReader.get_Item@@20011M08 10014e4c f   System.Data.SQLite.netmodule
 0001:00013e68       ?System.Data.SQLite.SQLiteDataReader.LoadKeyInfo@@200001 10014e68 f   System.Data.SQLite.netmodule
 0001:00013eac       ?System.Data.SQLite.SQLiteDefineConstants..cctor@@000001 10014eac f   System.Data.SQLite.netmodule
 0001:00013f5c       ?System.Data.SQLite.SQLiteException..ctor@@200201128215118219 10014f5c f   System.Data.SQLite.netmodule
 0001:00013f84       ?System.Data.SQLite.SQLiteException..ctor@@2002011181140O 10014f84 f   System.Data.SQLite.netmodule
 0001:00013fa8       ?System.Data.SQLite.SQLiteException..ctor@@2001010O 10014fa8 f   System.Data.SQLite.netmodule
 0001:00013fc0       ?System.Data.SQLite.SQLiteException..ctor@@200001 10014fc0 f   System.Data.SQLite.netmodule
 0001:00013fd4       ?System.Data.SQLite.SQLiteException..ctor@@2002010O1280ON 10014fd4 f   System.Data.SQLite.netmodule
 0001:00013fec       ?System.Data.SQLite.SQLiteException.GetObjectData@@200201128215118219 10014fec f   System.Data.SQLite.netmodule
 0001:0001401c       ?System.Data.SQLite.SQLiteException.get_ResultCode@@2000118114 1001501c f   System.Data.SQLite.netmodule
 0001:00014030       ?System.Data.SQLite.SQLiteException.get_ErrorCode@@200008 10015030 f   System.Data.SQLite.netmodule
 0001:00014044       ?System.Data.SQLite.SQLiteException.GetErrorString@@00010O118114 10015044 f   System.Data.SQLite.netmodule
 0001:00014084       ?System.Data.SQLite.SQLiteException.GetStockErrorMessage@@00020O1181140O 10015084 f   System.Data.SQLite.netmodule
 0001:000140c0       ?System.Data.SQLite.SQLiteFactory..ctor@@200001 100150c0 f   System.Data.SQLite.netmodule
 0001:000140d4       ?System.Data.SQLite.SQLiteFactory.Dispose@@200001 100150d4 f   System.Data.SQLite.netmodule
 0001:000140f0       ?System.Data.SQLite.SQLiteFactory.CheckDisposed@@200001 100150f0 f   System.Data.SQLite.netmodule
 0001:0001411c       ?System.Data.SQLite.SQLiteFactory.Dispose@@20010102 1001511c f   System.Data.SQLite.netmodule
 0001:00014138       ?System.Data.SQLite.SQLiteFactory.Finalize@@200001 10015138 f   System.Data.SQLite.netmodule
 0001:00014174       ?System.Data.SQLite.SQLiteFactory.add_Log@@200101128160 10015174 f   System.Data.SQLite.netmodule
 0001:00014190       ?System.Data.SQLite.SQLiteFactory.remove_Log@@200101128160 10015190 f   System.Data.SQLite.netmodule
 0001:000141ac       ?System.Data.SQLite.SQLiteFactory.CreateCommand@@20001280M9 100151ac f   System.Data.SQLite.netmodule
 0001:000141c4       ?System.Data.SQLite.SQLiteFactory.CreateCommandBuilder@@200012813N 100151c4 f   System.Data.SQLite.netmodule
 0001:000141dc       ?System.Data.SQLite.SQLiteFactory.CreateConnection@@20001280P9 100151dc f   System.Data.SQLite.netmodule
 0001:000141f4       ?System.Data.SQLite.SQLiteFactory.CreateConnectionStringBuilder@@20001281K9 100151f4 f   System.Data.SQLite.netmodule
 0001:0001420c       ?System.Data.SQLite.SQLiteFactory.CreateDataAdapter@@2000128149 1001520c f   System.Data.SQLite.netmodule
 0001:00014224       ?System.Data.SQLite.SQLiteFactory.CreateParameter@@20001280P5 10015224 f   System.Data.SQLite.netmodule
 0001:0001423c       ?System.Data.SQLite.SQLiteFactory..cctor@@000001 1001523c f   System.Data.SQLite.netmodule
 0001:00014294       ?System.Data.SQLite.SQLiteFactory.System.IServiceProvider.GetService@@20011M1280L1 10015294 f   System.Data.SQLite.netmodule
 0001:000142d8       ?System.Data.SQLite.SQLiteFactory.GetSQLiteProviderServicesInstance@@20001M 100152d8 f   System.Data.SQLite.netmodule
 0001:00014384       ?System.Data.SQLite.SQLiteFunction..ctor@@200001 10015384 f   System.Data.SQLite.netmodule
 0001:000143a4       ?System.Data.SQLite.SQLiteFunction..ctor@@2004011180N811790O02 100153a4 f   System.Data.SQLite.netmodule
 0001:000143e8       ?System.Data.SQLite.SQLiteFunction.Dispose@@200001 100153e8 f   System.Data.SQLite.netmodule
 0001:00014404       ?System.Data.SQLite.SQLiteFunction.CheckDisposed@@200001 10015404 f   System.Data.SQLite.netmodule
 0001:00014430       ?System.Data.SQLite.SQLiteFunction.Dispose@@20010102 10015430 f   System.Data.SQLite.netmodule
 0001:000144f8       ?System.Data.SQLite.SQLiteFunction.Finalize@@200001 100154f8 f   System.Data.SQLite.netmodule
 0001:00014534       ?System.Data.SQLite.SQLiteFunction.get_SQLiteConvert@@20001280MM 10015534 f   System.Data.SQLite.netmodule
 0001:00014550       ?System.Data.SQLite.SQLiteFunction.Invoke@@20011M1N1M 10015550 f   System.Data.SQLite.netmodule
 0001:00014564       ?System.Data.SQLite.SQLiteFunction.Step@@2003011N1M08101M 10015564 f   System.Data.SQLite.netmodule
 0001:00014578       ?System.Data.SQLite.SQLiteFunction.Final@@20011M1M 10015578 f   System.Data.SQLite.netmodule
 0001:0001458c       ?System.Data.SQLite.SQLiteFunction.Compare@@2002080O0O 1001558c f   System.Data.SQLite.netmodule
 0001:000145a0       ?System.Data.SQLite.SQLiteFunction.ConvertParams@@20021N1M0818 100155a0 f   System.Data.SQLite.netmodule
 0001:000146c8       ?System.Data.SQLite.SQLiteFunction.SetReturnValue@@200201181M 100156c8 f   System.Data.SQLite.netmodule
 0001:000147c8       ?System.Data.SQLite.SQLiteFunction.ScalarCallback@@200301180818 100157c8 f   System.Data.SQLite.netmodule
 0001:00014860       ?System.Data.SQLite.SQLiteFunction.CompareCallback@@2005081808180818 10015860 f   System.Data.SQLite.netmodule
 0001:00014918       ?System.Data.SQLite.SQLiteFunction.CompareCallback16@@2005081808180818 10015918 f   System.Data.SQLite.netmodule
 0001:000149d0       ?System.Data.SQLite.SQLiteFunction.StepCallback@@200301180818 100159d0 f   System.Data.SQLite.netmodule
 0001:00014ae4       ?System.Data.SQLite.SQLiteFunction.FinalCallback@@20010118 10015ae4 f   System.Data.SQLite.netmodule
 0001:00014be4       ?System.Data.SQLite.SQLiteFunction..cctor@@000001 10015be4 f   System.Data.SQLite.netmodule
 0001:00014d40       ?System.Data.SQLite.SQLiteFunction.RegisterFunction@@0001011280L1 10015d40 f   System.Data.SQLite.netmodule
 0001:00014da0       ?System.Data.SQLite.SQLiteFunction.RegisterFunction@@0006010O081181381280L112819N12819N 10015da0 f   System.Data.SQLite.netmodule
 0001:00014dd4       ?System.Data.SQLite.SQLiteFunction.ReplaceFunction@@0002021281541M 10015dd4 f   System.Data.SQLite.netmodule
 0001:00014e20       ?System.Data.SQLite.SQLiteFunction.CreateFunction@@0002021281541012811M 10015e20 f   System.Data.SQLite.netmodule
 0001:00014e80       ?System.Data.SQLite.SQLiteFunction.BindFunctions@@0002151280910212815412811M1220112M 10015e80 f   System.Data.SQLite.netmodule
 0001:00014f0c       ?System.Data.SQLite.SQLiteFunction.UnbindAllFunctions@@0003021220112M02 10015f0c f   System.Data.SQLite.netmodule
 0001:00015010       ?System.Data.SQLite.SQLiteFunction.BindFunction@@000401122012815412811M112M 10016010 f   System.Data.SQLite.netmodule
 0001:00015128       ?System.Data.SQLite.SQLiteFunction.UnbindFunction@@000402122012815412811M112M 10016128 f   System.Data.SQLite.netmodule
 0001:0001519c       ?System.Data.SQLite.SQLiteDelegateFunction..ctor@@200001 1001619c f   System.Data.SQLite.netmodule
 0001:000151b4       ?System.Data.SQLite.SQLiteDelegateFunction..ctor@@20020112819N12819N 100161b4 f   System.Data.SQLite.netmodule
 0001:000151d8       ?System.Data.SQLite.SQLiteDelegateFunction.GetInvokeArgs@@20021N1M1N1M02 100161d8 f   System.Data.SQLite.netmodule
 0001:00015208       ?System.Data.SQLite.SQLiteDelegateFunction.GetStepArgs@@20041N1M1N1M081M02 10016208 f   System.Data.SQLite.netmodule
 0001:00015248       ?System.Data.SQLite.SQLiteDelegateFunction.UpdateStepArgs@@2003011N1M101M02 10016248 f   System.Data.SQLite.netmodule
 0001:00015274       ?System.Data.SQLite.SQLiteDelegateFunction.GetFinalArgs@@20021N1M1M02 10016274 f   System.Data.SQLite.netmodule
 0001:000152a4       ?System.Data.SQLite.SQLiteDelegateFunction.GetCompareArgs@@20031N1M0O0O02 100162a4 f   System.Data.SQLite.netmodule
 0001:000152d8       ?System.Data.SQLite.SQLiteDelegateFunction.get_Callback1@@200012819N 100162d8 f   System.Data.SQLite.netmodule
 0001:000152ec       ?System.Data.SQLite.SQLiteDelegateFunction.set_Callback1@@20010112819N 100162ec f   System.Data.SQLite.netmodule
 0001:00015300       ?System.Data.SQLite.SQLiteDelegateFunction.get_Callback2@@200012819N 10016300 f   System.Data.SQLite.netmodule
 0001:00015314       ?System.Data.SQLite.SQLiteDelegateFunction.set_Callback2@@20010112819N 10016314 f   System.Data.SQLite.netmodule
 0001:00015328       ?System.Data.SQLite.SQLiteDelegateFunction.Invoke@@20011M1N1M 10016328 f   System.Data.SQLite.netmodule
 0001:00015390       ?System.Data.SQLite.SQLiteDelegateFunction.Step@@2003011N1M08101M 10016390 f   System.Data.SQLite.netmodule
 0001:00015408       ?System.Data.SQLite.SQLiteDelegateFunction.Final@@20011M1M 10016408 f   System.Data.SQLite.netmodule
 0001:00015470       ?System.Data.SQLite.SQLiteDelegateFunction.Compare@@2002080O0O 10016470 f   System.Data.SQLite.netmodule
 0001:0001550c       ?System.Data.SQLite.SQLiteFunctionEx.GetCollationSequence@@2000118150 1001650c f   System.Data.SQLite.netmodule
 0001:0001552c       ?System.Data.SQLite.SQLiteFunctionEx.CheckDisposed@@200001 1001652c f   System.Data.SQLite.netmodule
 0001:00015558       ?System.Data.SQLite.SQLiteFunctionEx.Dispose@@20010102 10016558 f   System.Data.SQLite.netmodule
 0001:0001559c       ?System.Data.SQLite.SQLiteFunctionEx..ctor@@200001 1001659c f   System.Data.SQLite.netmodule
 0001:000155b0       ?System.Data.SQLite.CollationSequence.Compare@@2002080O0O 100165b0 f   System.Data.SQLite.netmodule
 0001:000155e0       ?System.Data.SQLite.CollationSequence.Compare@@2002081N031N03 100165e0 f   System.Data.SQLite.netmodule
 0001:00015610       ?System.Data.SQLite.SQLiteFunctionAttribute..ctor@@200001 10016610 f   System.Data.SQLite.netmodule
 0001:00015628       ?System.Data.SQLite.SQLiteFunctionAttribute..ctor@@2003010O08118138 10016628 f   System.Data.SQLite.netmodule
 0001:00015668       ?System.Data.SQLite.SQLiteFunctionAttribute.get_Name@@20000O 10016668 f   System.Data.SQLite.netmodule
 0001:0001567c       ?System.Data.SQLite.SQLiteFunctionAttribute.set_Name@@2001010O 1001667c f   System.Data.SQLite.netmodule
 0001:00015690       ?System.Data.SQLite.SQLiteFunctionAttribute.get_Arguments@@200008 10016690 f   System.Data.SQLite.netmodule
 0001:000156a4       ?System.Data.SQLite.SQLiteFunctionAttribute.set_Arguments@@20010108 100166a4 f   System.Data.SQLite.netmodule
 0001:000156b8       ?System.Data.SQLite.SQLiteFunctionAttribute.get_FuncType@@2000118138 100166b8 f   System.Data.SQLite.netmodule
 0001:000156cc       ?System.Data.SQLite.SQLiteFunctionAttribute.set_FuncType@@200101118138 100166cc f   System.Data.SQLite.netmodule
 0001:000156e0       ?System.Data.SQLite.SQLiteFunctionAttribute.get_InstanceType@@20001280L1 100166e0 f   System.Data.SQLite.netmodule
 0001:000156f4       ?System.Data.SQLite.SQLiteFunctionAttribute.set_InstanceType@@2001011280L1 100166f4 f   System.Data.SQLite.netmodule
 0001:00015708       ?System.Data.SQLite.SQLiteFunctionAttribute.get_Callback1@@200012819N 10016708 f   System.Data.SQLite.netmodule
 0001:0001571c       ?System.Data.SQLite.SQLiteFunctionAttribute.set_Callback1@@20010112819N 1001671c f   System.Data.SQLite.netmodule
 0001:00015730       ?System.Data.SQLite.SQLiteFunctionAttribute.get_Callback2@@200012819N 10016730 f   System.Data.SQLite.netmodule
 0001:00015744       ?System.Data.SQLite.SQLiteFunctionAttribute.set_Callback2@@20010112819N 10016744 f   System.Data.SQLite.netmodule
 0001:00015758       ?System.Data.SQLite.SQLiteKeyReader..ctor@@2003011270128108128174 10016758 f   System.Data.SQLite.netmodule
 0001:00015e4c       ?System.Data.SQLite.SQLiteKeyReader.GetRowIdIndex@@2002080O0O 10016e4c f   System.Data.SQLite.netmodule
 0001:00015ec0       ?System.Data.SQLite.SQLiteKeyReader.Dispose@@200001 10016ec0 f   System.Data.SQLite.netmodule
 0001:00015edc       ?System.Data.SQLite.SQLiteKeyReader.CheckDisposed@@200001 10016edc f   System.Data.SQLite.netmodule
 0001:00015f08       ?System.Data.SQLite.SQLiteKeyReader.Dispose@@20010102 10016f08 f   System.Data.SQLite.netmodule
 0001:00015f7c       ?System.Data.SQLite.SQLiteKeyReader.Finalize@@200001 10016f7c f   System.Data.SQLite.netmodule
 0001:00015fb8       ?System.Data.SQLite.SQLiteKeyReader.get_Count@@200008 10016fb8 f   System.Data.SQLite.netmodule
 0001:00015fd8       ?System.Data.SQLite.SQLiteKeyReader.Sync@@20010108 10016fd8 f   System.Data.SQLite.netmodule
 0001:00016008       ?System.Data.SQLite.SQLiteKeyReader.Sync@@200001 10017008 f   System.Data.SQLite.netmodule
 0001:000160a4       ?System.Data.SQLite.SQLiteKeyReader.Reset@@200001 100170a4 f   System.Data.SQLite.netmodule
 0001:00016100       ?System.Data.SQLite.SQLiteKeyReader.GetDataTypeName@@20010O08 10017100 f   System.Data.SQLite.netmodule
 0001:00016158       ?System.Data.SQLite.SQLiteKeyReader.GetFieldType@@20011280L108 10017158 f   System.Data.SQLite.netmodule
 0001:000161b8       ?System.Data.SQLite.SQLiteKeyReader.GetName@@20010O08 100171b8 f   System.Data.SQLite.netmodule
 0001:000161d8       ?System.Data.SQLite.SQLiteKeyReader.GetOrdinal@@2001080O 100171d8 f   System.Data.SQLite.netmodule
 0001:00016218       ?System.Data.SQLite.SQLiteKeyReader.GetBlob@@200212380802 10017218 f   System.Data.SQLite.netmodule
 0001:00016274       ?System.Data.SQLite.SQLiteKeyReader.GetBoolean@@20010208 10017274 f   System.Data.SQLite.netmodule
 0001:000162d0       ?System.Data.SQLite.SQLiteKeyReader.GetByte@@20010508 100172d0 f   System.Data.SQLite.netmodule
 0001:0001632c       ?System.Data.SQLite.SQLiteKeyReader.GetBytes@@20050K080K1N050808 1001732c f   System.Data.SQLite.netmodule
 0001:0001638c       ?System.Data.SQLite.SQLiteKeyReader.GetChar@@20010308 1001738c f   System.Data.SQLite.netmodule
 0001:000163e8       ?System.Data.SQLite.SQLiteKeyReader.GetChars@@20050K080K1N030808 100173e8 f   System.Data.SQLite.netmodule
 0001:00016448       ?System.Data.SQLite.SQLiteKeyReader.GetDateTime@@20011180K508 10017448 f   System.Data.SQLite.netmodule
 0001:000164a4       ?System.Data.SQLite.SQLiteKeyReader.GetDecimal@@200111816108 100174a4 f   System.Data.SQLite.netmodule
 0001:00016500       ?System.Data.SQLite.SQLiteKeyReader.GetDouble@@20010N08 10017500 f   System.Data.SQLite.netmodule
 0001:0001655c       ?System.Data.SQLite.SQLiteKeyReader.GetFloat@@20010M08 1001755c f   System.Data.SQLite.netmodule
 0001:000165b8       ?System.Data.SQLite.SQLiteKeyReader.GetGuid@@200111816508 100175b8 f   System.Data.SQLite.netmodule
 0001:00016614       ?System.Data.SQLite.SQLiteKeyReader.GetInt16@@20010608 10017614 f   System.Data.SQLite.netmodule
 0001:000166a0       ?System.Data.SQLite.SQLiteKeyReader.GetInt32@@20010808 100176a0 f   System.Data.SQLite.netmodule
 0001:0001672c       ?System.Data.SQLite.SQLiteKeyReader.GetInt64@@20010K08 1001772c f   System.Data.SQLite.netmodule
 0001:000167b0       ?System.Data.SQLite.SQLiteKeyReader.GetString@@20010O08 100177b0 f   System.Data.SQLite.netmodule
 0001:0001680c       ?System.Data.SQLite.SQLiteKeyReader.GetValue@@20011M08 1001780c f   System.Data.SQLite.netmodule
 0001:00016898       ?System.Data.SQLite.SQLiteKeyReader.IsDBNull@@20010208 10017898 f   System.Data.SQLite.netmodule
 0001:00016930       ?System.Data.SQLite.SQLiteKeyReader.AppendSchemaTable@@200101128155 10017930 f   System.Data.SQLite.netmodule
 0001:00016c2c       ?System.Data.SQLite.LogEventArgs..ctor@@200401181M0O1M 10017c2c f   System.Data.SQLite.netmodule
 0001:00016c58       ?System.Data.SQLite.SQLiteLog.add__handlers@@000101128160 10017c58 f   System.Data.SQLite.netmodule
 0001:00016c8c       ?System.Data.SQLite.SQLiteLog.remove__handlers@@000101128160 10017c8c f   System.Data.SQLite.netmodule
 0001:00016cc0       ?System.Data.SQLite.SQLiteLog.Initialize@@000001 10017cc0 f   System.Data.SQLite.netmodule
 0001:00016dac       ?System.Data.SQLite.SQLiteLog.DomainUnload@@0002011M128169 10017dac f   System.Data.SQLite.netmodule
 0001:00016e64       ?System.Data.SQLite.SQLiteLog.add_Log@@000101128160 10017e64 f   System.Data.SQLite.netmodule
 0001:00016eb8       ?System.Data.SQLite.SQLiteLog.remove_Log@@000101128160 10017eb8 f   System.Data.SQLite.netmodule
 0001:00016f04       ?System.Data.SQLite.SQLiteLog.get_Enabled@@000002 10017f04 f   System.Data.SQLite.netmodule
 0001:00016f50       ?System.Data.SQLite.SQLiteLog.set_Enabled@@00010102 10017f50 f   System.Data.SQLite.netmodule
 0001:00016f9c       ?System.Data.SQLite.SQLiteLog.LogMessage@@0001010O 10017f9c f   System.Data.SQLite.netmodule
 0001:00016fb0       ?System.Data.SQLite.SQLiteLog.LogMessage@@0002011181140O 10017fb0 f   System.Data.SQLite.netmodule
 0001:00016fcc       ?System.Data.SQLite.SQLiteLog.LogMessage@@000201080O 10017fcc f   System.Data.SQLite.netmodule
 0001:00016fe8       ?System.Data.SQLite.SQLiteLog.LogMessage@@0002011M0O 10017fe8 f   System.Data.SQLite.netmodule
 0001:00017068       ?System.Data.SQLite.SQLiteLog.InitializeDefaultHandler@@000001 10018068 f   System.Data.SQLite.netmodule
 0001:000170c8       ?System.Data.SQLite.SQLiteLog.AddDefaultHandler@@000001 100180c8 f   System.Data.SQLite.netmodule
 0001:000170e4       ?System.Data.SQLite.SQLiteLog.RemoveDefaultHandler@@000001 100180e4 f   System.Data.SQLite.netmodule
 0001:00017100       ?System.Data.SQLite.SQLiteLog.LogCallback@@000301180818 10018100 f   System.Data.SQLite.netmodule
 0001:00017188       ?System.Data.SQLite.SQLiteLog.LogEventHandler@@0002011M12815M 10018188 f   System.Data.SQLite.netmodule
 0001:00017280       ?System.Data.SQLite.SQLiteLog..cctor@@000001 10018280 f   System.Data.SQLite.netmodule
 0001:00017298       ?System.Data.SQLite.SQLiteMetaDataCollectionNames..cctor@@000001 10018298 f   System.Data.SQLite.netmodule
 0001:00017300       ?System.Data.SQLite.SQLiteParameter..ctor@@200101128175 10018300 f   System.Data.SQLite.netmodule
 0001:0001731c       ?System.Data.SQLite.SQLiteParameter..ctor@@200001 1001831c f   System.Data.SQLite.netmodule
 0001:00017338       ?System.Data.SQLite.SQLiteParameter..ctor@@2001010O 10018338 f   System.Data.SQLite.netmodule
 0001:00017354       ?System.Data.SQLite.SQLiteParameter..ctor@@2002010O1M 10018354 f   System.Data.SQLite.netmodule
 0001:00017378       ?System.Data.SQLite.SQLiteParameter..ctor@@2002010O118185 10018378 f   System.Data.SQLite.netmodule
 0001:00017394       ?System.Data.SQLite.SQLiteParameter..ctor@@2003010O1181850O 10018394 f   System.Data.SQLite.netmodule
 0001:000173b0       ?System.Data.SQLite.SQLiteParameter..ctor@@2004010O1181850O11824N 100183b0 f   System.Data.SQLite.netmodule
 0001:000173cc       ?System.Data.SQLite.SQLiteParameter..ctor@@200101118185 100183cc f   System.Data.SQLite.netmodule
 0001:000173e8       ?System.Data.SQLite.SQLiteParameter..ctor@@2002011181851M 100183e8 f   System.Data.SQLite.netmodule
 0001:0001740c       ?System.Data.SQLite.SQLiteParameter..ctor@@2002011181850O 1001840c f   System.Data.SQLite.netmodule
 0001:00017428       ?System.Data.SQLite.SQLiteParameter..ctor@@2003011181850O11824N 10018428 f   System.Data.SQLite.netmodule
 0001:00017440       ?System.Data.SQLite.SQLiteParameter..ctor@@2003010O11818508 10018440 f   System.Data.SQLite.netmodule
 0001:0001745c       ?System.Data.SQLite.SQLiteParameter..ctor@@2004010O118185080O 1001845c f   System.Data.SQLite.netmodule
 0001:0001747c       ?System.Data.SQLite.SQLiteParameter..ctor@@2005010O118185080O11824N 1001847c f   System.Data.SQLite.netmodule
 0001:000174bc       ?System.Data.SQLite.SQLiteParameter..ctor@@20010112816M 100184bc f   System.Data.SQLite.netmodule
 0001:00017508       ?System.Data.SQLite.SQLiteParameter..ctor@@200K010O118185081182510205050O11824N1M 10018508 f   System.Data.SQLite.netmodule
 0001:0001753c       ?System.Data.SQLite.SQLiteParameter..ctor@@200K010O1181850811825105050O11824N021M 1001853c f   System.Data.SQLite.netmodule
 0001:00017570       ?System.Data.SQLite.SQLiteParameter..ctor@@20020111818508 10018570 f   System.Data.SQLite.netmodule
 0001:0001758c       ?System.Data.SQLite.SQLiteParameter..ctor@@200301118185080O 1001858c f   System.Data.SQLite.netmodule
 0001:000175a8       ?System.Data.SQLite.SQLiteParameter..ctor@@200401118185080O11824N 100185a8 f   System.Data.SQLite.netmodule
 0001:000175c4       ?System.Data.SQLite.SQLiteParameter.get_Command@@2000128175 100185c4 f   System.Data.SQLite.netmodule
 0001:000175d8       ?System.Data.SQLite.SQLiteParameter.set_Command@@200101128175 100185d8 f   System.Data.SQLite.netmodule
 0001:000175ec       ?System.Data.SQLite.SQLiteParameter.get_IsNullable@@200002 100185ec f   System.Data.SQLite.netmodule
 0001:00017600       ?System.Data.SQLite.SQLiteParameter.set_IsNullable@@20010102 10018600 f   System.Data.SQLite.netmodule
 0001:00017614       ?System.Data.SQLite.SQLiteParameter.get_DbType@@2000118185 10018614 f   System.Data.SQLite.netmodule
 0001:0001765c       ?System.Data.SQLite.SQLiteParameter.set_DbType@@200101118185 1001865c f   System.Data.SQLite.netmodule
 0001:00017670       ?System.Data.SQLite.SQLiteParameter.get_Direction@@2000118251 10018670 f   System.Data.SQLite.netmodule
 0001:00017680       ?System.Data.SQLite.SQLiteParameter.set_Direction@@200101118251 10018680 f   System.Data.SQLite.netmodule
 0001:00017698       ?System.Data.SQLite.SQLiteParameter.get_ParameterName@@20000O 10018698 f   System.Data.SQLite.netmodule
 0001:000176ac       ?System.Data.SQLite.SQLiteParameter.set_ParameterName@@2001010O 100186ac f   System.Data.SQLite.netmodule
 0001:000176c0       ?System.Data.SQLite.SQLiteParameter.ResetDbType@@200001 100186c0 f   System.Data.SQLite.netmodule
 0001:000176d4       ?System.Data.SQLite.SQLiteParameter.get_Size@@200008 100186d4 f   System.Data.SQLite.netmodule
 0001:000176e8       ?System.Data.SQLite.SQLiteParameter.set_Size@@20010108 100186e8 f   System.Data.SQLite.netmodule
 0001:000176fc       ?System.Data.SQLite.SQLiteParameter.get_SourceColumn@@20000O 100186fc f   System.Data.SQLite.netmodule
 0001:00017710       ?System.Data.SQLite.SQLiteParameter.set_SourceColumn@@2001010O 10018710 f   System.Data.SQLite.netmodule
 0001:00017724       ?System.Data.SQLite.SQLiteParameter.get_SourceColumnNullMapping@@200002 10018724 f   System.Data.SQLite.netmodule
 0001:00017738       ?System.Data.SQLite.SQLiteParameter.set_SourceColumnNullMapping@@20010102 10018738 f   System.Data.SQLite.netmodule
 0001:0001774c       ?System.Data.SQLite.SQLiteParameter.get_SourceVersion@@200011824N 1001874c f   System.Data.SQLite.netmodule
 0001:00017760       ?System.Data.SQLite.SQLiteParameter.set_SourceVersion@@20010111824N 10018760 f   System.Data.SQLite.netmodule
 0001:00017774       ?System.Data.SQLite.SQLiteParameter.get_Value@@20001M 10018774 f   System.Data.SQLite.netmodule
 0001:00017788       ?System.Data.SQLite.SQLiteParameter.set_Value@@2001011M 10018788 f   System.Data.SQLite.netmodule
 0001:000177d0       ?System.Data.SQLite.SQLiteParameter.get_TypeName@@20000O 100187d0 f   System.Data.SQLite.netmodule
 0001:000177e4       ?System.Data.SQLite.SQLiteParameter.set_TypeName@@2001010O 100187e4 f   System.Data.SQLite.netmodule
 0001:000177f8       ?System.Data.SQLite.SQLiteParameter.Clone@@20001M 100187f8 f   System.Data.SQLite.netmodule
 0001:0001780c       ?System.Data.SQLite.SQLiteParameterCollection..ctor@@200101123M 1001880c f   System.Data.SQLite.netmodule
 0001:00017838       ?System.Data.SQLite.SQLiteParameterCollection.get_IsSynchronized@@200002 10018838 f   System.Data.SQLite.netmodule
 0001:00017848       ?System.Data.SQLite.SQLiteParameterCollection.get_IsFixedSize@@200002 10018848 f   System.Data.SQLite.netmodule
 0001:00017858       ?System.Data.SQLite.SQLiteParameterCollection.get_IsReadOnly@@200002 10018858 f   System.Data.SQLite.netmodule
 0001:00017868       ?System.Data.SQLite.SQLiteParameterCollection.get_SyncRoot@@20001M 10018868 f   System.Data.SQLite.netmodule
 0001:00017878       ?System.Data.SQLite.SQLiteParameterCollection.GetEnumerator@@20001280NN 10018878 f   System.Data.SQLite.netmodule
 0001:00017898       ?System.Data.SQLite.SQLiteParameterCollection.Add@@200412816M0O118185080O 10018898 f   System.Data.SQLite.netmodule
 0001:000178bc       ?System.Data.SQLite.SQLiteParameterCollection.Add@@200312816M0O11818508 100188bc f   System.Data.SQLite.netmodule
 0001:000178dc       ?System.Data.SQLite.SQLiteParameterCollection.Add@@200212816M0O118185 100188dc f   System.Data.SQLite.netmodule
 0001:000178fc       ?System.Data.SQLite.SQLiteParameterCollection.Add@@20010812816M 100188fc f   System.Data.SQLite.netmodule
 0001:0001794c       ?System.Data.SQLite.SQLiteParameterCollection.Add@@2001081M 1001894c f   System.Data.SQLite.netmodule
 0001:00017968       ?System.Data.SQLite.SQLiteParameterCollection.AddWithValue@@200212816M0O1M 10018968 f   System.Data.SQLite.netmodule
 0001:00017988       ?System.Data.SQLite.SQLiteParameterCollection.AddRange@@2001011N12816M 10018988 f   System.Data.SQLite.netmodule
 0001:000179b0       ?System.Data.SQLite.SQLiteParameterCollection.AddRange@@200101128265 100189b0 f   System.Data.SQLite.netmodule
 0001:000179e4       ?System.Data.SQLite.SQLiteParameterCollection.Clear@@200001 100189e4 f   System.Data.SQLite.netmodule
 0001:00017a04       ?System.Data.SQLite.SQLiteParameterCollection.Contains@@2001020O 10018a04 f   System.Data.SQLite.netmodule
 0001:00017a20       ?System.Data.SQLite.SQLiteParameterCollection.Contains@@2001021M 10018a20 f   System.Data.SQLite.netmodule
 0001:00017a40       ?System.Data.SQLite.SQLiteParameterCollection.CopyTo@@20020112826508 10018a40 f   System.Data.SQLite.netmodule
 0001:00017a54       ?System.Data.SQLite.SQLiteParameterCollection.get_Count@@200008 10018a54 f   System.Data.SQLite.netmodule
 0001:00017a6c       ?System.Data.SQLite.SQLiteParameterCollection.get_Item@@200112816M0O 10018a6c f   System.Data.SQLite.netmodule
 0001:00017a88       ?System.Data.SQLite.SQLiteParameterCollection.set_Item@@2002010O12816M 10018a88 f   System.Data.SQLite.netmodule
 0001:00017aa0       ?System.Data.SQLite.SQLiteParameterCollection.get_Item@@200112816M08 10018aa0 f   System.Data.SQLite.netmodule
 0001:00017abc       ?System.Data.SQLite.SQLiteParameterCollection.set_Item@@2002010812816M 10018abc f   System.Data.SQLite.netmodule
 0001:00017ad4       ?System.Data.SQLite.SQLiteParameterCollection.GetParameter@@20011280P50O 10018ad4 f   System.Data.SQLite.netmodule
 0001:00017af0       ?System.Data.SQLite.SQLiteParameterCollection.GetParameter@@20011280P508 10018af0 f   System.Data.SQLite.netmodule
 0001:00017b0c       ?System.Data.SQLite.SQLiteParameterCollection.IndexOf@@2001080O 10018b0c f   System.Data.SQLite.netmodule
 0001:00017b50       ?System.Data.SQLite.SQLiteParameterCollection.IndexOf@@2001081M 10018b50 f   System.Data.SQLite.netmodule
 0001:00017b70       ?System.Data.SQLite.SQLiteParameterCollection.Insert@@200201081M 10018b70 f   System.Data.SQLite.netmodule
 0001:00017b98       ?System.Data.SQLite.SQLiteParameterCollection.Remove@@2001011M 10018b98 f   System.Data.SQLite.netmodule
 0001:00017bc0       ?System.Data.SQLite.SQLiteParameterCollection.RemoveAt@@2001010O 10018bc0 f   System.Data.SQLite.netmodule
 0001:00017bdc       ?System.Data.SQLite.SQLiteParameterCollection.RemoveAt@@20010108 10018bdc f   System.Data.SQLite.netmodule
 0001:00017bfc       ?System.Data.SQLite.SQLiteParameterCollection.SetParameter@@2002010O1280P5 10018bfc f   System.Data.SQLite.netmodule
 0001:00017c18       ?System.Data.SQLite.SQLiteParameterCollection.SetParameter@@200201081280P5 10018c18 f   System.Data.SQLite.netmodule
 0001:00017c40       ?System.Data.SQLite.SQLiteParameterCollection.Unbind@@200001 10018c40 f   System.Data.SQLite.netmodule
 0001:00017c54       ?System.Data.SQLite.SQLiteParameterCollection.MapParameters@@200101128174 10018c54 f   System.Data.SQLite.netmodule
 0001:00017dd8       ?System.Data.SQLite.SQLiteStatement..ctor@@2005011220112M1281940O128174 10018dd8 f   System.Data.SQLite.netmodule
 0001:00017eb8       ?System.Data.SQLite.SQLiteStatement.Dispose@@200001 10018eb8 f   System.Data.SQLite.netmodule
 0001:00017ed4       ?System.Data.SQLite.SQLiteStatement.CheckDisposed@@200001 10018ed4 f   System.Data.SQLite.netmodule
 0001:00017f00       ?System.Data.SQLite.SQLiteStatement.Dispose@@20010102 10018f00 f   System.Data.SQLite.netmodule
 0001:00017f58       ?System.Data.SQLite.SQLiteStatement.Finalize@@200001 10018f58 f   System.Data.SQLite.netmodule
 0001:00017f94       ?System.Data.SQLite.SQLiteStatement.TryGetChanges@@20020210081002 10018f94 f   System.Data.SQLite.netmodule
 0001:00017fd4       ?System.Data.SQLite.SQLiteStatement.MapParameter@@2002020O12816M 10018fd4 f   System.Data.SQLite.netmodule
 0001:0001805c       ?System.Data.SQLite.SQLiteStatement.BindParameters@@200001 1001905c f   System.Data.SQLite.netmodule
 0001:00018098       ?System.Data.SQLite.SQLiteStatement.GetConnection@@00011270128174 10019098 f   System.Data.SQLite.netmodule
 0001:000180e4       ?System.Data.SQLite.SQLiteStatement.InvokeBindValueCallback@@2003010812816M1002 100190e4 f   System.Data.SQLite.netmodule
 0001:00018200       ?System.Data.SQLite.SQLiteStatement.BindParameter@@2002010812816M 10019200 f   System.Data.SQLite.netmodule
 0001:000185d8       ?System.Data.SQLite.SQLiteStatement.get_TypeDefinitions@@20001N0O 100195d8 f   System.Data.SQLite.netmodule
 0001:000185ec       ?System.Data.SQLite.SQLiteStatement.SetTypes@@2001010O 100195ec f   System.Data.SQLite.netmodule
 0001:000186b0       ?System.Data.SQLite.SQLiteTransaction..ctor@@200201127002 100196b0 f   System.Data.SQLite.netmodule
 0001:00018798       ?System.Data.SQLite.SQLiteTransaction.CheckDisposed@@200001 10019798 f   System.Data.SQLite.netmodule
 0001:000187c4       ?System.Data.SQLite.SQLiteTransaction.Dispose@@20010102 100197c4 f   System.Data.SQLite.netmodule
 0001:0001881c       ?System.Data.SQLite.SQLiteTransaction.Commit@@200001 1001981c f   System.Data.SQLite.netmodule
 0001:000188a8       ?System.Data.SQLite.SQLiteTransaction.get_Connection@@20001270 100198a8 f   System.Data.SQLite.netmodule
 0001:000188c4       ?System.Data.SQLite.SQLiteTransaction.get_DbConnection@@20001280P9 100198c4 f   System.Data.SQLite.netmodule
 0001:000188d8       ?System.Data.SQLite.SQLiteTransaction.get_IsolationLevel@@2000118189 100198d8 f   System.Data.SQLite.netmodule
 0001:000188f4       ?System.Data.SQLite.SQLiteTransaction.Rollback@@200001 100198f4 f   System.Data.SQLite.netmodule
 0001:00018918       ?System.Data.SQLite.SQLiteTransaction.IssueRollback@@20010102 10019918 f   System.Data.SQLite.netmodule
 0001:000189a0       ?System.Data.SQLite.SQLiteTransaction.IsValid@@20010202 100199a0 f   System.Data.SQLite.netmodule
 0001:00018a44       ?System.Data.SQLite.HelperMethods.IsMono@@000002 10019a44 f   System.Data.SQLite.netmodule
 0001:00018adc       ?System.Data.SQLite.HelperMethods.IsWindows@@000002 10019adc f   System.Data.SQLite.netmodule
 0001:00018b08       ?System.Data.SQLite.HelperMethods.StringFormat@@00030O1281NN0O1N1M 10019b08 f   System.Data.SQLite.netmodule
 0001:00018b2c       ?System.Data.SQLite.HelperMethods..cctor@@000001 10019b2c f   System.Data.SQLite.netmodule
 0001:00018b58       ?System.Data.SQLite.NativeLibraryHelper.LoadLibraryWin32@@0001180O 10019b58 f   System.Data.SQLite.netmodule
 0001:00018b6c       ?System.Data.SQLite.NativeLibraryHelper.LoadLibraryPosix@@0001180O 10019b6c f   System.Data.SQLite.netmodule
 0001:00018b84       ?System.Data.SQLite.NativeLibraryHelper.LoadLibrary@@0001180O 10019b84 f   System.Data.SQLite.netmodule
 0001:00018bbc       ?System.Data.SQLite.UnsafeNativeMethods..cctor@@000001 10019bbc f   System.Data.SQLite.netmodule
 0001:00018c10       ?System.Data.SQLite.UnsafeNativeMethods.Initialize@@000001 10019c10 f   System.Data.SQLite.netmodule
 0001:00018cbc       ?System.Data.SQLite.UnsafeNativeMethods.MaybeCombinePath@@00020O0O0O 10019cbc f   System.Data.SQLite.netmodule
 0001:00018ce0       ?System.Data.SQLite.UnsafeNativeMethods.GetXmlConfigFileName@@00000O 10019ce0 f   System.Data.SQLite.netmodule
 0001:00018d28       ?System.Data.SQLite.UnsafeNativeMethods.GetSettingValueViaXmlConfigFile@@00040O0O0O0O02 10019d28 f   System.Data.SQLite.netmodule
 0001:00018e10       ?System.Data.SQLite.UnsafeNativeMethods.GetSettingValue@@00020O0O0O 10019e10 f   System.Data.SQLite.netmodule
 0001:00018ea0       ?System.Data.SQLite.UnsafeNativeMethods.ListToString@@00010O15128089010O 10019ea0 f   System.Data.SQLite.netmodule
 0001:00018f1c       ?System.Data.SQLite.UnsafeNativeMethods.CheckForArchitecturesAndPlatforms@@0002080O10151280N9010O 10019f1c f   System.Data.SQLite.netmodule
 0001:00019018       ?System.Data.SQLite.UnsafeNativeMethods.CheckAssemblyCodeBase@@00020212818N100O 1001a018 f   System.Data.SQLite.netmodule
 0001:000190fc       ?System.Data.SQLite.UnsafeNativeMethods.GetAssemblyDirectory@@00000O 1001a0fc f   System.Data.SQLite.netmodule
 0001:000191b4       ?System.Data.SQLite.SQLiteConnectionHandle.op_Implicit@@000118128190 1001a1b4 f   System.Data.SQLite.netmodule
 0001:000191d0       ?System.Data.SQLite.SQLiteConnectionHandle..ctor@@2002011802 1001a1d0 f   System.Data.SQLite.netmodule
 0001:000191f4       ?System.Data.SQLite.SQLiteConnectionHandle..ctor@@20010102 1001a1f4 f   System.Data.SQLite.netmodule
 0001:0001920c       ?System.Data.SQLite.SQLiteConnectionHandle.ReleaseHandle@@200002 1001a20c f   System.Data.SQLite.netmodule
 0001:0001928c       ?System.Data.SQLite.SQLiteConnectionHandle.get_OwnHandle@@200002 1001a28c f   System.Data.SQLite.netmodule
 0001:000192a0       ?System.Data.SQLite.SQLiteConnectionHandle.get_IsInvalid@@200002 1001a2a0 f   System.Data.SQLite.netmodule
 0001:000192c0       ?System.Data.SQLite.SQLiteStatementHandle.op_Implicit@@000118128194 1001a2c0 f   System.Data.SQLite.netmodule
 0001:000192dc       ?System.Data.SQLite.SQLiteStatementHandle..ctor@@20020112819018 1001a2dc f   System.Data.SQLite.netmodule
 0001:00019300       ?System.Data.SQLite.SQLiteStatementHandle..ctor@@200001 1001a300 f   System.Data.SQLite.netmodule
 0001:00019318       ?System.Data.SQLite.SQLiteStatementHandle.ReleaseHandle@@200002 1001a318 f   System.Data.SQLite.netmodule
 0001:00019394       ?System.Data.SQLite.SQLiteStatementHandle.get_IsInvalid@@200002 1001a394 f   System.Data.SQLite.netmodule
 0001:000193b4       ?System.Data.SQLite.SQLiteBackupHandle.op_Implicit@@000118128198 1001a3b4 f   System.Data.SQLite.netmodule
 0001:000193d0       ?System.Data.SQLite.SQLiteBackupHandle..ctor@@20020112819018 1001a3d0 f   System.Data.SQLite.netmodule
 0001:000193f4       ?System.Data.SQLite.SQLiteBackupHandle..ctor@@200001 1001a3f4 f   System.Data.SQLite.netmodule
 0001:0001940c       ?System.Data.SQLite.SQLiteBackupHandle.ReleaseHandle@@200002 1001a40c f   System.Data.SQLite.netmodule
 0001:00019488       ?System.Data.SQLite.SQLiteBackupHandle.get_IsInvalid@@200002 1001a488 f   System.Data.SQLite.netmodule
 0001:000194a8       ?System.Data.SQLite.SQLiteBlobHandle.op_Implicit@@00011812819M 1001a4a8 f   System.Data.SQLite.netmodule
 0001:000194c4       ?System.Data.SQLite.SQLiteBlobHandle..ctor@@20020112819018 1001a4c4 f   System.Data.SQLite.netmodule
 0001:000194e8       ?System.Data.SQLite.SQLiteBlobHandle..ctor@@200001 1001a4e8 f   System.Data.SQLite.netmodule
 0001:00019500       ?System.Data.SQLite.SQLiteBlobHandle.ReleaseHandle@@200002 1001a500 f   System.Data.SQLite.netmodule
 0001:0001957c       ?System.Data.SQLite.SQLiteBlobHandle.get_IsInvalid@@200002 1001a57c f   System.Data.SQLite.netmodule
 0001:0001959c       ?System.Data.SQLite.SR..ctor@@200001 1001a59c f   System.Data.SQLite.netmodule
 0001:000195b0       ?System.Data.SQLite.SR.get_ResourceManager@@0000128281 1001a5b0 f   System.Data.SQLite.netmodule
 0001:000195e8       ?System.Data.SQLite.SR.get_Culture@@0000128269 1001a5e8 f   System.Data.SQLite.netmodule
 0001:000195fc       ?System.Data.SQLite.SR.set_Culture@@000101128269 1001a5fc f   System.Data.SQLite.netmodule
 0001:00019610       ?System.Data.SQLite.SR.get_DataTypes@@00000O 1001a610 f   System.Data.SQLite.netmodule
 0001:00019634       ?System.Data.SQLite.SR.get_Keywords@@00000O 1001a634 f   System.Data.SQLite.netmodule
 0001:00019658       ?System.Data.SQLite.SR.get_MetaDataCollections@@00000O 1001a658 f   System.Data.SQLite.netmodule
 0001:0001967c       ?System.Data.SQLite.SQLiteEnlistment..ctor@@20050112701281KN1181890202 1001a67c f   System.Data.SQLite.netmodule
 0001:000196c0       ?System.Data.SQLite.SQLiteEnlistment.GetSystemDataIsolationLevel@@200511818912701281KN1181890202 1001a6c0 f   System.Data.SQLite.netmodule
 0001:00019768       ?System.Data.SQLite.SQLiteEnlistment.Cleanup@@2001011270 1001a768 f   System.Data.SQLite.netmodule
 0001:00019794       ?System.Data.SQLite.SQLiteEnlistment.Dispose@@200001 1001a794 f   System.Data.SQLite.netmodule
 0001:000197b0       ?System.Data.SQLite.SQLiteEnlistment.CheckDisposed@@200001 1001a7b0 f   System.Data.SQLite.netmodule
 0001:000197dc       ?System.Data.SQLite.SQLiteEnlistment.Dispose@@20010102 1001a7dc f   System.Data.SQLite.netmodule
 0001:0001982c       ?System.Data.SQLite.SQLiteEnlistment.Finalize@@200001 1001a82c f   System.Data.SQLite.netmodule
 0001:00019868       ?System.Data.SQLite.SQLiteEnlistment.Commit@@20010112828N 1001a868 f   System.Data.SQLite.netmodule
 0001:000198e4       ?System.Data.SQLite.SQLiteEnlistment.InDoubt@@20010112828N 1001a8e4 f   System.Data.SQLite.netmodule
 0001:00019900       ?System.Data.SQLite.SQLiteEnlistment.Prepare@@200101128291 1001a900 f   System.Data.SQLite.netmodule
 0001:00019930       ?System.Data.SQLite.SQLiteEnlistment.Rollback@@20010112828N 1001a930 f   System.Data.SQLite.netmodule
 0001:00019990       ?System.Data.SQLite.SQLiteContext..ctor@@20010118 1001a990 f   System.Data.SQLite.netmodule
 0001:000199ac       ?System.Data.SQLite.SQLiteContext.get_NativeHandle@@200018 1001a9ac f   System.Data.SQLite.netmodule
 0001:000199c0       ?System.Data.SQLite.SQLiteContext.SetNull@@200001 1001a9c0 f   System.Data.SQLite.netmodule
 0001:000199f0       ?System.Data.SQLite.SQLiteContext.SetDouble@@2001010N 1001a9f0 f   System.Data.SQLite.netmodule
 0001:00019a24       ?System.Data.SQLite.SQLiteContext.SetInt@@20010108 1001aa24 f   System.Data.SQLite.netmodule
 0001:00019a58       ?System.Data.SQLite.SQLiteContext.SetInt64@@2001010K 1001aa58 f   System.Data.SQLite.netmodule
 0001:00019a8c       ?System.Data.SQLite.SQLiteContext.SetString@@2001010O 1001aa8c f   System.Data.SQLite.netmodule
 0001:00019adc       ?System.Data.SQLite.SQLiteContext.SetError@@2001010O 1001aadc f   System.Data.SQLite.netmodule
 0001:00019b28       ?System.Data.SQLite.SQLiteContext.SetErrorCode@@200101118114 1001ab28 f   System.Data.SQLite.netmodule
 0001:00019b5c       ?System.Data.SQLite.SQLiteContext.SetErrorTooBig@@200001 1001ab5c f   System.Data.SQLite.netmodule
 0001:00019b8c       ?System.Data.SQLite.SQLiteContext.SetErrorNoMemory@@200001 1001ab8c f   System.Data.SQLite.netmodule
 0001:00019bbc       ?System.Data.SQLite.SQLiteContext.SetBlob@@2001011N05 1001abbc f   System.Data.SQLite.netmodule
 0001:00019c04       ?System.Data.SQLite.SQLiteContext.SetZeroBlob@@20010108 1001ac04 f   System.Data.SQLite.netmodule
 0001:00019c38       ?System.Data.SQLite.SQLiteContext.SetValue@@2001011281L0 1001ac38 f   System.Data.SQLite.netmodule
 0001:00019c7c       ?System.Data.SQLite.SQLiteValue..ctor@@20010118 1001ac7c f   System.Data.SQLite.netmodule
 0001:00019c98       ?System.Data.SQLite.SQLiteValue.PreventNativeAccess@@200001 1001ac98 f   System.Data.SQLite.netmodule
 0001:00019cb0       ?System.Data.SQLite.SQLiteValue.ArrayFromSizeAndIntPtr@@00021N1281L00818 1001acb0 f   System.Data.SQLite.netmodule
 0001:00019d14       ?System.Data.SQLite.SQLiteValue.get_NativeHandle@@200018 1001ad14 f   System.Data.SQLite.netmodule
 0001:00019d28       ?System.Data.SQLite.SQLiteValue.get_Persisted@@200002 1001ad28 f   System.Data.SQLite.netmodule
 0001:00019d3c       ?System.Data.SQLite.SQLiteValue.get_Value@@20001M 1001ad3c f   System.Data.SQLite.netmodule
 0001:00019d64       ?System.Data.SQLite.SQLiteValue.GetTypeAffinity@@20001180N0 1001ad64 f   System.Data.SQLite.netmodule
 0001:00019d94       ?System.Data.SQLite.SQLiteValue.GetBytes@@200008 1001ad94 f   System.Data.SQLite.netmodule
 0001:00019dc0       ?System.Data.SQLite.SQLiteValue.GetInt@@200008 1001adc0 f   System.Data.SQLite.netmodule
 0001:00019dec       ?System.Data.SQLite.SQLiteValue.GetInt64@@20000K 1001adec f   System.Data.SQLite.netmodule
 0001:00019e1c       ?System.Data.SQLite.SQLiteValue.GetDouble@@20000N 1001ae1c f   System.Data.SQLite.netmodule
 0001:00019e50       ?System.Data.SQLite.SQLiteValue.GetString@@20000O 1001ae50 f   System.Data.SQLite.netmodule
 0001:00019e88       ?System.Data.SQLite.SQLiteValue.GetBlob@@20001N05 1001ae88 f   System.Data.SQLite.netmodule
 0001:00019ec0       ?System.Data.SQLite.SQLiteValue.Persist@@200002 1001aec0 f   System.Data.SQLite.netmodule
 0001:00019fb0       ?System.Data.SQLite.SQLiteIndexConstraint..ctor@@200101118298 1001afb0 f   System.Data.SQLite.netmodule
 0001:00019fdc       ?System.Data.SQLite.SQLiteIndexConstraint..ctor@@200401081181L40508 1001afdc f   System.Data.SQLite.netmodule
 0001:0001a00c       ?System.Data.SQLite.SQLiteIndexOrderBy..ctor@@20010111829M 1001b00c f   System.Data.SQLite.netmodule
 0001:0001a02c       ?System.Data.SQLite.SQLiteIndexOrderBy..ctor@@2002010805 1001b02c f   System.Data.SQLite.netmodule
 0001:0001a050       ?System.Data.SQLite.SQLiteIndexConstraintUsage..ctor@@200001 1001b050 f   System.Data.SQLite.netmodule
 0001:0001a064       ?System.Data.SQLite.SQLiteIndexConstraintUsage..ctor@@2001011182K0 1001b064 f   System.Data.SQLite.netmodule
 0001:0001a084       ?System.Data.SQLite.SQLiteIndexConstraintUsage..ctor@@2002010805 1001b084 f   System.Data.SQLite.netmodule
 0001:0001a0a8       ?System.Data.SQLite.SQLiteIndexInputs..ctor@@2002010808 1001b0a8 f   System.Data.SQLite.netmodule
 0001:0001a0d4       ?System.Data.SQLite.SQLiteIndexInputs.get_Constraints@@20001N1281LM 1001b0d4 f   System.Data.SQLite.netmodule
 0001:0001a0e8       ?System.Data.SQLite.SQLiteIndexInputs.get_OrderBys@@20001N1281M0 1001b0e8 f   System.Data.SQLite.netmodule
 0001:0001a0fc       ?System.Data.SQLite.SQLiteIndexOutputs..ctor@@20010108 1001b0fc f   System.Data.SQLite.netmodule
 0001:0001a134       ?System.Data.SQLite.SQLiteIndexOutputs.CanUseEstimatedRows@@200002 1001b134 f   System.Data.SQLite.netmodule
 0001:0001a150       ?System.Data.SQLite.SQLiteIndexOutputs.CanUseIndexFlags@@200002 1001b150 f   System.Data.SQLite.netmodule
 0001:0001a16c       ?System.Data.SQLite.SQLiteIndexOutputs.CanUseColumnsUsed@@200002 1001b16c f   System.Data.SQLite.netmodule
 0001:0001a188       ?System.Data.SQLite.SQLiteIndexOutputs.get_ConstraintUsages@@20001N1281M4 1001b188 f   System.Data.SQLite.netmodule
 0001:0001a19c       ?System.Data.SQLite.SQLiteIndexOutputs.get_IndexNumber@@200008 1001b19c f   System.Data.SQLite.netmodule
 0001:0001a1b0       ?System.Data.SQLite.SQLiteIndexOutputs.set_IndexNumber@@20010108 1001b1b0 f   System.Data.SQLite.netmodule
 0001:0001a1c4       ?System.Data.SQLite.SQLiteIndexOutputs.get_IndexString@@20000O 1001b1c4 f   System.Data.SQLite.netmodule
 0001:0001a1d8       ?System.Data.SQLite.SQLiteIndexOutputs.set_IndexString@@2001010O 1001b1d8 f   System.Data.SQLite.netmodule
 0001:0001a1ec       ?System.Data.SQLite.SQLiteIndexOutputs.get_NeedToFreeIndexString@@200008 1001b1ec f   System.Data.SQLite.netmodule
 0001:0001a200       ?System.Data.SQLite.SQLiteIndexOutputs.set_NeedToFreeIndexString@@20010108 1001b200 f   System.Data.SQLite.netmodule
 0001:0001a214       ?System.Data.SQLite.SQLiteIndexOutputs.get_OrderByConsumed@@200008 1001b214 f   System.Data.SQLite.netmodule
 0001:0001a228       ?System.Data.SQLite.SQLiteIndexOutputs.set_OrderByConsumed@@20010108 1001b228 f   System.Data.SQLite.netmodule
 0001:0001a23c       ?System.Data.SQLite.SQLiteIndexOutputs.get_EstimatedCost@@2000151175010N 1001b23c f   System.Data.SQLite.netmodule
 0001:0001a250       ?System.Data.SQLite.SQLiteIndexOutputs.set_EstimatedCost@@200101151175010N 1001b250 f   System.Data.SQLite.netmodule
 0001:0001a264       ?System.Data.SQLite.SQLiteIndexOutputs.get_EstimatedRows@@2000151175010K 1001b264 f   System.Data.SQLite.netmodule
 0001:0001a278       ?System.Data.SQLite.SQLiteIndexOutputs.set_EstimatedRows@@200101151175010K 1001b278 f   System.Data.SQLite.netmodule
 0001:0001a28c       ?System.Data.SQLite.SQLiteIndexOutputs.get_IndexFlags@@2000151175011181L8 1001b28c f   System.Data.SQLite.netmodule
 0001:0001a2a0       ?System.Data.SQLite.SQLiteIndexOutputs.set_IndexFlags@@200101151175011181L8 1001b2a0 f   System.Data.SQLite.netmodule
 0001:0001a2b4       ?System.Data.SQLite.SQLiteIndexOutputs.get_ColumnsUsed@@2000151175010K 1001b2b4 f   System.Data.SQLite.netmodule
 0001:0001a2c8       ?System.Data.SQLite.SQLiteIndexOutputs.set_ColumnsUsed@@200101151175010K 1001b2c8 f   System.Data.SQLite.netmodule
 0001:0001a2dc       ?System.Data.SQLite.SQLiteIndex..ctor@@2002010808 1001b2dc f   System.Data.SQLite.netmodule
 0001:0001a308       ?System.Data.SQLite.SQLiteIndex.SizeOfNative@@0004011008100810081008 1001b308 f   System.Data.SQLite.netmodule
 0001:0001a35c       ?System.Data.SQLite.SQLiteIndex.AllocateAndInitializeNative@@0002180808 1001b35c f   System.Data.SQLite.netmodule
 0001:0001a518       ?System.Data.SQLite.SQLiteIndex.FreeNative@@00010118 1001b518 f   System.Data.SQLite.netmodule
 0001:0001a5ec       ?System.Data.SQLite.SQLiteIndex.FromIntPtr@@0003011802101281N0 1001b5ec f   System.Data.SQLite.netmodule
 0001:0001a894       ?System.Data.SQLite.SQLiteIndex.ToIntPtr@@0003011281N01802 1001b894 f   System.Data.SQLite.netmodule
 0001:0001ab94       ?System.Data.SQLite.SQLiteIndex.get_Inputs@@20001281M8 1001bb94 f   System.Data.SQLite.netmodule
 0001:0001aba8       ?System.Data.SQLite.SQLiteIndex.get_Outputs@@20001281MM 1001bba8 f   System.Data.SQLite.netmodule
 0001:0001abbc       ?System.Data.SQLite.SQLiteVirtualTable..ctor@@2001011N0O 1001bbbc f   System.Data.SQLite.netmodule
 0001:0001abd8       ?System.Data.SQLite.SQLiteVirtualTable.get_Arguments@@20001N0O 1001bbd8 f   System.Data.SQLite.netmodule
 0001:0001abf4       ?System.Data.SQLite.SQLiteVirtualTable.get_ModuleName@@20000O 1001bbf4 f   System.Data.SQLite.netmodule
 0001:0001ac1c       ?System.Data.SQLite.SQLiteVirtualTable.get_DatabaseName@@20000O 1001bc1c f   System.Data.SQLite.netmodule
 0001:0001ac44       ?System.Data.SQLite.SQLiteVirtualTable.get_TableName@@20000O 1001bc44 f   System.Data.SQLite.netmodule
 0001:0001ac6c       ?System.Data.SQLite.SQLiteVirtualTable.get_Index@@20001281N0 1001bc6c f   System.Data.SQLite.netmodule
 0001:0001ac88       ?System.Data.SQLite.SQLiteVirtualTable.BestIndex@@2001021281N0 1001bc88 f   System.Data.SQLite.netmodule
 0001:0001aca4       ?System.Data.SQLite.SQLiteVirtualTable.Rename@@2001020O 1001bca4 f   System.Data.SQLite.netmodule
 0001:0001acd8       ?System.Data.SQLite.SQLiteVirtualTable.get_NativeHandle@@200018 1001bcd8 f   System.Data.SQLite.netmodule
 0001:0001acf4       ?System.Data.SQLite.SQLiteVirtualTable.set_NativeHandle@@20010118 1001bcf4 f   System.Data.SQLite.netmodule
 0001:0001ad08       ?System.Data.SQLite.SQLiteVirtualTable.Dispose@@200001 1001bd08 f   System.Data.SQLite.netmodule
 0001:0001ad24       ?System.Data.SQLite.SQLiteVirtualTable.CheckDisposed@@200001 1001bd24 f   System.Data.SQLite.netmodule
 0001:0001ad50       ?System.Data.SQLite.SQLiteVirtualTable.Dispose@@20010102 1001bd50 f   System.Data.SQLite.netmodule
 0001:0001ad6c       ?System.Data.SQLite.SQLiteVirtualTable.Finalize@@200001 1001bd6c f   System.Data.SQLite.netmodule
 0001:0001ada8       ?System.Data.SQLite.SQLiteVirtualTableCursor..ctor@@2001011281N4 1001bda8 f   System.Data.SQLite.netmodule
 0001:0001adc4       ?System.Data.SQLite.SQLiteVirtualTableCursor..ctor@@200001 1001bdc4 f   System.Data.SQLite.netmodule
 0001:0001ade4       ?System.Data.SQLite.SQLiteVirtualTableCursor.get_Table@@20001281N4 1001bde4 f   System.Data.SQLite.netmodule
 0001:0001ae00       ?System.Data.SQLite.SQLiteVirtualTableCursor.get_IndexNumber@@200008 1001be00 f   System.Data.SQLite.netmodule
 0001:0001ae1c       ?System.Data.SQLite.SQLiteVirtualTableCursor.get_IndexString@@20000O 1001be1c f   System.Data.SQLite.netmodule
 0001:0001ae38       ?System.Data.SQLite.SQLiteVirtualTableCursor.get_Values@@20001N1281L0 1001be38 f   System.Data.SQLite.netmodule
 0001:0001ae54       ?System.Data.SQLite.SQLiteVirtualTableCursor.TryPersistValues@@2001081N1281L0 1001be54 f   System.Data.SQLite.netmodule
 0001:0001ae8c       ?System.Data.SQLite.SQLiteVirtualTableCursor.Filter@@200301080O1N1281L0 1001be8c f   System.Data.SQLite.netmodule
 0001:0001aed0       ?System.Data.SQLite.SQLiteVirtualTableCursor.GetRowIndex@@200008 1001bed0 f   System.Data.SQLite.netmodule
 0001:0001aee4       ?System.Data.SQLite.SQLiteVirtualTableCursor.NextRowIndex@@200001 1001bee4 f   System.Data.SQLite.netmodule
 0001:0001af00       ?System.Data.SQLite.SQLiteVirtualTableCursor.get_NativeHandle@@200018 1001bf00 f   System.Data.SQLite.netmodule
 0001:0001af1c       ?System.Data.SQLite.SQLiteVirtualTableCursor.set_NativeHandle@@20010118 1001bf1c f   System.Data.SQLite.netmodule
 0001:0001af30       ?System.Data.SQLite.SQLiteVirtualTableCursor.Dispose@@200001 1001bf30 f   System.Data.SQLite.netmodule
 0001:0001af4c       ?System.Data.SQLite.SQLiteVirtualTableCursor.CheckDisposed@@200001 1001bf4c f   System.Data.SQLite.netmodule
 0001:0001af78       ?System.Data.SQLite.SQLiteVirtualTableCursor.Dispose@@20010102 1001bf78 f   System.Data.SQLite.netmodule
 0001:0001af94       ?System.Data.SQLite.SQLiteVirtualTableCursor.Finalize@@200001 1001bf94 f   System.Data.SQLite.netmodule
 0001:0001afd0       ?System.Data.SQLite.SQLiteVirtualTableCursor..cctor@@000001 1001bfd0 f   System.Data.SQLite.netmodule
 0001:0001afe0       ?System.Data.SQLite.SQLiteMemory.Allocate@@00011808 1001bfe0 f   System.Data.SQLite.netmodule
 0001:0001aff4       ?System.Data.SQLite.SQLiteMemory.Size@@00010818 1001bff4 f   System.Data.SQLite.netmodule
 0001:0001b008       ?System.Data.SQLite.SQLiteMemory.Free@@00010118 1001c008 f   System.Data.SQLite.netmodule
 0001:0001b01c       ?System.Data.SQLite.SQLiteString.GetUtf8BytesFromString@@00011N050O 1001c01c f   System.Data.SQLite.netmodule
 0001:0001b03c       ?System.Data.SQLite.SQLiteString.GetStringFromUtf8Bytes@@00010O1N05 1001c03c f   System.Data.SQLite.netmodule
 0001:0001b05c       ?System.Data.SQLite.SQLiteString.ProbeForUtf8ByteLength@@0002081808 1001c05c f   System.Data.SQLite.netmodule
 0001:0001b090       ?System.Data.SQLite.SQLiteString.StringFromUtf8IntPtr@@00010O18 1001c090 f   System.Data.SQLite.netmodule
 0001:0001b0b0       ?System.Data.SQLite.SQLiteString.StringFromUtf8IntPtr@@00020O1808 1001c0b0 f   System.Data.SQLite.netmodule
 0001:0001b0ec       ?System.Data.SQLite.SQLiteString.Utf8IntPtrFromString@@0001180O 1001c0ec f   System.Data.SQLite.netmodule
 0001:0001b14c       ?System.Data.SQLite.SQLiteString.StringArrayFromUtf8SizeAndIntPtr@@00021N0O0818 1001c14c f   System.Data.SQLite.netmodule
 0001:0001b1b0       ?System.Data.SQLite.SQLiteString.Utf8IntPtrArrayFromStringArray@@00011N181N0O 1001c1b0 f   System.Data.SQLite.netmodule
 0001:0001b1e8       ?System.Data.SQLite.SQLiteString..cctor@@000001 1001c1e8 f   System.Data.SQLite.netmodule
 0001:0001b20c       ?System.Data.SQLite.SQLiteBytes.FromIntPtr@@00021N051808 1001c20c f   System.Data.SQLite.netmodule
 0001:0001b244       ?System.Data.SQLite.SQLiteBytes.ToIntPtr@@0001181N05 1001c244 f   System.Data.SQLite.netmodule
 0001:0001b28c       ?System.Data.SQLite.SQLiteMarshal.IntPtrForOffset@@0002181808 1001c28c f   System.Data.SQLite.netmodule
 0001:0001b2a8       ?System.Data.SQLite.SQLiteMarshal.RoundUp@@0002080808 1001c2a8 f   System.Data.SQLite.netmodule
 0001:0001b2c0       ?System.Data.SQLite.SQLiteMarshal.NextOffsetOf@@000308080808 1001c2c0 f   System.Data.SQLite.netmodule
 0001:0001b2d8       ?System.Data.SQLite.SQLiteMarshal.ReadInt32@@0002081808 1001c2d8 f   System.Data.SQLite.netmodule
 0001:0001b2ec       ?System.Data.SQLite.SQLiteMarshal.ReadInt64@@00020K1808 1001c2ec f   System.Data.SQLite.netmodule
 0001:0001b300       ?System.Data.SQLite.SQLiteMarshal.ReadDouble@@00020N1808 1001c300 f   System.Data.SQLite.netmodule
 0001:0001b31c       ?System.Data.SQLite.SQLiteMarshal.ReadIntPtr@@0002181808 1001c31c f   System.Data.SQLite.netmodule
 0001:0001b330       ?System.Data.SQLite.SQLiteMarshal.WriteInt32@@000301180808 1001c330 f   System.Data.SQLite.netmodule
 0001:0001b348       ?System.Data.SQLite.SQLiteMarshal.WriteInt64@@00030118080K 1001c348 f   System.Data.SQLite.netmodule
 0001:0001b360       ?System.Data.SQLite.SQLiteMarshal.WriteDouble@@00030118080N 1001c360 f   System.Data.SQLite.netmodule
 0001:0001b37c       ?System.Data.SQLite.SQLiteMarshal.WriteIntPtr@@000301180818 1001c37c f   System.Data.SQLite.netmodule
 0001:0001b394       ?System.Data.SQLite.SQLiteMarshal.GetHashCode@@0002081M02 1001c394 f   System.Data.SQLite.netmodule
 0001:0001b3b8       ?System.Data.SQLite.SQLiteModule..ctor@@2001010O 1001c3b8 f   System.Data.SQLite.netmodule
 0001:0001b404       ?System.Data.SQLite.SQLiteModule.CreateDisposableModule@@20010218 1001c404 f   System.Data.SQLite.netmodule
 0001:0001b4b4       ?System.Data.SQLite.SQLiteModule.xDestroyModule@@20010118 1001c4b4 f   System.Data.SQLite.netmodule
 0001:0001b4cc       ?System.Data.SQLite.SQLiteModule.AllocateNativeModule@@200011828M 1001c4cc f   System.Data.SQLite.netmodule
 0001:0001b4e8       ?System.Data.SQLite.SQLiteModule.AllocateNativeModule@@200111828M1281K8 1001c4e8 f   System.Data.SQLite.netmodule
 0001:0001b92c       ?System.Data.SQLite.SQLiteModule.CopyNativeModule@@200111828M11828M 1001c92c f   System.Data.SQLite.netmodule
 0001:0001bd44       ?System.Data.SQLite.SQLiteModule.CreateOrConnect@@2007118114021818081810181018 1001cd44 f   System.Data.SQLite.netmodule
 0001:0001be28       ?System.Data.SQLite.SQLiteModule.DestroyOrDisconnect@@20021181140218 1001ce28 f   System.Data.SQLite.netmodule
 0001:0001bf14       ?System.Data.SQLite.SQLiteModule.SetTableError@@0005021281P41802020O 1001cf14 f   System.Data.SQLite.netmodule
 0001:0001c080       ?System.Data.SQLite.SQLiteModule.SetTableError@@0005021281P41281N402020O 1001d080 f   System.Data.SQLite.netmodule
 0001:0001c0b4       ?System.Data.SQLite.SQLiteModule.SetCursorError@@0005021281P41802020O 1001d0b4 f   System.Data.SQLite.netmodule
 0001:0001c0f4       ?System.Data.SQLite.SQLiteModule.SetCursorError@@0005021281P41281N802020O 1001d0f4 f   System.Data.SQLite.netmodule
 0001:0001c128       ?System.Data.SQLite.SQLiteModule.GetNativeModuleImpl@@20001281K8 1001d128 f   System.Data.SQLite.netmodule
 0001:0001c138       ?System.Data.SQLite.SQLiteModule.CreateNativeModuleImpl@@20001281K8 1001d138 f   System.Data.SQLite.netmodule
 0001:0001c14c       ?System.Data.SQLite.SQLiteModule.AllocateTable@@200018 1001d14c f   System.Data.SQLite.netmodule
 0001:0001c170       ?System.Data.SQLite.SQLiteModule.ZeroTable@@20010118 1001d170 f   System.Data.SQLite.netmodule
 0001:0001c1c8       ?System.Data.SQLite.SQLiteModule.FreeTable@@20010118 1001d1c8 f   System.Data.SQLite.netmodule
 0001:0001c1e4       ?System.Data.SQLite.SQLiteModule.AllocateCursor@@200018 1001d1e4 f   System.Data.SQLite.netmodule
 0001:0001c208       ?System.Data.SQLite.SQLiteModule.FreeCursor@@20010118 1001d208 f   System.Data.SQLite.netmodule
 0001:0001c21c       ?System.Data.SQLite.SQLiteModule.TableFromCursor@@0002181281P418 1001d21c f   System.Data.SQLite.netmodule
 0001:0001c244       ?System.Data.SQLite.SQLiteModule.TableFromCursor@@20011818 1001d244 f   System.Data.SQLite.netmodule
 0001:0001c258       ?System.Data.SQLite.SQLiteModule.TableFromIntPtr@@20011281N418 1001d258 f   System.Data.SQLite.netmodule
 0001:0001c2c4       ?System.Data.SQLite.SQLiteModule.TableToIntPtr@@2001181281N4 1001d2c4 f   System.Data.SQLite.netmodule
 0001:0001c358       ?System.Data.SQLite.SQLiteModule.CursorFromIntPtr@@20021281N81818 1001d358 f   System.Data.SQLite.netmodule
 0001:0001c3c4       ?System.Data.SQLite.SQLiteModule.CursorToIntPtr@@2001181281N8 1001d3c4 f   System.Data.SQLite.netmodule
 0001:0001c454       ?System.Data.SQLite.SQLiteModule.GetFunctionKey@@20030O080O12811M 1001d454 f   System.Data.SQLite.netmodule
 0001:0001c484       ?System.Data.SQLite.SQLiteModule.DeclareTable@@200311811412700O100O 1001d484 f   System.Data.SQLite.netmodule
 0001:0001c4c8       ?System.Data.SQLite.SQLiteModule.DeclareFunction@@20041181141270080O100O 1001d4c8 f   System.Data.SQLite.netmodule
 0001:0001c504       ?System.Data.SQLite.SQLiteModule.get_LogErrorsNoThrow@@200002 1001d504 f   System.Data.SQLite.netmodule
 0001:0001c518       ?System.Data.SQLite.SQLiteModule.set_LogErrorsNoThrow@@20010102 1001d518 f   System.Data.SQLite.netmodule
 0001:0001c52c       ?System.Data.SQLite.SQLiteModule.get_LogExceptionsNoThrow@@200002 1001d52c f   System.Data.SQLite.netmodule
 0001:0001c540       ?System.Data.SQLite.SQLiteModule.set_LogExceptionsNoThrow@@20010102 1001d540 f   System.Data.SQLite.netmodule
 0001:0001c554       ?System.Data.SQLite.SQLiteModule.SetTableError@@200202180O 1001d554 f   System.Data.SQLite.netmodule
 0001:0001c578       ?System.Data.SQLite.SQLiteModule.SetTableError@@2002021281N40O 1001d578 f   System.Data.SQLite.netmodule
 0001:0001c59c       ?System.Data.SQLite.SQLiteModule.SetCursorError@@2002021281N80O 1001d59c f   System.Data.SQLite.netmodule
 0001:0001c5c0       ?System.Data.SQLite.SQLiteModule.SetEstimatedCost@@2002021281N0151175010N 1001d5c0 f   System.Data.SQLite.netmodule
 0001:0001c5e8       ?System.Data.SQLite.SQLiteModule.SetEstimatedCost@@2001021281N0 1001d5e8 f   System.Data.SQLite.netmodule
 0001:0001c608       ?System.Data.SQLite.SQLiteModule.SetEstimatedRows@@2002021281N0151175010K 1001d608 f   System.Data.SQLite.netmodule
 0001:0001c630       ?System.Data.SQLite.SQLiteModule.SetEstimatedRows@@2001021281N0 1001d630 f   System.Data.SQLite.netmodule
 0001:0001c650       ?System.Data.SQLite.SQLiteModule.SetIndexFlags@@2002021281N0151175011181L8 1001d650 f   System.Data.SQLite.netmodule
 0001:0001c678       ?System.Data.SQLite.SQLiteModule.SetIndexFlags@@2001021281N0 1001d678 f   System.Data.SQLite.netmodule
 0001:0001c698       ?System.Data.SQLite.SQLiteModule.get_LogErrors@@200002 1001d698 f   System.Data.SQLite.netmodule
 0001:0001c6b4       ?System.Data.SQLite.SQLiteModule.set_LogErrors@@20010102 1001d6b4 f   System.Data.SQLite.netmodule
 0001:0001c6d0       ?System.Data.SQLite.SQLiteModule.get_LogExceptions@@200002 1001d6d0 f   System.Data.SQLite.netmodule
 0001:0001c6ec       ?System.Data.SQLite.SQLiteModule.set_LogExceptions@@20010102 1001d6ec f   System.Data.SQLite.netmodule
 0001:0001c708       ?System.Data.SQLite.SQLiteModule.xCreate@@20061181141818081810181018 1001d708 f   System.Data.SQLite.netmodule
 0001:0001c728       ?System.Data.SQLite.SQLiteModule.xConnect@@20061181141818081810181018 1001d728 f   System.Data.SQLite.netmodule
 0001:0001c748       ?System.Data.SQLite.SQLiteModule.xBestIndex@@20021181141818 1001d748 f   System.Data.SQLite.netmodule
 0001:0001c7b4       ?System.Data.SQLite.SQLiteModule.xDisconnect@@200111811418 1001d7b4 f   System.Data.SQLite.netmodule
 0001:0001c7cc       ?System.Data.SQLite.SQLiteModule.xDestroy@@200111811418 1001d7cc f   System.Data.SQLite.netmodule
 0001:0001c7e4       ?System.Data.SQLite.SQLiteModule.xOpen@@2002118114181018 1001d7e4 f   System.Data.SQLite.netmodule
 0001:0001c878       ?System.Data.SQLite.SQLiteModule.xClose@@200111811418 1001d878 f   System.Data.SQLite.netmodule
 0001:0001c918       ?System.Data.SQLite.SQLiteModule.xFilter@@20051181141808180818 1001d918 f   System.Data.SQLite.netmodule
 0001:0001c990       ?System.Data.SQLite.SQLiteModule.xNext@@200111811418 1001d990 f   System.Data.SQLite.netmodule
 0001:0001c9f8       ?System.Data.SQLite.SQLiteModule.xEof@@20010818 1001d9f8 f   System.Data.SQLite.netmodule
 0001:0001ca64       ?System.Data.SQLite.SQLiteModule.xColumn@@2003118114181808 1001da64 f   System.Data.SQLite.netmodule
 0001:0001cad4       ?System.Data.SQLite.SQLiteModule.xRowId@@200211811418100K 1001dad4 f   System.Data.SQLite.netmodule
 0001:0001cb38       ?System.Data.SQLite.SQLiteModule.xUpdate@@2004118114180818100K 1001db38 f   System.Data.SQLite.netmodule
 0001:0001cb98       ?System.Data.SQLite.SQLiteModule.xBegin@@200111811418 1001db98 f   System.Data.SQLite.netmodule
 0001:0001cbec       ?System.Data.SQLite.SQLiteModule.xSync@@200111811418 1001dbec f   System.Data.SQLite.netmodule
 0001:0001cc40       ?System.Data.SQLite.SQLiteModule.xCommit@@200111811418 1001dc40 f   System.Data.SQLite.netmodule
 0001:0001cc94       ?System.Data.SQLite.SQLiteModule.xRollback@@200111811418 1001dc94 f   System.Data.SQLite.netmodule
 0001:0001cce8       ?System.Data.SQLite.SQLiteModule.xFindFunction@@2005081808181012813M1018 1001dce8 f   System.Data.SQLite.netmodule
 0001:0001cd88       ?System.Data.SQLite.SQLiteModule.xRename@@20021181141818 1001dd88 f   System.Data.SQLite.netmodule
 0001:0001cde4       ?System.Data.SQLite.SQLiteModule.xSavepoint@@20021181141808 1001dde4 f   System.Data.SQLite.netmodule
 0001:0001ce3c       ?System.Data.SQLite.SQLiteModule.xRelease@@20021181141808 1001de3c f   System.Data.SQLite.netmodule
 0001:0001ce94       ?System.Data.SQLite.SQLiteModule.xRollbackTo@@20021181141808 1001de94 f   System.Data.SQLite.netmodule
 0001:0001ceec       ?System.Data.SQLite.SQLiteModule.get_Declared@@200002 1001deec f   System.Data.SQLite.netmodule
 0001:0001cf08       ?System.Data.SQLite.SQLiteModule.set_Declared@@20010102 1001df08 f   System.Data.SQLite.netmodule
 0001:0001cf1c       ?System.Data.SQLite.SQLiteModule.get_Name@@20000O 1001df1c f   System.Data.SQLite.netmodule
 0001:0001cf38       ?System.Data.SQLite.SQLiteModule.Dispose@@200001 1001df38 f   System.Data.SQLite.netmodule
 0001:0001cf54       ?System.Data.SQLite.SQLiteModule.CheckDisposed@@200001 1001df54 f   System.Data.SQLite.netmodule
 0001:0001cf80       ?System.Data.SQLite.SQLiteModule.Dispose@@20010102 1001df80 f   System.Data.SQLite.netmodule
 0001:0001d048       ?System.Data.SQLite.SQLiteModule.Finalize@@200001 1001e048 f   System.Data.SQLite.netmodule
 0001:0001d084       ?System.Data.SQLite.SQLiteModule..cctor@@000001 1001e084 f   System.Data.SQLite.netmodule
 0001:0001d098       ?System.Data.SQLite.SQLiteModuleCommon..ctor@@2001010O 1001e098 f   System.Data.SQLite.netmodule
 0001:0001d0b0       ?System.Data.SQLite.SQLiteModuleCommon..ctor@@2002010O02 1001e0b0 f   System.Data.SQLite.netmodule
 0001:0001d0cc       ?System.Data.SQLite.SQLiteModuleCommon.GetSqlForDeclareTable@@20000O 1001e0cc f   System.Data.SQLite.netmodule
 0001:0001d0e0       ?System.Data.SQLite.SQLiteModuleCommon.CursorTypeMismatchError@@20021181141281N81280L1 1001e0e0 f   System.Data.SQLite.netmodule
 0001:0001d128       ?System.Data.SQLite.SQLiteModuleCommon.GetStringFromObject@@20020O1281N81M 1001e128 f   System.Data.SQLite.netmodule
 0001:0001d150       ?System.Data.SQLite.SQLiteModuleCommon.MakeRowId@@20020K0808 1001e150 f   System.Data.SQLite.netmodule
 0001:0001d168       ?System.Data.SQLite.SQLiteModuleCommon.GetRowIdFromObject@@20020K1281N81M 1001e168 f   System.Data.SQLite.netmodule
 0001:0001d198       ?System.Data.SQLite.SQLiteModuleCommon.CheckDisposed@@200001 1001e198 f   System.Data.SQLite.netmodule
 0001:0001d1c4       ?System.Data.SQLite.SQLiteModuleCommon.Dispose@@20010102 1001e1c4 f   System.Data.SQLite.netmodule
 0001:0001d208       ?System.Data.SQLite.SQLiteModuleCommon..cctor@@000001 1001e208 f   System.Data.SQLite.netmodule
 0001:0001d244       ?System.Data.SQLite.SQLiteVirtualTableCursorEnumerator..ctor@@2002011281N41280NN 1001e244 f   System.Data.SQLite.netmodule
 0001:0001d268       ?System.Data.SQLite.SQLiteVirtualTableCursorEnumerator.MoveNext@@200002 1001e268 f   System.Data.SQLite.netmodule
 0001:0001d2b8       ?System.Data.SQLite.SQLiteVirtualTableCursorEnumerator.get_Current@@20001M 1001e2b8 f   System.Data.SQLite.netmodule
 0001:0001d2e8       ?System.Data.SQLite.SQLiteVirtualTableCursorEnumerator.Reset@@200001 1001e2e8 f   System.Data.SQLite.netmodule
 0001:0001d318       ?System.Data.SQLite.SQLiteVirtualTableCursorEnumerator.get_EndOfEnumerator@@200002 1001e318 f   System.Data.SQLite.netmodule
 0001:0001d338       ?System.Data.SQLite.SQLiteVirtualTableCursorEnumerator.get_IsOpen@@200002 1001e338 f   System.Data.SQLite.netmodule
 0001:0001d354       ?System.Data.SQLite.SQLiteVirtualTableCursorEnumerator.Close@@200001 1001e354 f   System.Data.SQLite.netmodule
 0001:0001d370       ?System.Data.SQLite.SQLiteVirtualTableCursorEnumerator.CheckClosed@@200001 1001e370 f   System.Data.SQLite.netmodule
 0001:0001d398       ?System.Data.SQLite.SQLiteVirtualTableCursorEnumerator.CheckDisposed@@200001 1001e398 f   System.Data.SQLite.netmodule
 0001:0001d3c4       ?System.Data.SQLite.SQLiteVirtualTableCursorEnumerator.Dispose@@20010102 1001e3c4 f   System.Data.SQLite.netmodule
 0001:0001d40c       ?System.Data.SQLite.SQLiteModuleEnumerable..ctor@@2002010O128295 1001e40c f   System.Data.SQLite.netmodule
 0001:0001d424       ?System.Data.SQLite.SQLiteModuleEnumerable..ctor@@2003010O12829502 1001e424 f   System.Data.SQLite.netmodule
 0001:0001d454       ?System.Data.SQLite.SQLiteModuleEnumerable.CursorEndOfEnumeratorError@@20011181141281N8 1001e454 f   System.Data.SQLite.netmodule
 0001:0001d470       ?System.Data.SQLite.SQLiteModuleEnumerable.Create@@20051181141270181N0O101281N4100O 1001e470 f   System.Data.SQLite.netmodule
 0001:0001d4a0       ?System.Data.SQLite.SQLiteModuleEnumerable.Connect@@20051181141270181N0O101281N4100O 1001e4a0 f   System.Data.SQLite.netmodule
 0001:0001d4d0       ?System.Data.SQLite.SQLiteModuleEnumerable.BestIndex@@20021181141281N41281N0 1001e4d0 f   System.Data.SQLite.netmodule
 0001:0001d518       ?System.Data.SQLite.SQLiteModuleEnumerable.Disconnect@@20011181141281N4 1001e518 f   System.Data.SQLite.netmodule
 0001:0001d534       ?System.Data.SQLite.SQLiteModuleEnumerable.Destroy@@20011181141281N4 1001e534 f   System.Data.SQLite.netmodule
 0001:0001d550       ?System.Data.SQLite.SQLiteModuleEnumerable.Open@@20021181141281N4101281N8 1001e550 f   System.Data.SQLite.netmodule
 0001:0001d578       ?System.Data.SQLite.SQLiteModuleEnumerable.Close@@20011181141281N8 1001e578 f   System.Data.SQLite.netmodule
 0001:0001d5b0       ?System.Data.SQLite.SQLiteModuleEnumerable.Filter@@20041181141281N8080O1N1281L0 1001e5b0 f   System.Data.SQLite.netmodule
 0001:0001d5f8       ?System.Data.SQLite.SQLiteModuleEnumerable.Next@@20011181141281N8 1001e5f8 f   System.Data.SQLite.netmodule
 0001:0001d640       ?System.Data.SQLite.SQLiteModuleEnumerable.Eof@@2001021281N8 1001e640 f   System.Data.SQLite.netmodule
 0001:0001d67c       ?System.Data.SQLite.SQLiteModuleEnumerable.Column@@20031181141281N81281KM08 1001e67c f   System.Data.SQLite.netmodule
 0001:0001d6dc       ?System.Data.SQLite.SQLiteModuleEnumerable.RowId@@20021181141281N8100K 1001e6dc f   System.Data.SQLite.netmodule
 0001:0001d730       ?System.Data.SQLite.SQLiteModuleEnumerable.Update@@20031181141281N41N1281L0100K 1001e730 f   System.Data.SQLite.netmodule
 0001:0001d76c       ?System.Data.SQLite.SQLiteModuleEnumerable.Rename@@20021181141281N40O 1001e76c f   System.Data.SQLite.netmodule
 0001:0001d7b8       ?System.Data.SQLite.SQLiteModuleEnumerable.CheckDisposed@@200001 1001e7b8 f   System.Data.SQLite.netmodule
 0001:0001d7e4       ?System.Data.SQLite.SQLiteModuleEnumerable.Dispose@@20010102 1001e7e4 f   System.Data.SQLite.netmodule
 0001:0001d828       ?System.Data.SQLite.SQLiteModuleNoop..ctor@@2001010O 1001e828 f   System.Data.SQLite.netmodule
 0001:0001d848       ?System.Data.SQLite.SQLiteModuleNoop.GetDefaultResultCode@@2000118114 1001e848 f   System.Data.SQLite.netmodule
 0001:0001d858       ?System.Data.SQLite.SQLiteModuleNoop.ResultCodeToEofResult@@200102118114 1001e858 f   System.Data.SQLite.netmodule
 0001:0001d86c       ?System.Data.SQLite.SQLiteModuleNoop.ResultCodeToFindFunctionResult@@200102118114 1001e86c f   System.Data.SQLite.netmodule
 0001:0001d880       ?System.Data.SQLite.SQLiteModuleNoop.GetMethodResultCode@@20011181140O 1001e880 f   System.Data.SQLite.netmodule
 0001:0001d8c0       ?System.Data.SQLite.SQLiteModuleNoop.SetMethodResultCode@@2002020O118114 1001e8c0 f   System.Data.SQLite.netmodule
 0001:0001d8e8       ?System.Data.SQLite.SQLiteModuleNoop.Create@@20051181141270181N0O101281N4100O 1001e8e8 f   System.Data.SQLite.netmodule
 0001:0001d908       ?System.Data.SQLite.SQLiteModuleNoop.Connect@@20051181141270181N0O101281N4100O 1001e908 f   System.Data.SQLite.netmodule
 0001:0001d928       ?System.Data.SQLite.SQLiteModuleNoop.BestIndex@@20021181141281N41281N0 1001e928 f   System.Data.SQLite.netmodule
 0001:0001d948       ?System.Data.SQLite.SQLiteModuleNoop.Disconnect@@20011181141281N4 1001e948 f   System.Data.SQLite.netmodule
 0001:0001d968       ?System.Data.SQLite.SQLiteModuleNoop.Destroy@@20011181141281N4 1001e968 f   System.Data.SQLite.netmodule
 0001:0001d988       ?System.Data.SQLite.SQLiteModuleNoop.Open@@20021181141281N4101281N8 1001e988 f   System.Data.SQLite.netmodule
 0001:0001d9a8       ?System.Data.SQLite.SQLiteModuleNoop.Close@@20011181141281N8 1001e9a8 f   System.Data.SQLite.netmodule
 0001:0001d9c8       ?System.Data.SQLite.SQLiteModuleNoop.Filter@@20041181141281N8080O1N1281L0 1001e9c8 f   System.Data.SQLite.netmodule
 0001:0001d9e8       ?System.Data.SQLite.SQLiteModuleNoop.Next@@20011181141281N8 1001e9e8 f   System.Data.SQLite.netmodule
 0001:0001da08       ?System.Data.SQLite.SQLiteModuleNoop.Eof@@2001021281N8 1001ea08 f   System.Data.SQLite.netmodule
 0001:0001da2c       ?System.Data.SQLite.SQLiteModuleNoop.Column@@20031181141281N81281KM08 1001ea2c f   System.Data.SQLite.netmodule
 0001:0001da4c       ?System.Data.SQLite.SQLiteModuleNoop.RowId@@20021181141281N8100K 1001ea4c f   System.Data.SQLite.netmodule
 0001:0001da6c       ?System.Data.SQLite.SQLiteModuleNoop.Update@@20031181141281N41N1281L0100K 1001ea6c f   System.Data.SQLite.netmodule
 0001:0001da8c       ?System.Data.SQLite.SQLiteModuleNoop.Begin@@20011181141281N4 1001ea8c f   System.Data.SQLite.netmodule
 0001:0001daac       ?System.Data.SQLite.SQLiteModuleNoop.Sync@@20011181141281N4 1001eaac f   System.Data.SQLite.netmodule
 0001:0001dacc       ?System.Data.SQLite.SQLiteModuleNoop.Commit@@20011181141281N4 1001eacc f   System.Data.SQLite.netmodule
 0001:0001daec       ?System.Data.SQLite.SQLiteModuleNoop.Rollback@@20011181141281N4 1001eaec f   System.Data.SQLite.netmodule
 0001:0001db0c       ?System.Data.SQLite.SQLiteModuleNoop.FindFunction@@2005021281N4080O1012811M1018 1001eb0c f   System.Data.SQLite.netmodule
 0001:0001db30       ?System.Data.SQLite.SQLiteModuleNoop.Rename@@20021181141281N40O 1001eb30 f   System.Data.SQLite.netmodule
 0001:0001db50       ?System.Data.SQLite.SQLiteModuleNoop.Savepoint@@20021181141281N408 1001eb50 f   System.Data.SQLite.netmodule
 0001:0001db70       ?System.Data.SQLite.SQLiteModuleNoop.Release@@20021181141281N408 1001eb70 f   System.Data.SQLite.netmodule
 0001:0001db90       ?System.Data.SQLite.SQLiteModuleNoop.RollbackTo@@20021181141281N408 1001eb90 f   System.Data.SQLite.netmodule
 0001:0001dbb0       ?System.Data.SQLite.SQLiteModuleNoop.CheckDisposed@@200001 1001ebb0 f   System.Data.SQLite.netmodule
 0001:0001dbdc       ?System.Data.SQLite.SQLiteModuleNoop.Dispose@@20010102 1001ebdc f   System.Data.SQLite.netmodule
 0001:0001dc20       ?System.Data.SQLite.Generic.SQLiteVirtualTableCursorEnumerator`1..ctor@@2002011281N41512808N011300 1001ec20 f   System.Data.SQLite.netmodule
 0001:0001dc3c       ?System.Data.SQLite.Generic.SQLiteVirtualTableCursorEnumerator`1.System.Collections.Generic.IEnumerator<T>.get_Current@@20001300 1001ec3c f   System.Data.SQLite.netmodule
 0001:0001dc74       ?System.Data.SQLite.Generic.SQLiteVirtualTableCursorEnumerator`1.Close@@200001 1001ec74 f   System.Data.SQLite.netmodule
 0001:0001dc98       ?System.Data.SQLite.Generic.SQLiteVirtualTableCursorEnumerator`1.CheckDisposed@@200001 1001ec98 f   System.Data.SQLite.netmodule
 0001:0001dcc4       ?System.Data.SQLite.Generic.SQLiteVirtualTableCursorEnumerator`1.Dispose@@20010102 1001ecc4 f   System.Data.SQLite.netmodule
 0001:0001dd0c       ?System.Data.SQLite.Generic.SQLiteModuleEnumerable`1..ctor@@2002010O151281O9011300 1001ed0c f   System.Data.SQLite.netmodule
 0001:0001dd28       ?System.Data.SQLite.Generic.SQLiteModuleEnumerable`1.Open@@20021181141281N4101281N8 1001ed28 f   System.Data.SQLite.netmodule
 0001:0001dd50       ?System.Data.SQLite.Generic.SQLiteModuleEnumerable`1.Column@@20031181141281N81281KM08 1001ed50 f   System.Data.SQLite.netmodule
 0001:0001ddbc       ?System.Data.SQLite.Generic.SQLiteModuleEnumerable`1.CheckDisposed@@200001 1001edbc f   System.Data.SQLite.netmodule
 0001:0001dde8       ?System.Data.SQLite.Generic.SQLiteModuleEnumerable`1.Dispose@@20010102 1001ede8 f   System.Data.SQLite.netmodule
 0001:0001de2c       ?<PrivateImplementationDetails><System_Data_SQQLite_netmodule>.ComputeStringHash@@0001090O 1001ee2c f   System.Data.SQLite.netmodule
 0001:0001de64       ?System.Data.SQLite.SQLiteConnectionPool.PoolQueue..ctor@@2002010808 1001ee64 f   System.Data.SQLite.netmodule
 0001:0001de90       ?System.Data.SQLite.SQLiteDataReader.ColumnParent..ctor@@200001 1001ee90 f   System.Data.SQLite.netmodule
 0001:0001dea4       ?System.Data.SQLite.SQLiteDataReader.ColumnParent..ctor@@2003010O0O0O 1001eea4 f   System.Data.SQLite.netmodule
 0001:0001decc       ?System.Data.SQLite.SQLiteDataReader.ColumnParent.Equals@@200202128218128218 1001eecc f   System.Data.SQLite.netmodule
 0001:0001df2c       ?System.Data.SQLite.SQLiteDataReader.ColumnParent.GetHashCode@@200108128218 1001ef2c f   System.Data.SQLite.netmodule
 0001:0001df88       ?System.Data.SQLite.SQLiteFunction.AggregateData..ctor@@200001 1001ef88 f   System.Data.SQLite.netmodule
 0001:0001dfa4       ?System.Data.SQLite.SQLiteKeyReader.KeyQuery..ctor@@20040112700O0O1N0O 1001efa4 f   System.Data.SQLite.netmodule
 0001:0001e060       ?System.Data.SQLite.SQLiteKeyReader.KeyQuery.set_IsValid@@20010102 1001f060 f   System.Data.SQLite.netmodule
 0001:0001e090       ?System.Data.SQLite.SQLiteKeyReader.KeyQuery.Sync@@2001010K 1001f090 f   System.Data.SQLite.netmodule
 0001:0001e0e0       ?System.Data.SQLite.SQLiteKeyReader.KeyQuery.Dispose@@200001 1001f0e0 f   System.Data.SQLite.netmodule
 0001:0001e0fc       ?System.Data.SQLite.SQLiteKeyReader.KeyQuery.CheckDisposed@@200001 1001f0fc f   System.Data.SQLite.netmodule
 0001:0001e128       ?System.Data.SQLite.SQLiteKeyReader.KeyQuery.Dispose@@20010102 1001f128 f   System.Data.SQLite.netmodule
 0001:0001e168       ?System.Data.SQLite.SQLiteKeyReader.KeyQuery.Finalize@@200001 1001f168 f   System.Data.SQLite.netmodule
 0001:0001e1a4       ?System.Data.SQLite.UnsafeNativeMethods.sqlite3_index_constraint..ctor@@2001011281LM 1001f1a4 f   System.Data.SQLite.netmodule
 0001:0001e1ec       ?System.Data.SQLite.UnsafeNativeMethods.sqlite3_index_orderby..ctor@@2001011281M0 1001f1ec f   System.Data.SQLite.netmodule
 0001:0001e21c       ?System.Data.SQLite.UnsafeNativeMethods.sqlite3_index_constraint_usage..ctor@@2001011281M4 1001f21c f   System.Data.SQLite.netmodule
 0001:0001e24c       ?System.Data.SQLite.SQLiteModule.SQLiteNativeModule..ctor@@2001011281P4 1001f24c f   System.Data.SQLite.netmodule
 0001:0001e268       ?System.Data.SQLite.SQLiteModule.SQLiteNativeModule.ModuleNotAvailableTableError@@000111811418 1001f268 f   System.Data.SQLite.netmodule
 0001:0001e288       ?System.Data.SQLite.SQLiteModule.SQLiteNativeModule.ModuleNotAvailableCursorError@@000111811418 1001f288 f   System.Data.SQLite.netmodule
 0001:0001e2a8       ?System.Data.SQLite.SQLiteModule.SQLiteNativeModule.xCreate@@20061181141818081810181018 1001f2a8 f   System.Data.SQLite.netmodule
 0001:0001e2e0       ?System.Data.SQLite.SQLiteModule.SQLiteNativeModule.xConnect@@20061181141818081810181018 1001f2e0 f   System.Data.SQLite.netmodule
 0001:0001e318       ?System.Data.SQLite.SQLiteModule.SQLiteNativeModule.xBestIndex@@20021181141818 1001f318 f   System.Data.SQLite.netmodule
 0001:0001e344       ?System.Data.SQLite.SQLiteModule.SQLiteNativeModule.xDisconnect@@200111811418 1001f344 f   System.Data.SQLite.netmodule
 0001:0001e36c       ?System.Data.SQLite.SQLiteModule.SQLiteNativeModule.xDestroy@@200111811418 1001f36c f   System.Data.SQLite.netmodule
 0001:0001e394       ?System.Data.SQLite.SQLiteModule.SQLiteNativeModule.xOpen@@2002118114181018 1001f394 f   System.Data.SQLite.netmodule
 0001:0001e3c0       ?System.Data.SQLite.SQLiteModule.SQLiteNativeModule.xClose@@200111811418 1001f3c0 f   System.Data.SQLite.netmodule
 0001:0001e3e8       ?System.Data.SQLite.SQLiteModule.SQLiteNativeModule.xFilter@@20051181141808180818 1001f3e8 f   System.Data.SQLite.netmodule
 0001:0001e418       ?System.Data.SQLite.SQLiteModule.SQLiteNativeModule.xNext@@200111811418 1001f418 f   System.Data.SQLite.netmodule
 0001:0001e440       ?System.Data.SQLite.SQLiteModule.SQLiteNativeModule.xEof@@20010818 1001f440 f   System.Data.SQLite.netmodule
 0001:0001e46c       ?System.Data.SQLite.SQLiteModule.SQLiteNativeModule.xColumn@@2003118114181808 1001f46c f   System.Data.SQLite.netmodule
 0001:0001e498       ?System.Data.SQLite.SQLiteModule.SQLiteNativeModule.xRowId@@200211811418100K 1001f498 f   System.Data.SQLite.netmodule
 0001:0001e4c4       ?System.Data.SQLite.SQLiteModule.SQLiteNativeModule.xUpdate@@2004118114180818100K 1001f4c4 f   System.Data.SQLite.netmodule
 0001:0001e4f0       ?System.Data.SQLite.SQLiteModule.SQLiteNativeModule.xBegin@@200111811418 1001f4f0 f   System.Data.SQLite.netmodule
 0001:0001e518       ?System.Data.SQLite.SQLiteModule.SQLiteNativeModule.xSync@@200111811418 1001f518 f   System.Data.SQLite.netmodule
 0001:0001e540       ?System.Data.SQLite.SQLiteModule.SQLiteNativeModule.xCommit@@200111811418 1001f540 f   System.Data.SQLite.netmodule
 0001:0001e568       ?System.Data.SQLite.SQLiteModule.SQLiteNativeModule.xRollback@@200111811418 1001f568 f   System.Data.SQLite.netmodule
 0001:0001e590       ?System.Data.SQLite.SQLiteModule.SQLiteNativeModule.xFindFunction@@2005081808181012813M1018 1001f590 f   System.Data.SQLite.netmodule
 0001:0001e5c0       ?System.Data.SQLite.SQLiteModule.SQLiteNativeModule.xRename@@20021181141818 1001f5c0 f   System.Data.SQLite.netmodule
 0001:0001e5ec       ?System.Data.SQLite.SQLiteModule.SQLiteNativeModule.xSavepoint@@20021181141808 1001f5ec f   System.Data.SQLite.netmodule
 0001:0001e618       ?System.Data.SQLite.SQLiteModule.SQLiteNativeModule.xRelease@@20021181141808 1001f618 f   System.Data.SQLite.netmodule
 0001:0001e644       ?System.Data.SQLite.SQLiteModule.SQLiteNativeModule.xRollbackTo@@20021181141808 1001f644 f   System.Data.SQLite.netmodule
 0001:0001e670       ?System.Data.SQLite.SQLiteModule.SQLiteNativeModule.Dispose@@200001 1001f670 f   System.Data.SQLite.netmodule
 0001:0001e68c       ?System.Data.SQLite.SQLiteModule.SQLiteNativeModule.CheckDisposed@@200001 1001f68c f   System.Data.SQLite.netmodule
 0001:0001e6b8       ?System.Data.SQLite.SQLiteModule.SQLiteNativeModule.Dispose@@20010102 1001f6b8 f   System.Data.SQLite.netmodule
 0001:0001e6e4       ?System.Data.SQLite.SQLiteModule.SQLiteNativeModule.Finalize@@200001 1001f6e4 f   System.Data.SQLite.netmodule
 0001:00020e10       _sqlite3_vtshim_init       10021e10 f   interop.obj
 0001:00020e20       _sqlite3_dispose_module    10021e20 f   interop.obj
 0001:00020e90       _interop_sourceid@0        10021e90 f   interop.obj
 0001:00020ea0       _interop_libversion@0      10021ea0 f   interop.obj
 0001:00020eb0       _interop_compileoption_get@4 10021eb0 f   interop.obj
 0001:00020ed0       _sqlite3Codec              10021ed0 f   interop.obj
 0001:00021020       _sqlite3_activate_see      10022020 f   interop.obj
 0001:00021050       _double_cmp                10022050 f   interop.obj
 0001:00021090       _int_cmp                   10022090 f   interop.obj
 0001:000210e0       _node_iterate              100220e0 f   interop.obj
 0001:00021120       _xfree                     10022120 f   interop.obj
 0001:00021130       _xcalloc                   10022130 f   interop.obj
 0001:00021140       _map_make                  10022140 f   interop.obj
 0001:00023620       _sqlite3_thread_cleanup    10024620 f   interop.obj
 0001:00023630       _sqlite3_global_recover    10024630 f   interop.obj
 0001:00023640       _sqlite3_system_errno      10024640 f   interop.obj
 0001:000236f0       _sqlite3_threadsafe        100246f0 f   interop.obj
 0001:00023700       _sqlite3_libversion_number 10024700 f   interop.obj
 0001:00023710       _sqlite3_sourceid          10024710 f   interop.obj
 0001:00023720       _sqlite3_libversion        10024720 f   interop.obj
 0001:00024430       _sqlite3_prepare_v2        10025430 f   interop.obj
 0001:00024450       _sqlite3_prepare           10025450 f   interop.obj
 0001:00025a40       _sqlite3_blob_bytes        10026a40 f   interop.obj
 0001:00025a60       _sqlite3_sql               10026a60 f   interop.obj
 0001:00025a80       _sqlite3_stmt_busy         10026a80 f   interop.obj
 0001:00025ab0       _sqlite3_stmt_readonly     10026ab0 f   interop.obj
 0001:00025ad0       _sqlite3_db_handle         10026ad0 f   interop.obj
 0001:00025b60       _sqlite3_bind_parameter_name 10026b60 f   interop.obj
 0001:00025b90       _sqlite3_bind_parameter_count 10026b90 f   interop.obj
 0001:00025bc0       _sqlite3_data_count        10026bc0 f   interop.obj
 0001:00025be0       _sqlite3_column_count      10026be0 f   interop.obj
 0001:00025c00       _sqlite3_aggregate_count   10026c00 f   interop.obj
 0001:00025c10       _sqlite3_get_auxdata       10026c10 f   interop.obj
 0001:00025c50       _sqlite3_context_db_handle 10026c50 f   interop.obj
 0001:00025c60       _sqlite3_user_data         10026c60 f   interop.obj
 0001:00025c70       _sqlite3_result_subtype    10026c70 f   interop.obj
 0001:00025c90       _sqlite3_value_type        10026c90 f   interop.obj
 0001:00025cb0       _sqlite3_value_subtype     10026cb0 f   interop.obj
 0001:00025cd0       _sqlite3_expired           10026cd0 f   interop.obj
 0001:00026b20       _sqlite3_enable_shared_cache 10027b20 f   interop.obj
 0001:00027a40       _sqlite3_os_end            10028a40 f   interop.obj
 0001:00027c60       _sqlite3_win32_is_nt       10028c60 f   interop.obj
 0001:00027c90       _sqlite3_win32_sleep       10028c90 f   interop.obj
 0001:00028bf0       _sqlite3_strnicmp          10029bf0 f   interop.obj
 0001:00028cc0       _sqlite3_stricmp           10029cc0 f   interop.obj
 0001:00029040       _sqlite3_msize             1002a040 f   interop.obj
 0001:000290d0       _sqlite3_memory_alarm      1002a0d0 f   interop.obj
 0001:00029280       _sqlite3_mutex_leave       1002a280 f   interop.obj
 0001:000292a0       _sqlite3_mutex_try         1002a2a0 f   interop.obj
 0001:000292c0       _sqlite3_mutex_enter       1002a2c0 f   interop.obj
 0001:000292e0       _sqlite3_mutex_free        1002a2e0 f   interop.obj
 0001:000293a0       _sqlite3_vfs_find          1002a3a0 f   interop.obj
 0001:00029b40       _sqlite3_compileoption_get 1002ab40 f   interop.obj
 0001:0002b5b0       _sqlite3_table_cursor_interop@12 1002c5b0 f   interop.obj
 0001:0002b630       _sqlite3_context_collseq_interop@16 1002c630 f   interop.obj
 0001:0002b6d0       _sqlite3_context_collcompare_interop@20 1002c6d0 f   interop.obj
 0001:0002b740       _sqlite3_bind_parameter_name_interop@12 1002c740 f   interop.obj
 0001:0002b7a0       _sqlite3_prepare_interop@24 1002c7a0 f   interop.obj
 0001:0002b800       _sqlite3_malloc_size_interop@4 1002c800 f   interop.obj
 0001:0002b820       _interop_compileoption_used@4 1002c820 f   interop.obj
 0001:0002b8c0       _sqlite3CodecGetKey        1002c8c0 f   interop.obj
 0001:0002b900       _node_destroy              1002c900 f   interop.obj
 0001:0002b940       _map_iterate               1002c940 f   interop.obj
 0001:0002b960       _node_insert               1002c960 f   interop.obj
 0001:0002cfa0       _sqlite3_uri_parameter     1002dfa0 f   interop.obj
 0001:0002d060       _sqlite3_sleep             1002e060 f   interop.obj
 0001:0002d0a0       _sqlite3_errstr            1002e0a0 f   interop.obj
 0001:0002e3c0       _sqlite3_cancel_auto_extension 1002f3c0 f   interop.obj
 0001:0002e440       _sqlite3_enable_load_extension 1002f440 f   interop.obj
 0001:0002f5e0       _sqlite3_bind_parameter_index 100305e0 f   interop.obj
 0001:00031bc0       _sqlite3_randomness        10032bc0 f   interop.obj
 0001:00031d70       _sqlite3_free              10032d70 f   interop.obj
 0001:00031ef0       _sqlite3_vfs_unregister    10032ef0 f   interop.obj
 0001:00032150       _sqlite3re_free            10033150 f   interop.obj
 0001:00032ec0       _map_destroy               10033ec0 f   interop.obj
 0001:00032ed0       _map_insert                10033ed0 f   interop.obj
 0001:00034a50       _sqlite3_free_table        10035a50 f   interop.obj
 0001:00034d50       _sqlite3_strlike           10035d50 f   interop.obj
 0001:00034d70       _sqlite3_strglob           10035d70 f   interop.obj
 0001:000354a0       _sqlite3_value_double      100364a0 f   interop.obj
 0001:000379d0       _sqlite3_value_double_interop@8 100389d0 f   interop.obj
 0001:00038050       _sqlite3_uri_int64         10039050 f   interop.obj
 0001:000387c0       _sqlite3_value_numeric_type 100397c0 f   interop.obj
 0001:000388c0       _sqlite3_value_int64       100398c0 f   interop.obj
 0001:000388d0       _sqlite3_value_int         100398d0 f   interop.obj
 0001:00039860       _sqlite3_index_column_info_interop@32 1003a860 f   interop.obj
 0001:00039960       _sqlite3_value_int64_interop@8 1003a960 f   interop.obj
 0001:00039dc0       _sqlite3_uri_boolean       1003adc0 f   interop.obj
 0001:0003ba30       _sqlite3_release_memory    1003ca30 f   interop.obj
 0001:0003c150       _sqlite3_result_error_nomem 1003d150 f   interop.obj
 0001:0003c190       _sqlite3_result_null       1003d190 f   interop.obj
 0001:0003c480       _sqlite3_result_double     1003d480 f   interop.obj
 0001:0003c4a0       _sqlite3_clear_bindings    1003d4a0 f   interop.obj
 0001:0003c820       _sqlite3_result_double_interop@8 1003d820 f   interop.obj
 0001:0003cd70       _sqlite3_result_zeroblob64 1003dd70 f   interop.obj
 0001:0003cda0       _sqlite3_result_zeroblob   1003dda0 f   interop.obj
 0001:0003cdc0       _sqlite3_result_int64      1003ddc0 f   interop.obj
 0001:0003ce00       _sqlite3_result_int        1003de00 f   interop.obj
 0001:0003ce40       _sqlite3_value_free        1003de40 f   interop.obj
 0001:0003d550       _sqlite3_malloc64          1003e550 f   interop.obj
 0001:0003d600       _sqlite3_result_int64_interop@8 1003e600 f   interop.obj
 0001:0003d9f0       _sqlite3_db_config         1003e9f0 f   interop.obj
 0001:0003e1d0       _sqlite3_transfer_bindings 1003f1d0 f   interop.obj
 0001:0003ee90       _sqlite3_realloc64         1003fe90 f   interop.obj
 0001:0003feb0       _sqlite3_column_type       10040eb0 f   interop.obj
 0001:0003fee0       _sqlite3_column_value      10040ee0 f   interop.obj
 0001:0003ff20       _sqlite3_column_int64      10040f20 f   interop.obj
 0001:0003ff50       _sqlite3_column_int        10040f50 f   interop.obj
 0001:0003ff80       _sqlite3_column_double     10040f80 f   interop.obj
 0001:0003ffb0       _sqlite3_set_auxdata       10040fb0 f   interop.obj
 0001:00041620       _sqlite3_column_int64_interop@12 10042620 f   interop.obj
 0001:00041660       _sqlite3_column_double_interop@12 10042660 f   interop.obj
 0001:00043100       _sqlite3_vsnprintf         10044100 f   interop.obj
 0001:00044de0       _sqlite3_snprintf          10045de0 f   interop.obj
 0001:00048570       _sqlite3_aggregate_context 10049570 f   interop.obj
 0001:000485a0       _sqlite3_result_error_toobig 100495a0 f   interop.obj
 0001:000485d0       _sqlite3_result_error_code 100495d0 f   interop.obj
 0001:00048640       _sqlite3_result_value      10049640 f   interop.obj
 0001:00048660       _sqlite3_result_error16    10049660 f   interop.obj
 0001:00048690       _sqlite3_result_error      10049690 f   interop.obj
 0001:0004b920       _sqlite3_result_text16le   1004c920 f   interop.obj
 0001:0004b960       _sqlite3_result_text16be   1004c960 f   interop.obj
 0001:0004b9a0       _sqlite3_result_text16     1004c9a0 f   interop.obj
 0001:0004b9e0       _sqlite3_result_text64     1004c9e0 f   interop.obj
 0001:0004ba70       _sqlite3_result_text       1004ca70 f   interop.obj
 0001:0004bac0       _sqlite3_result_blob64     1004cac0 f   interop.obj
 0001:0004bb40       _sqlite3_result_blob       1004cb40 f   interop.obj
 0001:0004e4e0       _sqlite3_test_control      1004f4e0 f   interop.obj
 0001:0004f1a0       _sqlite3_value_text16le    100501a0 f   interop.obj
 0001:0004f1b0       _sqlite3_value_text16be    100501b0 f   interop.obj
 0001:0004f1c0       _sqlite3_value_text16      100501c0 f   interop.obj
 0001:0004f1d0       _sqlite3_value_text        100501d0 f   interop.obj
 0001:0004f1f0       _sqlite3_value_blob        100501f0 f   interop.obj
 0001:0004ff50       _sqlite3_column_text16     10050f50 f   interop.obj
 0001:0004ff80       _sqlite3_column_text       10050f80 f   interop.obj
 0001:0004ffb0       _sqlite3_column_blob       10050fb0 f   interop.obj
 0001:0004ffe0       _sqlite3_value_bytes16     10050fe0 f   interop.obj
 0001:0004fff0       _sqlite3_value_bytes       10050ff0 f   interop.obj
 0001:00051e40       _sqlite3_value_text16_interop@8 10052e40 f   interop.obj
 0001:00051e70       _sqlite3_value_text_interop@8 10052e70 f   interop.obj
 0001:00053610       _sqlite3_column_bytes16    10054610 f   interop.obj
 0001:00053640       _sqlite3_column_bytes      10054640 f   interop.obj
 0001:00053e60       _sqlite3_column_text16_interop@12 10054e60 f   interop.obj
 0001:00053ec0       _sqlite3_column_text_interop@12 10054ec0 f   interop.obj
 0001:00054800       _sqlite3_expanded_sql      10055800 f   interop.obj
 0001:00054d80       _sqlite3_log               10055d80 f   interop.obj
 0001:000587b0       _sqlite3_win32_compact_heap 100597b0 f   interop.obj
 0001:00058c70       _sqlite3_complete          10059c70 f   interop.obj
 0001:0005a550       _sqlite3_stmt_status       1005b550 f   interop.obj
 0001:0005aeb0       _sqlite3_backup_pagecount  1005beb0 f   interop.obj
 0001:0005aef0       _sqlite3_backup_remaining  1005bef0 f   interop.obj
 0001:0005c7c0       _sqlite3_win32_write_debug 1005d7c0 f   interop.obj
 0001:0005c930       _sqlite3_vmprintf          1005d930 f   interop.obj
 0001:0005cae0       _sqlite3_vfs_register      1005dae0 f   interop.obj
 0001:0005cb90       _sqlite3_db_status         1005db90 f   interop.obj
 0001:0005cf90       _sqlite3_status64          1005df90 f   interop.obj
 0001:0005d060       _sqlite3_compileoption_used 1005e060 f   interop.obj
 0001:0005d200       _sqlite3_db_readonly       1005e200 f   interop.obj
 0001:0005d260       _sqlite3_db_filename       1005e260 f   interop.obj
 0001:0005d2d0       _sqlite3_file_control      1005e2d0 f   interop.obj
 0001:0005d3e0       _sqlite3_extended_result_codes 1005e3e0 f   interop.obj
 0001:0005d460       _sqlite3_get_autocommit    1005e460 f   interop.obj
 0001:0005d4b0       _sqlite3_collation_needed16 1005e4b0 f   interop.obj
 0001:0005d540       _sqlite3_collation_needed  1005e540 f   interop.obj
 0001:0005d5d0       _sqlite3_create_collation16 1005e5d0 f   interop.obj
 0001:0005d6a0       _sqlite3_create_collation_v2 1005e6a0 f   interop.obj
 0001:0005d750       _sqlite3_create_collation  1005e750 f   interop.obj
 0001:0005d770       _sqlite3_limit             1005e770 f   interop.obj
 0001:0005d7e0       _sqlite3_extended_errcode  1005e7e0 f   interop.obj
 0001:0005d860       _sqlite3_errcode           1005e860 f   interop.obj
 0001:0005d8e0       _sqlite3_errmsg16          1005e8e0 f   interop.obj
 0001:0005d9c0       _sqlite3_errmsg            1005e9c0 f   interop.obj
 0001:0005dad0       _sqlite3_wal_hook          1005ead0 f   interop.obj
 0001:0005db50       _sqlite3_rollback_hook     1005eb50 f   interop.obj
 0001:0005dbd0       _sqlite3_update_hook       1005ebd0 f   interop.obj
 0001:0005dc50       _sqlite3_commit_hook       1005ec50 f   interop.obj
 0001:0005dcd0       _sqlite3_profile           1005ecd0 f   interop.obj
 0001:0005dd50       _sqlite3_trace_v2          1005ed50 f   interop.obj
 0001:0005dde0       _sqlite3_trace             1005ede0 f   interop.obj
 0001:0005de70       _sqlite3_create_function16 1005ee70 f   interop.obj
 0001:0005df50       _sqlite3_create_function_v2 1005ef50 f   interop.obj
 0001:0005e050       _sqlite3_create_function   1005f050 f   interop.obj
 0001:0005e080       _sqlite3_interrupt         1005f080 f   interop.obj
 0001:0005e0d0       _sqlite3_progress_handler  1005f0d0 f   interop.obj
 0001:0005e170       _sqlite3_busy_handler      1005f170 f   interop.obj
 0001:0005e200       _sqlite3_total_changes     1005f200 f   interop.obj
 0001:0005e250       _sqlite3_changes           1005f250 f   interop.obj
 0001:0005e2a0       _sqlite3_last_insert_rowid 1005f2a0 f   interop.obj
 0001:0005e2f0       _sqlite3_db_release_memory 1005f2f0 f   interop.obj
 0001:0005e3a0       _sqlite3_db_mutex          1005f3a0 f   interop.obj
 0001:0005f1c0       _sqlite3_vtab_config       100601c0 f   interop.obj
 0001:0005f280       _sqlite3_vtab_on_conflict  10060280 f   interop.obj
 0001:0005f2d0       _sqlite3_create_module_v2  100602d0 f   interop.obj
 0001:0005f330       _sqlite3_create_module     10060330 f   interop.obj
 0001:00061180       _sqlite3_set_authorizer    10062180 f   interop.obj
 0001:00061bb0       _sqlite3_next_stmt         10062bb0 f   interop.obj
 0001:00061db0       _sqlite3_column_origin_name16 10062db0 f   interop.obj
 0001:00061dd0       _sqlite3_column_origin_name 10062dd0 f   interop.obj
 0001:00061df0       _sqlite3_column_table_name16 10062df0 f   interop.obj
 0001:00061e10       _sqlite3_column_table_name 10062e10 f   interop.obj
 0001:00061e30       _sqlite3_column_database_name16 10062e30 f   interop.obj
 0001:00061e50       _sqlite3_column_database_name 10062e50 f   interop.obj
 0001:00061e70       _sqlite3_column_decltype16 10062e70 f   interop.obj
 0001:00061e90       _sqlite3_column_decltype   10062e90 f   interop.obj
 0001:00061eb0       _sqlite3_column_name16     10062eb0 f   interop.obj
 0001:00061ed0       _sqlite3_column_name       10062ed0 f   interop.obj
 0001:000637e0       _sqlite3_mprintf           100647e0 f   interop.obj
 0001:00063810       _sqlite3_memory_highwater  10064810 f   interop.obj
 0001:00063840       _sqlite3_memory_used       10064840 f   interop.obj
 0001:00063a10       _sqlite3_status            10064a10 f   interop.obj
 0001:00063a90       _sqlite3_totype_init       10064a90 f   interop.obj
 0001:000649b0       _sqlite3_column_origin_name16_interop@12 100659b0 f   interop.obj
 0001:00064a10       _sqlite3_column_origin_name_interop@12 10065a10 f   interop.obj
 0001:00064a60       _sqlite3_column_table_name16_interop@12 10065a60 f   interop.obj
 0001:00064ac0       _sqlite3_column_table_name_interop@12 10065ac0 f   interop.obj
 0001:00064b10       _sqlite3_column_database_name16_interop@12 10065b10 f   interop.obj
 0001:00064b70       _sqlite3_column_database_name_interop@12 10065b70 f   interop.obj
 0001:00064bc0       _sqlite3_create_function_interop@36 10065bc0 f   interop.obj
 0001:00064c30       _sqlite3_memory_highwater_interop@8 10065c30 f   interop.obj
 0001:00064c70       _sqlite3_memory_used_interop@4 10065c70 f   interop.obj
 0001:00064cb0       _sqlite3_last_insert_rowid_interop@8 10065cb0 f   interop.obj
 0001:00064cd0       _sqlite3_column_decltype16_interop@12 10065cd0 f   interop.obj
 0001:00064d30       _sqlite3_column_decltype_interop@12 10065d30 f   interop.obj
 0001:00064d80       _sqlite3_column_name16_interop@12 10065d80 f   interop.obj
 0001:00064de0       _sqlite3_column_name_interop@12 10065de0 f   interop.obj
 0001:00064e30       _sqlite3_changes_interop@4 10065e30 f   interop.obj
 0001:00064e50       _sqlite3_errmsg_interop@8  10065e50 f   interop.obj
 0001:00065bb0       _sqlite3_busy_timeout      10066bb0 f   interop.obj
 0001:00065c30       _sqlite3_config            10066c30 f   interop.obj
 0001:00068670       _sqlite3_bind_zeroblob     10069670 f   interop.obj
 0001:000686c0       _sqlite3_bind_null         100696c0 f   interop.obj
 0001:00068700       _sqlite3_bind_int64        10069700 f   interop.obj
 0001:00068780       _sqlite3_bind_int          10069780 f   interop.obj
 0001:000687a0       _sqlite3_bind_double       100697a0 f   interop.obj
 0001:00069790       _sqlite3_os_init           1006a790 f   interop.obj
 0001:00069b20       _sqlite3_win32_reset_heap  1006ab20 f   interop.obj
 0001:0006a110       _sqlite3_bind_int64_interop@12 1006b110 f   interop.obj
 0001:0006a150       _sqlite3_bind_double_interop@12 1006b150 f   interop.obj
 0001:0006a260       _sqlite3_overload_function 1006b260 f   interop.obj
 0001:0006ba50       _sqlite3_load_extension    1006ca50 f   interop.obj
 0001:0006bee0       _sqlite3_bind_zeroblob64   1006cee0 f   interop.obj
 0001:0006bf60       _sqlite3_bind_text16       1006cf60 f   interop.obj
 0001:0006bf80       _sqlite3_bind_text64       1006cf80 f   interop.obj
 0001:0006bfe0       _sqlite3_bind_text         1006cfe0 f   interop.obj
 0001:0006c000       _sqlite3_bind_blob64       1006d000 f   interop.obj
 0001:0006c050       _sqlite3_bind_blob         1006d050 f   interop.obj
 0001:0006e2c0       _sqlite3_bind_value        1006f2c0 f   interop.obj
 0001:0006eae0       _sqlite3_wal_checkpoint_v2 1006fae0 f   interop.obj
 0001:0006ec00       _sqlite3_initialize        1006fc00 f   interop.obj
 0001:0006ee20       _sqlite3_complete16        1006fe20 f   interop.obj
 0001:0006fb20       _sqlite3_reset_auto_extension 10070b20 f   interop.obj
 0001:0006fb90       _sqlite3_auto_extension    10070b90 f   interop.obj
 0001:00071b30       _sqlite3_win32_set_directory 10072b30 f   interop.obj
 0001:00071ba0       _sqlite3_win32_utf8_to_mbcs_v2 10072ba0 f   interop.obj
 0001:00071c20       _sqlite3_win32_utf8_to_mbcs 10072c20 f   interop.obj
 0001:00071ca0       _sqlite3_win32_mbcs_to_utf8_v2 10072ca0 f   interop.obj
 0001:00071d20       _sqlite3_win32_mbcs_to_utf8 10072d20 f   interop.obj
 0001:00071da0       _sqlite3_win32_unicode_to_utf8 10072da0 f   interop.obj
 0001:00071df0       _sqlite3_win32_utf8_to_unicode 10072df0 f   interop.obj
 0001:00071e40       _sqlite3_realloc           10072e40 f   interop.obj
 0001:00071e80       _sqlite3_malloc            10072e80 f   interop.obj
 0001:00071eb0       _sqlite3_soft_heap_limit64 10072eb0 f   interop.obj
 0001:00071fb0       _sqlite3_mutex_alloc       10072fb0 f   interop.obj
 0001:00078c10       _sqlite3_wal_checkpoint    10079c10 f   interop.obj
 0001:00078c70       _sqlite3_shutdown          10079c70 f   interop.obj
 0001:00079f40       _sqlite3_value_dup         1007af40 f   interop.obj
 0001:0007a860       _sqlite3_soft_heap_limit   1007b860 f   interop.obj
 0001:0007a960       _sqlite3_percentile_init   1007b960 f   interop.obj
 0001:0007cb80       _sqlite3_create_disposable_module 1007db80 f   interop.obj
 0001:0007ce20       _sqlite3_create_disposable_module_interop@112 1007de20 f   interop.obj
 0001:0007cfc0       _sqlite3CodecSizeChange    1007dfc0 f   interop.obj
 0001:0007ecb0       _sqlite3_wal_autocheckpoint 1007fcb0 f   interop.obj
 0001:000830a0       _sqlite3CodecAttach        100840a0 f   interop.obj
 0001:00083190       _RegisterExtensionFunctions 10084190 f   interop.obj
 0001:00083290       _sqlite3_rtree_query_callback 10084290 f   interop.obj
 0001:00083300       _sqlite3_rtree_geometry_callback 10084300 f   interop.obj
 0001:00086390       _sqlite3_key_v2            10087390 f   interop.obj
 0001:00088650       _sqlite3re_compile         10089650 f   interop.obj
 0001:00089720       _sqlite3_key               1008a720 f   interop.obj
 0001:000898f0       _sqlite3_db_cacheflush     1008a8f0 f   interop.obj
 0001:0008b1f0       _sqlite3Json1Init          1008c1f0 f   interop.obj
 0001:0008c020       _sqlite3_regexp_init       1008d020 f   interop.obj
 0001:0008c050       _sqlite3_json_init         1008d050 f   interop.obj
 0001:0008c6a0       _sqlite3_backup_init       1008d6a0 f   interop.obj
 0001:00090820       _sqlite3_backup_finish     10091820 f   interop.obj
 0001:00091100       _sqlite3_cursor_rowid_interop@12 10092100 f   interop.obj
 0001:000911c0       _sqlite3_backup_finish_interop@4 100921c0 f   interop.obj
 0001:000911e0       _sqlite3_close_v2          100921e0 f   interop.obj
 0001:00091200       _sqlite3_close             10092200 f   interop.obj
 0001:00091e30       _sqlite3_backup_step       10092e30 f   interop.obj
 0001:000923d0       _sqlite3_close_interop@4   100933d0 f   interop.obj
 0001:000923f0       _sqlite3_rekey_v2          100933f0 f   interop.obj
 0001:00092840       _sqlite3_rekey             10093840 f   interop.obj
 0001:00092c80       _sqlite3_reset             10093c80 f   interop.obj
 0001:00092f60       _sqlite3_reset_interop@4   10093f60 f   interop.obj
 0001:00093040       _sqlite3_exec              10094040 f   interop.obj
 0001:00093570       _sqlite3_finalize          10094570 f   interop.obj
 0001:00093800       _sqlite3_finalize_interop@4 10094800 f   interop.obj
 0001:00093d60       _sqlite3_get_table         10094d60 f   interop.obj
 0001:000944e0       _sqlite3_blob_write        100954e0 f   interop.obj
 0001:00094500       _sqlite3_blob_read         10095500 f   interop.obj
 0001:00094520       _sqlite3_blob_close        10095520 f   interop.obj
 0001:00094700       _sqlite3_blob_close_interop@4 10095700 f   interop.obj
 0001:0009e050       _sqlite3_table_column_metadata 1009f050 f   interop.obj
 0001:0009edf0       _sqlite3_table_column_metadata_interop@44 1009fdf0 f   interop.obj
 0001:000affb0       _sqlite3_declare_vtab      100b0fb0 f   interop.obj
 0001:000b0fe0       _sqlite3_step              100b1fe0 f   interop.obj
 0001:000b43b0       _sqlite3_prepare16_v2      100b53b0 f   interop.obj
 0001:000b43d0       _sqlite3_prepare16         100b53d0 f   interop.obj
 0001:000b4ee0       _sqlite3_prepare16_interop@24 100b5ee0 f   interop.obj
 0001:000b73f0       _sqlite3_blob_reopen       100b83f0 f   interop.obj
 0001:000b74c0       _sqlite3_blob_open         100b84c0 f   interop.obj
 0001:000c1b30       _sqlite3_open16            100c2b30 f   interop.obj
 0001:000c1c30       _sqlite3_open_v2           100c2c30 f   interop.obj
 0001:000c1c50       _sqlite3_open              100c2c50 f   interop.obj
 0001:000c24d0       _sqlite3_open_interop@20   100c34d0 f   interop.obj
 0001:000c3810       _sqlite3_open16_interop@20 100c4810 f   interop.obj
 0001:000c94e0       _sqlite3_fts5_init         100ca4e0 f   interop.obj
 0001:000c94f0       _sqlite3_fts_init          100ca4f0 f   interop.obj
 0001:000c9500       __ftoui3                   100ca500 f   MSVCRT:_ftol3_.obj
 0001:000c950f       __ftoul3                   100ca50f f   MSVCRT:_ftol3_.obj
 0001:000c951e       __ftol3                    100ca51e f   MSVCRT:_ftol3_.obj
 0001:000c952b       __ftol3_NaN                100ca52b f   MSVCRT:_ftol3_.obj
 0001:000c9543       __ftol3_work               100ca543 f   MSVCRT:_ftol3_.obj
 0001:000c95c9       __ftol3_common             100ca5c9 f   MSVCRT:_ftol3_.obj
 0001:000c968b       __ftol3_arg_error          100ca68b f   MSVCRT:_ftol3_.obj
 0001:000c969d       __ftol3_except             100ca69d f   MSVCRT:_ftol3_.obj
 0001:000c96e1       __dtoui3                   100ca6e1 f   MSVCRT:_ftol3_.obj
 0001:000c96f0       __dtoul3                   100ca6f0 f   MSVCRT:_ftol3_.obj
 0001:000c96ff       __dtol3                    100ca6ff f   MSVCRT:_ftol3_.obj
 0001:000c970c       __dtol3_NaN                100ca70c f   MSVCRT:_ftol3_.obj
 0001:000c9729       __dtol3_work               100ca729 f   MSVCRT:_ftol3_.obj
 0001:000c9810       __ultod3                   100ca810 f   MSVCRT:_ftol3_.obj
 0001:000c9850       __ltod3                    100ca850 f   MSVCRT:_ftol3_.obj
 0001:000c9880       __alldiv                   100ca880 f   MSVCRT:lldiv.obj
 0001:000c9930       __allshl                   100ca930 f   MSVCRT:llshl.obj
 0001:000c9950       __aulldiv                  100ca950 f   MSVCRT:ulldiv.obj
 0001:000c99c0       __allrem                   100ca9c0 f   MSVCRT:llrem.obj
 0001:000c9a80       __allmul                   100caa80 f   MSVCRT:llmul.obj
 0001:000c9ac0       __aullshr                  100caac0 f   MSVCRT:ullshr.obj
 0001:000c9ae0       __alldvrm                  100caae0 f   MSVCRT:lldvrm.obj
 0001:000c9bc0       __ftol2_sse                100cabc0 f   MSVCRT:_ftol2_.obj
 0001:000c9bc9       __ftol2_pentium4           100cabc9 f   MSVCRT:_ftol2_.obj
 0001:000c9bdc       __ftol2_sse_excpt          100cabdc f   MSVCRT:_ftol2_.obj
 0001:000c9c00       __ftol2                    100cac00 f   MSVCRT:_ftol2_.obj
 0001:000c9c80       __aullrem                  100cac80 f   MSVCRT:ullrem.obj
 0001:000c9d00       __aulldvrm                 100cad00 f   MSVCRT:ulldvrm.obj
 0001:000c9da0       __alloca_probe             100cada0 f   MSVCRT:chkstk.obj
 0001:000c9da0       __chkstk                   100cada0 f   MSVCRT:chkstk.obj
 0001:000c9dd0       __allshr                   100cadd0 f   MSVCRT:llshr.obj
 0001:000c9df2       _memcpy                    100cadf2 f   vcruntime:VCRUNTIME140.dll
 0001:000c9df8       __CItanh                   100cadf8 f   ucrt:api-ms-win-crt-math-l1-1-0.dll
 0001:000c9dfe       __libm_sse2_tan_precise    100cadfe f   ucrt:api-ms-win-crt-math-l1-1-0.dll
 0001:000c9e04       __CIatan2                  100cae04 f   ucrt:api-ms-win-crt-math-l1-1-0.dll
 0001:000c9e0a       _floor                     100cae0a f   ucrt:api-ms-win-crt-math-l1-1-0.dll
 0001:000c9e10       _ceil                      100cae10 f   ucrt:api-ms-win-crt-math-l1-1-0.dll
 0001:000c9e16       __libm_sse2_sqrt_precise   100cae16 f   ucrt:api-ms-win-crt-math-l1-1-0.dll
 0001:000c9e1c       __libm_sse2_pow_precise    100cae1c f   ucrt:api-ms-win-crt-math-l1-1-0.dll
 0001:000c9e22       __libm_sse2_exp_precise    100cae22 f   ucrt:api-ms-win-crt-math-l1-1-0.dll
 0001:000c9e28       __libm_sse2_log10_precise  100cae28 f   ucrt:api-ms-win-crt-math-l1-1-0.dll
 0001:000c9e2e       __libm_sse2_log_precise    100cae2e f   ucrt:api-ms-win-crt-math-l1-1-0.dll
 0001:000c9e34       __CIcosh                   100cae34 f   ucrt:api-ms-win-crt-math-l1-1-0.dll
 0001:000c9e3a       __CIsinh                   100cae3a f   ucrt:api-ms-win-crt-math-l1-1-0.dll
 0001:000c9e40       __libm_sse2_cos_precise    100cae40 f   ucrt:api-ms-win-crt-math-l1-1-0.dll
 0001:000c9e46       __libm_sse2_sin_precise    100cae46 f   ucrt:api-ms-win-crt-math-l1-1-0.dll
 0001:000c9e4c       __libm_sse2_atan_precise   100cae4c f   ucrt:api-ms-win-crt-math-l1-1-0.dll
 0001:000c9e52       __libm_sse2_asin_precise   100cae52 f   ucrt:api-ms-win-crt-math-l1-1-0.dll
 0001:000c9e58       __libm_sse2_acos_precise   100cae58 f   ucrt:api-ms-win-crt-math-l1-1-0.dll
 0001:000c9e5e       __except1                  100cae5e f   ucrt:api-ms-win-crt-math-l1-1-0.dll
 0001:000c9e64       __CorDllMain@12            100cae64 f   mscoree:mscoree.dll
 0002:00000000       __imp__CryptEncrypt@28     100cb000     advapi32:ADVAPI32.dll
 0002:00000004       __imp__CryptDestroyKey@4   100cb004     advapi32:ADVAPI32.dll
 0002:00000008       __imp__CryptAcquireContextW@20 100cb008     advapi32:ADVAPI32.dll
 0002:0000000c       __imp__CryptDuplicateKey@16 100cb00c     advapi32:ADVAPI32.dll
 0002:00000010       __imp__CryptDecrypt@24     100cb010     advapi32:ADVAPI32.dll
 0002:00000014       __imp__CryptCreateHash@20  100cb014     advapi32:ADVAPI32.dll
 0002:00000018       __imp__CryptDeriveKey@20   100cb018     advapi32:ADVAPI32.dll
 0002:0000001c       __imp__CryptHashData@16    100cb01c     advapi32:ADVAPI32.dll
 0002:00000020       __imp__CryptDestroyHash@4  100cb020     advapi32:ADVAPI32.dll
 0002:00000024       \177ADVAPI32_NULL_THUNK_DATA 100cb024     advapi32:ADVAPI32.dll
 0002:00000028       __imp__LockFile@20         100cb028     kernel32:KERNEL32.dll
 0002:0000002c       __imp__LeaveCriticalSection@4 100cb02c     kernel32:KERNEL32.dll
 0002:00000030       __imp__InitializeCriticalSection@4 100cb030     kernel32:KERNEL32.dll
 0002:00000034       __imp__SetFilePointer@16   100cb034     kernel32:KERNEL32.dll
 0002:00000038       __imp__GetFullPathNameA@16 100cb038     kernel32:KERNEL32.dll
 0002:0000003c       __imp__SetEndOfFile@4      100cb03c     kernel32:KERNEL32.dll
 0002:00000040       __imp__UnlockFileEx@20     100cb040     kernel32:KERNEL32.dll
 0002:00000044       __imp__GetTempPathW@8      100cb044     kernel32:KERNEL32.dll
 0002:00000048       __imp__CreateMutexW@12     100cb048     kernel32:KERNEL32.dll
 0002:0000004c       __imp__WaitForSingleObject@8 100cb04c     kernel32:KERNEL32.dll
 0002:00000050       __imp__CreateFileW@28      100cb050     kernel32:KERNEL32.dll
 0002:00000054       __imp__GetFileAttributesW@4 100cb054     kernel32:KERNEL32.dll
 0002:00000058       __imp__GetCurrentThreadId@0 100cb058     kernel32:KERNEL32.dll
 0002:0000005c       __imp__UnmapViewOfFile@4   100cb05c     kernel32:KERNEL32.dll
 0002:00000060       __imp__HeapValidate@12     100cb060     kernel32:KERNEL32.dll
 0002:00000064       __imp__HeapSize@12         100cb064     kernel32:KERNEL32.dll
 0002:00000068       __imp__MultiByteToWideChar@24 100cb068     kernel32:KERNEL32.dll
 0002:0000006c       __imp__Sleep@4             100cb06c     kernel32:KERNEL32.dll
 0002:00000070       __imp__GetTempPathA@8      100cb070     kernel32:KERNEL32.dll
 0002:00000074       __imp__FormatMessageW@28   100cb074     kernel32:KERNEL32.dll
 0002:00000078       __imp__GetDiskFreeSpaceA@20 100cb078     kernel32:KERNEL32.dll
 0002:0000007c       __imp__GetLastError@0      100cb07c     kernel32:KERNEL32.dll
 0002:00000080       __imp__GetFileAttributesA@4 100cb080     kernel32:KERNEL32.dll
 0002:00000084       __imp__GetFileAttributesExW@12 100cb084     kernel32:KERNEL32.dll
 0002:00000088       __imp__OutputDebugStringW@4 100cb088     kernel32:KERNEL32.dll
 0002:0000008c       __imp__FlushViewOfFile@8   100cb08c     kernel32:KERNEL32.dll
 0002:00000090       __imp__CreateFileA@28      100cb090     kernel32:KERNEL32.dll
 0002:00000094       __imp__LoadLibraryA@4      100cb094     kernel32:KERNEL32.dll
 0002:00000098       __imp__WaitForSingleObjectEx@12 100cb098     kernel32:KERNEL32.dll
 0002:0000009c       __imp__OutputDebugStringA@4 100cb09c     kernel32:KERNEL32.dll
 0002:000000a0       __imp__DeleteFileW@4       100cb0a0     kernel32:KERNEL32.dll
 0002:000000a4       __imp__HeapReAlloc@16      100cb0a4     kernel32:KERNEL32.dll
 0002:000000a8       __imp__CloseHandle@4       100cb0a8     kernel32:KERNEL32.dll
 0002:000000ac       __imp__GetSystemInfo@4     100cb0ac     kernel32:KERNEL32.dll
 0002:000000b0       __imp__LoadLibraryW@4      100cb0b0     kernel32:KERNEL32.dll
 0002:000000b4       __imp__HeapAlloc@12        100cb0b4     kernel32:KERNEL32.dll
 0002:000000b8       __imp__HeapCompact@8       100cb0b8     kernel32:KERNEL32.dll
 0002:000000bc       __imp__HeapDestroy@4       100cb0bc     kernel32:KERNEL32.dll
 0002:000000c0       __imp__UnlockFile@20       100cb0c0     kernel32:KERNEL32.dll
 0002:000000c4       __imp__GetProcAddress@8    100cb0c4     kernel32:KERNEL32.dll
 0002:000000c8       __imp__CreateFileMappingA@24 100cb0c8     kernel32:KERNEL32.dll
 0002:000000cc       __imp__LocalFree@4         100cb0cc     kernel32:KERNEL32.dll
 0002:000000d0       __imp__LockFileEx@24       100cb0d0     kernel32:KERNEL32.dll
 0002:000000d4       __imp__GetFileSize@8       100cb0d4     kernel32:KERNEL32.dll
 0002:000000d8       __imp__DeleteCriticalSection@4 100cb0d8     kernel32:KERNEL32.dll
 0002:000000dc       __imp__GetCurrentProcessId@0 100cb0dc     kernel32:KERNEL32.dll
 0002:000000e0       __imp__GetProcessHeap@0    100cb0e0     kernel32:KERNEL32.dll
 0002:000000e4       __imp__SystemTimeToFileTime@8 100cb0e4     kernel32:KERNEL32.dll
 0002:000000e8       __imp__FreeLibrary@4       100cb0e8     kernel32:KERNEL32.dll
 0002:000000ec       __imp__WideCharToMultiByte@32 100cb0ec     kernel32:KERNEL32.dll
 0002:000000f0       __imp__GetSystemTimeAsFileTime@4 100cb0f0     kernel32:KERNEL32.dll
 0002:000000f4       __imp__GetSystemTime@4     100cb0f4     kernel32:KERNEL32.dll
 0002:000000f8       __imp__FormatMessageA@28   100cb0f8     kernel32:KERNEL32.dll
 0002:000000fc       __imp__CreateFileMappingW@24 100cb0fc     kernel32:KERNEL32.dll
 0002:00000100       __imp__MapViewOfFile@20    100cb100     kernel32:KERNEL32.dll
 0002:00000104       __imp__QueryPerformanceCounter@4 100cb104     kernel32:KERNEL32.dll
 0002:00000108       __imp__GetTickCount@0      100cb108     kernel32:KERNEL32.dll
 0002:0000010c       __imp__FlushFileBuffers@4  100cb10c     kernel32:KERNEL32.dll
 0002:00000110       __imp__GetDiskFreeSpaceW@20 100cb110     kernel32:KERNEL32.dll
 0002:00000114       __imp__WriteFile@20        100cb114     kernel32:KERNEL32.dll
 0002:00000118       __imp__GetFullPathNameW@16 100cb118     kernel32:KERNEL32.dll
 0002:0000011c       __imp__EnterCriticalSection@4 100cb11c     kernel32:KERNEL32.dll
 0002:00000120       __imp__HeapFree@12         100cb120     kernel32:KERNEL32.dll
 0002:00000124       __imp__HeapCreate@12       100cb124     kernel32:KERNEL32.dll
 0002:00000128       __imp__AreFileApisANSI@0   100cb128     kernel32:KERNEL32.dll
 0002:0000012c       __imp__TryEnterCriticalSection@4 100cb12c     kernel32:KERNEL32.dll
 0002:00000130       __imp__ReadFile@20         100cb130     kernel32:KERNEL32.dll
 0002:00000134       __imp__DeleteFileA@4       100cb134     kernel32:KERNEL32.dll
 0002:00000138       __imp__IsDebuggerPresent@0 100cb138     kernel32:KERNEL32.dll
 0002:0000013c       __imp__InitializeSListHead@4 100cb13c     kernel32:KERNEL32.dll
 0002:00000140       __imp__DisableThreadLibraryCalls@4 100cb140     kernel32:KERNEL32.dll
 0002:00000144       __imp__IsProcessorFeaturePresent@4 100cb144     kernel32:KERNEL32.dll
 0002:00000148       __imp__TerminateProcess@8  100cb148     kernel32:KERNEL32.dll
 0002:0000014c       __imp__GetCurrentProcess@0 100cb14c     kernel32:KERNEL32.dll
 0002:00000150       __imp__SetUnhandledExceptionFilter@4 100cb150     kernel32:KERNEL32.dll
 0002:00000154       __imp__UnhandledExceptionFilter@4 100cb154     kernel32:KERNEL32.dll
 0002:00000158       \177KERNEL32_NULL_THUNK_DATA 100cb158     kernel32:KERNEL32.dll
 0002:0000015c       __imp___except_handler4_common 100cb15c     vcruntime:VCRUNTIME140.dll
 0002:00000160       __imp__memset              100cb160     vcruntime:VCRUNTIME140.dll
 0002:00000164       __imp____std_type_info_destroy_list 100cb164     vcruntime:VCRUNTIME140.dll
 0002:00000168       __imp__memmove             100cb168     vcruntime:VCRUNTIME140.dll
 0002:0000016c       __imp__memcpy              100cb16c     vcruntime:VCRUNTIME140.dll
 0002:00000170       \177VCRUNTIME140_NULL_THUNK_DATA 100cb170     vcruntime:VCRUNTIME140.dll
 0002:00000174       __imp__calloc              100cb174     ucrt:api-ms-win-crt-heap-l1-1-0.dll
 0002:00000178       __imp__free                100cb178     ucrt:api-ms-win-crt-heap-l1-1-0.dll
 0002:0000017c       \177api-ms-win-crt-heap-l1-1-0_NULL_THUNK_DATA 100cb17c     ucrt:api-ms-win-crt-heap-l1-1-0.dll
 0002:00000180       __imp___CIsinh             100cb180     ucrt:api-ms-win-crt-math-l1-1-0.dll
 0002:00000184       __imp___libm_sse2_cos_precise 100cb184     ucrt:api-ms-win-crt-math-l1-1-0.dll
 0002:00000188       __imp__acosh               100cb188     ucrt:api-ms-win-crt-math-l1-1-0.dll
 0002:0000018c       __imp__asinh               100cb18c     ucrt:api-ms-win-crt-math-l1-1-0.dll
 0002:00000190       __imp___CIatan2            100cb190     ucrt:api-ms-win-crt-math-l1-1-0.dll
 0002:00000194       __imp___libm_sse2_tan_precise 100cb194     ucrt:api-ms-win-crt-math-l1-1-0.dll
 0002:00000198       __imp___CItanh             100cb198     ucrt:api-ms-win-crt-math-l1-1-0.dll
 0002:0000019c       __imp__ceil                100cb19c     ucrt:api-ms-win-crt-math-l1-1-0.dll
 0002:000001a0       __imp___libm_sse2_sin_precise 100cb1a0     ucrt:api-ms-win-crt-math-l1-1-0.dll
 0002:000001a4       __imp___libm_sse2_atan_precise 100cb1a4     ucrt:api-ms-win-crt-math-l1-1-0.dll
 0002:000001a8       __imp___libm_sse2_asin_precise 100cb1a8     ucrt:api-ms-win-crt-math-l1-1-0.dll
 0002:000001ac       __imp___libm_sse2_acos_precise 100cb1ac     ucrt:api-ms-win-crt-math-l1-1-0.dll
 0002:000001b0       __imp___except1            100cb1b0     ucrt:api-ms-win-crt-math-l1-1-0.dll
 0002:000001b4       __imp__floor               100cb1b4     ucrt:api-ms-win-crt-math-l1-1-0.dll
 0002:000001b8       __imp___libm_sse2_pow_precise 100cb1b8     ucrt:api-ms-win-crt-math-l1-1-0.dll
 0002:000001bc       __imp___libm_sse2_sqrt_precise 100cb1bc     ucrt:api-ms-win-crt-math-l1-1-0.dll
 0002:000001c0       __imp__atanh               100cb1c0     ucrt:api-ms-win-crt-math-l1-1-0.dll
 0002:000001c4       __imp___libm_sse2_exp_precise 100cb1c4     ucrt:api-ms-win-crt-math-l1-1-0.dll
 0002:000001c8       __imp___CIcosh             100cb1c8     ucrt:api-ms-win-crt-math-l1-1-0.dll
 0002:000001cc       __imp___libm_sse2_log_precise 100cb1cc     ucrt:api-ms-win-crt-math-l1-1-0.dll
 0002:000001d0       __imp___libm_sse2_log10_precise 100cb1d0     ucrt:api-ms-win-crt-math-l1-1-0.dll
 0002:000001d4       \177api-ms-win-crt-math-l1-1-0_NULL_THUNK_DATA 100cb1d4     ucrt:api-ms-win-crt-math-l1-1-0.dll
 0002:000001d8       __imp___beginthreadex      100cb1d8     ucrt:api-ms-win-crt-runtime-l1-1-0.dll
 0002:000001dc       __imp___cexit              100cb1dc     ucrt:api-ms-win-crt-runtime-l1-1-0.dll
 0002:000001e0       __imp___endthreadex        100cb1e0     ucrt:api-ms-win-crt-runtime-l1-1-0.dll
 0002:000001e4       __imp___crt_atexit         100cb1e4     ucrt:api-ms-win-crt-runtime-l1-1-0.dll
 0002:000001e8       __imp___execute_onexit_table 100cb1e8     ucrt:api-ms-win-crt-runtime-l1-1-0.dll
 0002:000001ec       __imp___register_onexit_function 100cb1ec     ucrt:api-ms-win-crt-runtime-l1-1-0.dll
 0002:000001f0       __imp___initialize_onexit_table 100cb1f0     ucrt:api-ms-win-crt-runtime-l1-1-0.dll
 0002:000001f4       __imp___initialize_narrow_environment 100cb1f4     ucrt:api-ms-win-crt-runtime-l1-1-0.dll
 0002:000001f8       __imp___configure_narrow_argv 100cb1f8     ucrt:api-ms-win-crt-runtime-l1-1-0.dll
 0002:000001fc       __imp___seh_filter_dll     100cb1fc     ucrt:api-ms-win-crt-runtime-l1-1-0.dll
 0002:00000200       __imp___initterm_e         100cb200     ucrt:api-ms-win-crt-runtime-l1-1-0.dll
 0002:00000204       __imp___initterm           100cb204     ucrt:api-ms-win-crt-runtime-l1-1-0.dll
 0002:00000208       __imp__strerror            100cb208     ucrt:api-ms-win-crt-runtime-l1-1-0.dll
 0002:0000020c       __imp___errno              100cb20c     ucrt:api-ms-win-crt-runtime-l1-1-0.dll
 0002:00000210       \177api-ms-win-crt-runtime-l1-1-0_NULL_THUNK_DATA 100cb210     ucrt:api-ms-win-crt-runtime-l1-1-0.dll
 0002:00000214       __imp__toupper             100cb214     ucrt:api-ms-win-crt-string-l1-1-0.dll
 0002:00000218       __imp__tolower             100cb218     ucrt:api-ms-win-crt-string-l1-1-0.dll
 0002:0000021c       __imp__isalpha             100cb21c     ucrt:api-ms-win-crt-string-l1-1-0.dll
 0002:00000220       __imp__strncpy             100cb220     ucrt:api-ms-win-crt-string-l1-1-0.dll
 0002:00000224       __imp__isblank             100cb224     ucrt:api-ms-win-crt-string-l1-1-0.dll
 0002:00000228       __imp__strncmp             100cb228     ucrt:api-ms-win-crt-string-l1-1-0.dll
 0002:0000022c       \177api-ms-win-crt-string-l1-1-0_NULL_THUNK_DATA 100cb22c     ucrt:api-ms-win-crt-string-l1-1-0.dll
 0002:00000230       __imp___localtime64_s      100cb230     ucrt:api-ms-win-crt-time-l1-1-0.dll
 0002:00000234       \177api-ms-win-crt-time-l1-1-0_NULL_THUNK_DATA 100cb234     ucrt:api-ms-win-crt-time-l1-1-0.dll
 0002:00000238       __imp__qsort               100cb238     ucrt:api-ms-win-crt-utility-l1-1-0.dll
 0002:0000023c       __imp__rand_s              100cb23c     ucrt:api-ms-win-crt-utility-l1-1-0.dll
 0002:00000240       \177api-ms-win-crt-utility-l1-1-0_NULL_THUNK_DATA 100cb240     ucrt:api-ms-win-crt-utility-l1-1-0.dll
 0002:00000244       __imp___CorDllMain@12      100cb244     mscoree:mscoree.dll
 0002:00000248       \177mscoree_NULL_THUNK_DATA 100cb248     mscoree:mscoree.dll
 0002:0000024c       ___guard_check_icall_fptr  100cb24c     MSVCRT:guard_support.obj
 0002:00000250       ___xc_a                    100cb250     MSVCRT:initializers.obj
 0002:00000254       ___xc_z                    100cb254     MSVCRT:initializers.obj
 0002:00000258       ___xi_a                    100cb258     MSVCRT:initializers.obj
 0002:0000025c       ___xi_z                    100cb25c     MSVCRT:initializers.obj
 0002:00000260       ___xp_a                    100cb260     MSVCRT:initializers.obj
 0002:00000264       ___xp_z                    100cb264     MSVCRT:initializers.obj
 0002:00000268       ___xt_a                    100cb268     MSVCRT:initializers.obj
 0002:0000026c       ___xt_z                    100cb26c     MSVCRT:initializers.obj
 0002:00000278       __pDefaultRawDllMain       100cb278     MSVCRT:dll_dllmain.obj
 0002:00000278       __pRawDllMain              100cb278     MSVCRT:dll_dllmain.obj
 0002:0000027c       ??_C@_01GBGANLPD@0?$AA@    100cb27c     interop.obj
 0002:00000280       ??_C@_01HIHLOKLC@1?$AA@    100cb280     interop.obj
 0002:00000284       ??_C@_0BD@CIAIDBEM@COMPILER?$DNmsvc?91900?$AA@ 100cb284     interop.obj
 0002:00000298       ??_C@_0BB@NKOFIICJ@ENABLE_API_ARMOR?$AA@ 100cb298     interop.obj
 0002:000002ac       ??_C@_0BH@CMJLKIMD@ENABLE_COLUMN_METADATA?$AA@ 100cb2ac     interop.obj
 0002:000002c4       ??_C@_0BD@KNIHDNAP@ENABLE_DBSTAT_VTAB?$AA@ 100cb2c4     interop.obj
 0002:000002d8       ??_C@_0M@LFFMHLBN@ENABLE_FTS3?$AA@ 100cb2d8     interop.obj
 0002:000002e4       ??_C@_0BG@DOKPBAOP@ENABLE_LOAD_EXTENSION?$AA@ 100cb2e4     interop.obj
 0002:000002fc       ??_C@_0BJ@LLLBHPOM@ENABLE_MEMORY_MANAGEMENT?$AA@ 100cb2fc     interop.obj
 0002:00000318       ??_C@_0N@JODKLIOI@ENABLE_RTREE?$AA@ 100cb318     interop.obj
 0002:00000328       ??_C@_0N@DMAKBCMM@ENABLE_STAT4?$AA@ 100cb328     interop.obj
 0002:00000338       ??_C@_09LMNJIBDP@HAS_CODEC?$AA@ 100cb338     interop.obj
 0002:00000344       ??_C@_07FIPCPJFC@SOUNDEX?$AA@ 100cb344     interop.obj
 0002:0000034c       ??_C@_0N@HEAGAILC@THREADSAFE?$DN1?$AA@ 100cb34c     interop.obj
 0002:0000035c       ??_C@_0N@KPAIEOFP@WIN32_MALLOC?$AA@ 100cb35c     interop.obj
 0002:0000036c       ??_C@_07OGLCFANK@SQLITE_?$AA@ 100cb36c     interop.obj
 0002:00000374       ??_C@_07DNDIJFOK@20b?320e?$AA@ 100cb374     interop.obj
 0002:0000037c       ??_C@_07PGGEEGEP@20c?320e?$AA@ 100cb37c     interop.obj
 0002:00000384       ??_C@_03LIHIGKLL@20e?$AA@  100cb384     interop.obj
 0002:00000388       ??_C@_0M@FJDHLCLG@40f?921a?921d?$AA@ 100cb388     interop.obj
 0002:00000394       ??_C@_03CGLHMDPP@now?$AA@  100cb394     interop.obj
 0002:00000398       ??_C@_0BH@HEILFFIJ@local?5time?5unavailable?$AA@ 100cb398     interop.obj
 0002:000003b0       ??_C@_09EKBOCLDN@localtime?$AA@ 100cb3b0     interop.obj
 0002:000003bc       ??_C@_09KNIMKLBK@unixepoch?$AA@ 100cb3bc     interop.obj
 0002:000003c8       ??_C@_03JPHCIIKF@utc?$AA@  100cb3c8     interop.obj
 0002:000003cc       ??_C@_08IPAOEBNP@weekday?5?$AA@ 100cb3cc     interop.obj
 0002:000003d8       ??_C@_09CABLEOFK@start?5of?5?$AA@ 100cb3d8     interop.obj
 0002:000003e4       ??_C@_05MEBAADFH@month?$AA@ 100cb3e4     interop.obj
 0002:000003ec       ??_C@_04JFPLDHAO@year?$AA@ 100cb3ec     interop.obj
 0002:000003f4       ??_C@_03NNBHCDBP@day?$AA@  100cb3f4     interop.obj
 0002:000003f8       ??_C@_04LMOJGCPE@hour?$AA@ 100cb3f8     interop.obj
 0002:00000400       ??_C@_06JGJIJFNK@minute?$AA@ 100cb400     interop.obj
 0002:00000408       ??_C@_06BJCFNGJP@second?$AA@ 100cb408     interop.obj
 0002:00000410       ??_C@_0BO@NGNOHJIK@?$CF04d?9?$CF02d?9?$CF02d?5?$CF02d?3?$CF02d?3?$CF02d?$AA@ 100cb410     interop.obj
 0002:00000430       ??_C@_0P@PLMNPDMB@?$CF02d?3?$CF02d?3?$CF02d?$AA@ 100cb430     interop.obj
 0002:00000440       ??_C@_0P@MCDGMPHH@?$CF04d?9?$CF02d?9?$CF02d?$AA@ 100cb440     interop.obj
 0002:00000450       ??_C@_04OGKJMPGK@?$CF02d?$AA@ 100cb450     interop.obj
 0002:00000458       ??_C@_06IAGKDDNE@?$CF06?43f?$AA@ 100cb458     interop.obj
 0002:00000460       ??_C@_04OHGLKFFN@?$CF03d?$AA@ 100cb460     interop.obj
 0002:00000468       ??_C@_05CFGAKADK@?$CF?416g?$AA@ 100cb468     interop.obj
 0002:00000470       ??_C@_04BFAHMMK@?$CFlld?$AA@ 100cb470     interop.obj
 0002:00000478       ??_C@_04OCCELDNI@?$CF04d?$AA@ 100cb478     interop.obj
 0002:00000480       ??_C@_09BPOICPEH@julianday?$AA@ 100cb480     interop.obj
 0002:0000048c       ??_C@_04JNIHBGGH@date?$AA@ 100cb48c     interop.obj
 0002:00000494       ??_C@_04CLCEDBPF@time?$AA@ 100cb494     interop.obj
 0002:0000049c       ??_C@_08FGNPMIBK@datetime?$AA@ 100cb49c     interop.obj
 0002:000004a8       ??_C@_08EPGBJPHJ@strftime?$AA@ 100cb4a8     interop.obj
 0002:000004b4       ??_C@_0N@IPDKEGPB@current_time?$AA@ 100cb4b4     interop.obj
 0002:000004c4       ??_C@_0BC@DDICBCEN@current_timestamp?$AA@ 100cb4c4     interop.obj
 0002:000004d8       ??_C@_0N@DJJJGBGD@current_date?$AA@ 100cb4d8     interop.obj
 0002:000004e8       ??_C@_01FGNFDNOH@?$CF?$AA@ 100cb4e8     interop.obj
 0002:000004ec       ??_C@_03ICJPMMHB@NaN?$AA@  100cb4ec     interop.obj
 0002:000004f0       ??_C@_00CNPNBAHC@?$AA@     100cb4f0     interop.obj
 0002:000004f4       ??_C@_04HIBGFPH@NULL?$AA@  100cb4f4     interop.obj
 0002:000004fc       ??_C@_06LHGEHABH@?$CINULL?$CJ?$AA@ 100cb4fc     interop.obj
 0002:00000504       ??_C@_01LFCBOECM@?4?$AA@   100cb504     interop.obj
 0002:00000510       ??_C@_0BD@FKIFACO@922337203685477580?$AA@ 100cb510     interop.obj
 0002:00000524       ??_C@_0CN@EOKIBNLJ@API?5call?5with?5?$CFs?5database?5connec@ 100cb524     interop.obj
 0002:00000554       ??_C@_08NFNJDBOK@unopened?$AA@ 100cb554     interop.obj
 0002:00000560       ??_C@_07MALOAKCI@invalid?$AA@ 100cb560     interop.obj
 0002:00000568       ??_C@_09OJILMLHM@Savepoint?$AA@ 100cb568     interop.obj
 0002:00000574       ??_C@_0L@BPKAOEDK@AutoCommit?$AA@ 100cb574     interop.obj
 0002:00000580       ??_C@_0M@MEGKBOMN@Transaction?$AA@ 100cb580     interop.obj
 0002:0000058c       ??_C@_0L@MGGJHFHJ@SorterNext?$AA@ 100cb58c     interop.obj
 0002:00000598       ??_C@_0L@GJHBGGGF@PrevIfOpen?$AA@ 100cb598     interop.obj
 0002:000005a4       ??_C@_0L@EPCJLBGC@NextIfOpen?$AA@ 100cb5a4     interop.obj
 0002:000005b0       ??_C@_04PHIBHIIF@Prev?$AA@ 100cb5b0     interop.obj
 0002:000005b8       ??_C@_04MDFHGMOB@Next?$AA@ 100cb5b8     interop.obj
 0002:000005c0       ??_C@_0L@IHLHABNJ@Checkpoint?$AA@ 100cb5c0     interop.obj
 0002:000005cc       ??_C@_0M@FAIDBMDK@JournalMode?$AA@ 100cb5cc     interop.obj
 0002:000005d8       ??_C@_06OBCEMCJB@Vacuum?$AA@ 100cb5d8     interop.obj
 0002:000005e0       ??_C@_07OKDOHLDO@VFilter?$AA@ 100cb5e0     interop.obj
 0002:000005e8       ??_C@_07NHABAPID@VUpdate?$AA@ 100cb5e8     interop.obj
 0002:000005f0       ??_C@_04BNGNMAK@Goto?$AA@  100cb5f0     interop.obj
 0002:000005f8       ??_C@_05DLHJCIPI@Gosub?$AA@ 100cb5f8     interop.obj
 0002:00000600       ??_C@_0O@OADCGMIE@InitCoroutine?$AA@ 100cb600     interop.obj
 0002:00000610       ??_C@_05LNDKIJIJ@Yield?$AA@ 100cb610     interop.obj
 0002:00000618       ??_C@_09LLJOBHN@MustBeInt?$AA@ 100cb618     interop.obj
 0002:00000624       ??_C@_04BIEPDJCB@Jump?$AA@ 100cb624     interop.obj
 0002:0000062c       ??_C@_03KNKIDPAC@Not?$AA@  100cb62c     interop.obj
 0002:00000630       ??_C@_04GKJMKNNB@Once?$AA@ 100cb630     interop.obj
 0002:00000638       ??_C@_02EMFCFMID@If?$AA@   100cb638     interop.obj
 0002:0000063c       ??_C@_05DALJIPE@IfNot?$AA@ 100cb63c     interop.obj
 0002:00000644       ??_C@_06DCDFCJIJ@SeekLT?$AA@ 100cb644     interop.obj
 0002:0000064c       ??_C@_06GBOMAKJJ@SeekLE?$AA@ 100cb64c     interop.obj
 0002:00000654       ??_C@_06GNLJOFHI@SeekGE?$AA@ 100cb654     interop.obj
 0002:0000065c       ??_C@_06DOGAMGGI@SeekGT?$AA@ 100cb65c     interop.obj
 0002:00000664       ??_C@_02GGHBPHGE@Or?$AA@   100cb664     interop.obj
 0002:00000668       ??_C@_03LOMLFHDC@And?$AA@  100cb668     interop.obj
 0002:0000066c       ??_C@_0L@MAHEJOGD@NoConflict?$AA@ 100cb66c     interop.obj
 0002:00000678       ??_C@_08MDBAGECB@NotFound?$AA@ 100cb678     interop.obj
 0002:00000684       ??_C@_05JDGHEPJG@Found?$AA@ 100cb684     interop.obj
 0002:0000068c       ??_C@_09KDEDFHKA@SeekRowid?$AA@ 100cb68c     interop.obj
 0002:00000698       ??_C@_09HMMGFEAA@NotExists?$AA@ 100cb698     interop.obj
 0002:000006a4       ??_C@_06NBBMPCN@IsNull?$AA@ 100cb6a4     interop.obj
 0002:000006ac       ??_C@_07HICACDPL@NotNull?$AA@ 100cb6ac     interop.obj
 0002:000006b4       ??_C@_02GCDABJMF@Ne?$AA@   100cb6b4     interop.obj
 0002:000006b8       ??_C@_02EAMLCBHB@Eq?$AA@   100cb6b8     interop.obj
 0002:000006bc       ??_C@_02DODIABFK@Gt?$AA@   100cb6bc     interop.obj
 0002:000006c0       ??_C@_02GBLEMNKL@Le?$AA@   100cb6c0     interop.obj
 0002:000006c4       ??_C@_02DCGNOOLL@Lt?$AA@   100cb6c4     interop.obj
 0002:000006c8       ??_C@_02GNOBCCEK@Ge?$AA@   100cb6c8     interop.obj
 0002:000006cc       ??_C@_04DKKAEHDH@Last?$AA@ 100cb6cc     interop.obj
 0002:000006d4       ??_C@_06PCNOCLJN@BitAnd?$AA@ 100cb6d4     interop.obj
 0002:000006dc       ??_C@_05BKBNAGEF@BitOr?$AA@ 100cb6dc     interop.obj
 0002:000006e4       ??_C@_09IIGOLNPP@ShiftLeft?$AA@ 100cb6e4     interop.obj
 0002:000006f0       ??_C@_0L@DHHFIOFJ@ShiftRight?$AA@ 100cb6f0     interop.obj
 0002:000006fc       ??_C@_03LDFMNCOE@Add?$AA@  100cb6fc     interop.obj
 0002:00000700       ??_C@_08DLEJPBEP@Subtract?$AA@ 100cb700     interop.obj
 0002:0000070c       ??_C@_08EOBDLMOI@Multiply?$AA@ 100cb70c     interop.obj
 0002:00000718       ??_C@_06JKMEHOIB@Divide?$AA@ 100cb718     interop.obj
 0002:00000720       ??_C@_09DPOHBCHJ@Remainder?$AA@ 100cb720     interop.obj
 0002:0000072c       ??_C@_06ODAFHOMO@Concat?$AA@ 100cb72c     interop.obj
 0002:00000734       ??_C@_0L@DMDDEDPI@SorterSort?$AA@ 100cb734     interop.obj
 0002:00000740       ??_C@_06OBLNEDKN@BitNot?$AA@ 100cb740     interop.obj
 0002:00000748       ??_C@_04DJANFKGA@Sort?$AA@ 100cb748     interop.obj
 0002:00000750       ??_C@_06MAOEIKCJ@Rewind?$AA@ 100cb750     interop.obj
 0002:00000758       ??_C@_05FANNJDOC@IdxLE?$AA@ 100cb758     interop.obj
 0002:00000760       ??_C@_05PFBFPBD@IdxGT?$AA@ 100cb760     interop.obj
 0002:00000768       ??_C@_05DAELAPC@IdxLT?$AA@ 100cb768     interop.obj
 0002:00000770       ??_C@_05FMIIHMAD@IdxGE?$AA@ 100cb770     interop.obj
 0002:00000778       ??_C@_0L@JELPJHIJ@RowSetRead?$AA@ 100cb778     interop.obj
 0002:00000784       ??_C@_0L@EOJPAHGG@RowSetTest?$AA@ 100cb784     interop.obj
 0002:00000790       ??_C@_07DOMMNIGK@Program?$AA@ 100cb790     interop.obj
 0002:00000798       ??_C@_08PNIKOKNB@FkIfZero?$AA@ 100cb798     interop.obj
 0002:000007a4       ??_C@_05PMIMCOJP@IfPos?$AA@ 100cb7a4     interop.obj
 0002:000007ac       ??_C@_09ELLCPLME@IfNotZero?$AA@ 100cb7ac     interop.obj
 0002:000007b8       ??_C@_0N@IDMANBEA@DecrJumpZero?$AA@ 100cb7b8     interop.obj
 0002:000007c8       ??_C@_0L@POHPJECG@IncrVacuum?$AA@ 100cb7c8     interop.obj
 0002:000007d4       ??_C@_05GOGANBLF@VNext?$AA@ 100cb7d4     interop.obj
 0002:000007dc       ??_C@_04LLJCPOLH@Init?$AA@ 100cb7dc     interop.obj
 0002:000007e4       ??_C@_06HCFIKKEA@Return?$AA@ 100cb7e4     interop.obj
 0002:000007ec       ??_C@_0N@FPMLICGC@EndCoroutine?$AA@ 100cb7ec     interop.obj
 0002:000007fc       ??_C@_0L@GIACEIKJ@HaltIfNull?$AA@ 100cb7fc     interop.obj
 0002:00000808       ??_C@_04NIFKAFLK@Halt?$AA@ 100cb808     interop.obj
 0002:00000810       ??_C@_07EDADKEAH@Integer?$AA@ 100cb810     interop.obj
 0002:00000818       ??_C@_05DPPJJBMK@Int64?$AA@ 100cb818     interop.obj
 0002:00000820       ??_C@_06ENNEIMBA@String?$AA@ 100cb820     interop.obj
 0002:00000828       ??_C@_04KHKKIIL@Null?$AA@  100cb828     interop.obj
 0002:00000830       ??_C@_08BAJALCJE@SoftNull?$AA@ 100cb830     interop.obj
 0002:0000083c       ??_C@_04HOFOMOEI@Blob?$AA@ 100cb83c     interop.obj
 0002:00000844       ??_C@_08DMMJCAML@Variable?$AA@ 100cb844     interop.obj
 0002:00000850       ??_C@_04LCANPIEP@Move?$AA@ 100cb850     interop.obj
 0002:00000858       ??_C@_04OPMHGHMB@Copy?$AA@ 100cb858     interop.obj
 0002:00000860       ??_C@_05BCDNELCG@SCopy?$AA@ 100cb860     interop.obj
 0002:00000868       ??_C@_07DBCPOOBM@IntCopy?$AA@ 100cb868     interop.obj
 0002:00000870       ??_C@_09BKHKEBMD@ResultRow?$AA@ 100cb870     interop.obj
 0002:0000087c       ??_C@_07MCEFGNMJ@CollSeq?$AA@ 100cb87c     interop.obj
 0002:00000884       ??_C@_09LAABOPGC@Function0?$AA@ 100cb884     interop.obj
 0002:00000890       ??_C@_08PHKOHANG@Function?$AA@ 100cb890     interop.obj
 0002:0000089c       ??_C@_06JHIJIKD@AddImm?$AA@ 100cb89c     interop.obj
 0002:000008a4       ??_C@_0N@KGPEGHPK@RealAffinity?$AA@ 100cb8a4     interop.obj
 0002:000008b4       ??_C@_04LIPANAOG@Cast?$AA@ 100cb8b4     interop.obj
 0002:000008bc       ??_C@_0M@LPEOJDB@Permutation?$AA@ 100cb8bc     interop.obj
 0002:000008c8       ??_C@_07MBOMJGGF@Compare?$AA@ 100cb8c8     interop.obj
 0002:000008d0       ??_C@_06FFIACGFC@Column?$AA@ 100cb8d0     interop.obj
 0002:000008d8       ??_C@_08MMCPABPC@Affinity?$AA@ 100cb8d8     interop.obj
 0002:000008e4       ??_C@_07KGFHIBD@String8?$AA@ 100cb8e4     interop.obj
 0002:000008ec       ??_C@_0L@PGPMFKDB@MakeRecord?$AA@ 100cb8ec     interop.obj
 0002:000008f8       ??_C@_05IJGIMMHE@Count?$AA@ 100cb8f8     interop.obj
 0002:00000900       ??_C@_0L@LIFFPDNM@ReadCookie?$AA@ 100cb900     interop.obj
 0002:0000090c       ??_C@_09FEDANMPL@SetCookie?$AA@ 100cb90c     interop.obj
 0002:00000918       ??_C@_09GCNMLHFL@ReopenIdx?$AA@ 100cb918     interop.obj
 0002:00000924       ??_C@_08FJFCCPFB@OpenRead?$AA@ 100cb924     interop.obj
 0002:00000930       ??_C@_09FPCAPNBB@OpenWrite?$AA@ 100cb930     interop.obj
 0002:0000093c       ??_C@_0O@LLCBFLCA@OpenAutoindex?$AA@ 100cb93c     interop.obj
 0002:0000094c       ??_C@_0O@MHKNMBPC@OpenEphemeral?$AA@ 100cb94c     interop.obj
 0002:0000095c       ??_C@_0L@DIBNDBJM@SorterOpen?$AA@ 100cb95c     interop.obj
 0002:00000968       ??_C@_0N@DGILIAAH@SequenceTest?$AA@ 100cb968     interop.obj
 0002:00000978       ??_C@_0L@PKPPHKBP@OpenPseudo?$AA@ 100cb978     interop.obj
 0002:00000984       ??_C@_05LGELBCGM@Close?$AA@ 100cb984     interop.obj
 0002:0000098c       ??_C@_0M@KKDBEJBG@ColumnsUsed?$AA@ 100cb98c     interop.obj
 0002:00000998       ??_C@_08DOCONEG@Sequence?$AA@ 100cb998     interop.obj
 0002:000009a4       ??_C@_08FEDJPMPH@NewRowid?$AA@ 100cb9a4     interop.obj
 0002:000009b0       ??_C@_06CPFCODOD@Insert?$AA@ 100cb9b0     interop.obj
 0002:000009b8       ??_C@_09LEJELDEO@InsertInt?$AA@ 100cb9b8     interop.obj
 0002:000009c4       ??_C@_06JBKGCNBB@Delete?$AA@ 100cb9c4     interop.obj
 0002:000009cc       ??_C@_0L@NDDNCBN@ResetCount?$AA@ 100cb9cc     interop.obj
 0002:000009d8       ??_C@_0O@GIINMLJL@SorterCompare?$AA@ 100cb9d8     interop.obj
 0002:000009e8       ??_C@_0L@DNBEOFPP@SorterData?$AA@ 100cb9e8     interop.obj
 0002:000009f4       ??_C@_06JIHNENAH@RowKey?$AA@ 100cb9f4     interop.obj
 0002:000009fc       ??_C@_07OHPACBNN@RowData?$AA@ 100cb9fc     interop.obj
 0002:00000a04       ??_C@_05KEGGNBBF@Rowid?$AA@ 100cba04     interop.obj
 0002:00000a0c       ??_C@_07HJJPPOKN@NullRow?$AA@ 100cba0c     interop.obj
 0002:00000a14       ??_C@_0N@PCKBEOAP@SorterInsert?$AA@ 100cba14     interop.obj
 0002:00000a24       ??_C@_09ENCBCCAM@IdxInsert?$AA@ 100cba24     interop.obj
 0002:00000a30       ??_C@_09PDNFOMPO@IdxDelete?$AA@ 100cba30     interop.obj
 0002:00000a3c       ??_C@_04ICIDABGP@Seek?$AA@ 100cba3c     interop.obj
 0002:00000a44       ??_C@_08KLKOBEJ@IdxRowid?$AA@ 100cba44     interop.obj
 0002:00000a50       ??_C@_07BDCAJABG@Destroy?$AA@ 100cba50     interop.obj
 0002:00000a58       ??_C@_05MDNHABIA@Clear?$AA@ 100cba58     interop.obj
 0002:00000a60       ??_C@_0M@IJLMHKBN@ResetSorter?$AA@ 100cba60     interop.obj
 0002:00000a6c       ??_C@_0M@PLDABJLA@CreateIndex?$AA@ 100cba6c     interop.obj
 0002:00000a78       ??_C@_04PHKLBGME@Real?$AA@ 100cba78     interop.obj
 0002:00000a80       ??_C@_0M@BDPOJHGL@CreateTable?$AA@ 100cba80     interop.obj
 0002:00000a8c       ??_C@_0M@IPJMJJPI@ParseSchema?$AA@ 100cba8c     interop.obj
 0002:00000a98       ??_C@_0N@FEAPPFEN@LoadAnalysis?$AA@ 100cba98     interop.obj
 0002:00000aa8       ??_C@_09ELPHDPAO@DropTable?$AA@ 100cbaa8     interop.obj
 0002:00000ab4       ??_C@_09KDDJLBNF@DropIndex?$AA@ 100cbab4     interop.obj
 0002:00000ac0       ??_C@_0M@JKNINGPB@DropTrigger?$AA@ 100cbac0     interop.obj
 0002:00000acc       ??_C@_0M@KCIGPGBI@IntegrityCk?$AA@ 100cbacc     interop.obj
 0002:00000ad8       ??_C@_09KPGKMOML@RowSetAdd?$AA@ 100cbad8     interop.obj
 0002:00000ae4       ??_C@_05LOJBNELM@Param?$AA@ 100cbae4     interop.obj
 0002:00000aec       ??_C@_09EBKOHGDP@FkCounter?$AA@ 100cbaec     interop.obj
 0002:00000af8       ??_C@_06LJFJMLCE@MemMax?$AA@ 100cbaf8     interop.obj
 0002:00000b00       ??_C@_0M@MCOGCAAC@OffsetLimit?$AA@ 100cbb00     interop.obj
 0002:00000b0c       ??_C@_08EFCHECBI@AggStep0?$AA@ 100cbb0c     interop.obj
 0002:00000b18       ??_C@_07NOMHFNIB@AggStep?$AA@ 100cbb18     interop.obj
 0002:00000b20       ??_C@_08FCKHNOBN@AggFinal?$AA@ 100cbb20     interop.obj
 0002:00000b2c       ??_C@_06GDNCIOGJ@Expire?$AA@ 100cbb2c     interop.obj
 0002:00000b34       ??_C@_09FDKNKOOK@TableLock?$AA@ 100cbb34     interop.obj
 0002:00000b40       ??_C@_06CLFNNGGK@VBegin?$AA@ 100cbb40     interop.obj
 0002:00000b48       ??_C@_07KDKHCOMM@VCreate?$AA@ 100cbb48     interop.obj
 0002:00000b50       ??_C@_08JBEDGDCN@VDestroy?$AA@ 100cbb50     interop.obj
 0002:00000b5c       ??_C@_05JABEJFFA@VOpen?$AA@ 100cbb5c     interop.obj
 0002:00000b64       ??_C@_07DOIHNMAE@VColumn?$AA@ 100cbb64     interop.obj
 0002:00000b6c       ??_C@_07BIPKCCHL@VRename?$AA@ 100cbb6c     interop.obj
 0002:00000b74       ??_C@_09CNCANJNI@Pagecount?$AA@ 100cbb74     interop.obj
 0002:00000b80       ??_C@_08PCPIJAPH@MaxPgcnt?$AA@ 100cbb80     interop.obj
 0002:00000b8c       ??_C@_0L@CLJLGDBO@CursorHint?$AA@ 100cbb8c     interop.obj
 0002:00000b98       ??_C@_04NBOPPMHE@Noop?$AA@ 100cbb98     interop.obj
 0002:00000ba0       ??_C@_07EMCFMDDO@Explain?$AA@ 100cbba0     interop.obj
 0002:00000ba8       ??_C@_0BA@FHFNEAED@AreFileApisANSI?$AA@ 100cbba8     interop.obj
 0002:00000bb8       ??_C@_0L@CDADJILC@CharLowerW?$AA@ 100cbbb8     interop.obj
 0002:00000bc4       ??_C@_0L@JBOFCNPB@CharUpperW?$AA@ 100cbbc4     interop.obj
 0002:00000bd0       ??_C@_0M@JHJNLFGC@CloseHandle?$AA@ 100cbbd0     interop.obj
 0002:00000bdc       ??_C@_0M@HDHGNCCA@CreateFileA?$AA@ 100cbbdc     interop.obj
 0002:00000be8       ??_C@_0M@GPOOGHPH@CreateFileW?$AA@ 100cbbe8     interop.obj
 0002:00000bf4       ??_C@_0BD@GJENCGJD@CreateFileMappingA?$AA@ 100cbbf4     interop.obj
 0002:00000c08       ??_C@_0BD@HFNFJDEE@CreateFileMappingW?$AA@ 100cbc08     interop.obj
 0002:00000c1c       ??_C@_0N@MDNOAJMP@CreateMutexW?$AA@ 100cbc1c     interop.obj
 0002:00000c2c       ??_C@_0M@CBNKJACB@DeleteFileA?$AA@ 100cbc2c     interop.obj
 0002:00000c38       ??_C@_0M@DNECCFPG@DeleteFileW?$AA@ 100cbc38     interop.obj
 0002:00000c44       ??_C@_0BI@EKFDIGHI@FileTimeToLocalFileTime?$AA@ 100cbc44     interop.obj
 0002:00000c5c       ??_C@_0BF@KPJNHALE@FileTimeToSystemTime?$AA@ 100cbc5c     interop.obj
 0002:00000c74       ??_C@_0BB@MOGECGEP@FlushFileBuffers?$AA@ 100cbc74     interop.obj
 0002:00000c88       ??_C@_0P@FKPELJOF@FormatMessageA?$AA@ 100cbc88     interop.obj
 0002:00000c98       ??_C@_0P@EGGMAMDC@FormatMessageW?$AA@ 100cbc98     interop.obj
 0002:00000ca8       ??_C@_0M@FACAOGOA@FreeLibrary?$AA@ 100cbca8     interop.obj
 0002:00000cb4       ??_C@_0BE@BEODBHKD@GetCurrentProcessId?$AA@ 100cbcb4     interop.obj
 0002:00000cc8       ??_C@_0BC@CLHNLNI@GetDiskFreeSpaceA?$AA@ 100cbcc8     interop.obj
 0002:00000cdc       ??_C@_0BC@BOCPGOAP@GetDiskFreeSpaceW?$AA@ 100cbcdc     interop.obj
 0002:00000cf0       ??_C@_0BD@DJMMCMCB@GetFileAttributesA?$AA@ 100cbcf0     interop.obj
 0002:00000d04       ??_C@_0BD@CFFEJJPG@GetFileAttributesW?$AA@ 100cbd04     interop.obj
 0002:00000d18       ??_C@_0BF@JODNCFOA@GetFileAttributesExW?$AA@ 100cbd18     interop.obj
 0002:00000d30       ??_C@_0M@BAICHOOE@GetFileSize?$AA@ 100cbd30     interop.obj
 0002:00000d3c       ??_C@_0BB@HALHENPC@GetFullPathNameA?$AA@ 100cbd3c     interop.obj
 0002:00000d50       ??_C@_0BB@GMCPPICF@GetFullPathNameW?$AA@ 100cbd50     interop.obj
 0002:00000d64       ??_C@_0N@HICKNDGL@GetLastError?$AA@ 100cbd64     interop.obj
 0002:00000d74       ??_C@_0BA@EJGIKKLP@GetProcAddressA?$AA@ 100cbd74     interop.obj
 0002:00000d84       ??_C@_0O@HJFFHIPG@GetSystemInfo?$AA@ 100cbd84     interop.obj
 0002:00000d94       ??_C@_0O@IKEIBEBH@GetSystemTime?$AA@ 100cbd94     interop.obj
 0002:00000da4       ??_C@_0BI@ENMDHCMK@GetSystemTimeAsFileTime?$AA@ 100cbda4     interop.obj
 0002:00000dbc       ??_C@_0N@CMNFBGGC@GetTempPathA?$AA@ 100cbdbc     interop.obj
 0002:00000dcc       ??_C@_0N@DAENKDLF@GetTempPathW?$AA@ 100cbdcc     interop.obj
 0002:00000ddc       ??_C@_0N@JOMACIEF@GetTickCount?$AA@ 100cbddc     interop.obj
 0002:00000dec       ??_C@_0O@LLCLDPIK@GetVersionExA?$AA@ 100cbdec     interop.obj
 0002:00000dfc       ??_C@_0O@KHLDIKFN@GetVersionExW?$AA@ 100cbdfc     interop.obj
 0002:00000e0c       ??_C@_09JDKINLHP@HeapAlloc?$AA@ 100cbe0c     interop.obj
 0002:00000e18       ??_C@_0L@ICEGIJOB@HeapCreate?$AA@ 100cbe18     interop.obj
 0002:00000e24       ??_C@_0M@NELNNOPP@HeapDestroy?$AA@ 100cbe24     interop.obj
 0002:00000e30       ??_C@_08ICEHPNNG@HeapFree?$AA@ 100cbe30     interop.obj
 0002:00000e3c       ??_C@_0M@HHKAEGMB@HeapReAlloc?$AA@ 100cbe3c     interop.obj
 0002:00000e48       ??_C@_08LKCFNBPH@HeapSize?$AA@ 100cbe48     interop.obj
 0002:00000e54       ??_C@_0N@BKFJNCJM@HeapValidate?$AA@ 100cbe54     interop.obj
 0002:00000e64       ??_C@_0M@EIEMDCNL@HeapCompact?$AA@ 100cbe64     interop.obj
 0002:00000e70       ??_C@_0N@LOMLCOFC@LoadLibraryA?$AA@ 100cbe70     interop.obj
 0002:00000e80       ??_C@_0N@KCFDJLIF@LoadLibraryW?$AA@ 100cbe80     interop.obj
 0002:00000e90       ??_C@_09FHKJECCN@LocalFree?$AA@ 100cbe90     interop.obj
 0002:00000e9c       ??_C@_08DICMLIHC@LockFile?$AA@ 100cbe9c     interop.obj
 0002:00000ea8       ??_C@_0L@EJAEKEDD@LockFileEx?$AA@ 100cbea8     interop.obj
 0002:00000eb4       ??_C@_0O@IGIELGBD@MapViewOfFile?$AA@ 100cbeb4     interop.obj
 0002:00000ec4       ??_C@_0BE@HCIKGJGE@MultiByteToWideChar?$AA@ 100cbec4     interop.obj
 0002:00000ed8       ??_C@_0BI@LFICGGHO@QueryPerformanceCounter?$AA@ 100cbed8     interop.obj
 0002:00000ef0       ??_C@_08KLCHJOKF@ReadFile?$AA@ 100cbef0     interop.obj
 0002:00000efc       ??_C@_0N@KGGGLBCJ@SetEndOfFile?$AA@ 100cbefc     interop.obj
 0002:00000f0c       ??_C@_0P@HKHKGCLN@SetFilePointer?$AA@ 100cbf0c     interop.obj
 0002:00000f1c       ??_C@_05PFDOMJEF@Sleep?$AA@ 100cbf1c     interop.obj
 0002:00000f24       ??_C@_0BF@HBHGIPOG@SystemTimeToFileTime?$AA@ 100cbf24     interop.obj
 0002:00000f3c       ??_C@_0L@PBJENKDG@UnlockFile?$AA@ 100cbf3c     interop.obj
 0002:00000f48       ??_C@_0N@HOKNOHPO@UnlockFileEx?$AA@ 100cbf48     interop.obj
 0002:00000f58       ??_C@_0BA@GLKNLELN@UnmapViewOfFile?$AA@ 100cbf58     interop.obj
 0002:00000f68       ??_C@_0BE@LJADKLBD@WideCharToMultiByte?$AA@ 100cbf68     interop.obj
 0002:00000f7c       ??_C@_09NOIIIIGM@WriteFile?$AA@ 100cbf7c     interop.obj
 0002:00000f88       ??_C@_0P@DLHPPCNH@CreateEventExW?$AA@ 100cbf88     interop.obj
 0002:00000f98       ??_C@_0BE@CLKLPNNG@WaitForSingleObject?$AA@ 100cbf98     interop.obj
 0002:00000fac       ??_C@_0BG@IFNJHLEG@WaitForSingleObjectEx?$AA@ 100cbfac     interop.obj
 0002:00000fc4       ??_C@_0BB@GDGABGCO@SetFilePointerEx?$AA@ 100cbfc4     interop.obj
 0002:00000fd8       ??_C@_0BN@NEEHBBPO@GetFileInformationByHandleEx?$AA@ 100cbfd8     interop.obj
 0002:00000ff8       ??_C@_0BF@ECJCKDGL@MapViewOfFileFromApp?$AA@ 100cbff8     interop.obj
 0002:00001010       ??_C@_0M@HHGEPIBF@CreateFile2?$AA@ 100cc010     interop.obj
 0002:0000101c       ??_C@_0BE@GMOAPDKA@LoadPackagedLibrary?$AA@ 100cc01c     interop.obj
 0002:00001030       ??_C@_0P@CDHHOHKP@GetTickCount64?$AA@ 100cc030     interop.obj
 0002:00001040       ??_C@_0BE@HLKFLAJF@GetNativeSystemInfo?$AA@ 100cc040     interop.obj
 0002:00001054       ??_C@_0BD@ILGKEMFC@OutputDebugStringA?$AA@ 100cc054     interop.obj
 0002:00001068       ??_C@_0BD@JHPCPJIF@OutputDebugStringW?$AA@ 100cc068     interop.obj
 0002:0000107c       ??_C@_0P@BOLOPLNF@GetProcessHeap?$AA@ 100cc07c     interop.obj
 0002:0000108c       ??_C@_0BJ@EKFPCGJA@CreateFileMappingFromApp?$AA@ 100cc08c     interop.obj
 0002:000010a8       ??_C@_0BL@FOMKKFPM@InterlockedCompareExchange?$AA@ 100cc0a8     interop.obj
 0002:000010c4       ??_C@_0L@IDKDBMAM@UuidCreate?$AA@ 100cc0c4     interop.obj
 0002:000010d0       ??_C@_0BF@DJFPALMK@UuidCreateSequential?$AA@ 100cc0d0     interop.obj
 0002:000010e8       ??_C@_0BA@IHGACFIJ@FlushViewOfFile?$AA@ 100cc0e8     interop.obj
 0002:000010f8       ??_C@_0CK@NGPIDCAA@failed?5to?5HeapCompact?5?$CIno?5space?$CJ@ 100cc0f8     interop.obj
 0002:00001124       ??_C@_0CF@BOCDEBEA@failed?5to?5HeapCompact?5?$CI?$CFlu?$CJ?0?5hea@ 100cc124     interop.obj
 0002:0000114c       ??_C@_0CM@NNNFEPLG@failed?5to?5HeapAlloc?5?$CFu?5bytes?5?$CI?$CFl@ 100cc14c     interop.obj
 0002:00001178       ??_C@_0CL@JKLAHGLA@failed?5to?5HeapFree?5block?5?$CFp?5?$CI?$CFlu@ 100cc178     interop.obj
 0002:000011a4       ??_C@_0CF@LIJODODC@failed?5to?5?$CFs?5?$CFu?5bytes?5?$CI?$CFlu?$CJ?0?5hea@ 100cc1a4     interop.obj
 0002:000011cc       ??_C@_0CL@HCBMEFAG@failed?5to?5HeapSize?5block?5?$CFp?5?$CI?$CFlu@ 100cc1cc     interop.obj
 0002:000011f8       ??_C@_0EA@IKKAKFOI@failed?5to?5HeapCreate?5?$CI?$CFlu?$CJ?0?5flag@ 100cc1f8     interop.obj
 0002:00001238       ??_C@_0CF@JHBMKENA@failed?5to?5HeapDestroy?5?$CI?$CFlu?$CJ?0?5hea@ 100cc238     interop.obj
 0002:00001260       ??_C@_0BE@MJECGBL@OsError?50x?$CFlx?5?$CI?$CFlu?$CJ?$AA@ 100cc260     interop.obj
 0002:00001274       ??_C@_02DKCKIIND@?$CFs?$AA@ 100cc274     interop.obj
 0002:00001278       ??_C@_0BP@JDJJJHMH@os_win?4c?3?$CFd?3?5?$CI?$CFlu?$CJ?5?$CFs?$CI?$CFs?$CJ?5?9?5?$CFs?$AA@ 100cc278     interop.obj
 0002:00001298       ??_C@_0DC@FIDAINO@delayed?5?$CFdms?5for?5lock?1sharing?5co@ 100cc298     interop.obj
 0002:000012cc       ??_C@_0M@JAPMDKOE@winSeekFile?$AA@ 100cc2cc     interop.obj
 0002:000012d8       ??_C@_08GBGPIFFF@winClose?$AA@ 100cc2d8     interop.obj
 0002:000012e4       ??_C@_07BGDHELCN@winRead?$AA@ 100cc2e4     interop.obj
 0002:000012ec       ??_C@_09GFOHNLGD@winWrite1?$AA@ 100cc2ec     interop.obj
 0002:000012f8       ??_C@_09EOMKIIKA@winWrite2?$AA@ 100cc2f8     interop.obj
 0002:00001304       ??_C@_0N@JHOIFHJA@winTruncate1?$AA@ 100cc304     interop.obj
 0002:00001314       ??_C@_0N@LMMFAEFD@winTruncate2?$AA@ 100cc314     interop.obj
 0002:00001324       ??_C@_08LAPEMDHJ@winSync1?$AA@ 100cc324     interop.obj
 0002:00001330       ??_C@_08JLNJJALK@winSync2?$AA@ 100cc330     interop.obj
 0002:0000133c       ??_C@_0M@DODNMLAG@winFileSize?$AA@ 100cc33c     interop.obj
 0002:00001348       ??_C@_0BC@CHABEBCJ@winUnlockReadLock?$AA@ 100cc348     interop.obj
 0002:0000135c       ??_C@_09INENJOCI@winUnlock?$AA@ 100cc35c     interop.obj
 0002:00001368       ??_C@_06KEOMCCGA@?$CFs?9shm?$AA@ 100cc368     interop.obj
 0002:00001370       ??_C@_0L@NHPDAEHO@winOpenShm?$AA@ 100cc370     interop.obj
 0002:0000137c       ??_C@_0L@JMPNPFLA@winShmMap1?$AA@ 100cc37c     interop.obj
 0002:00001388       ??_C@_0L@LHNAKGHD@winShmMap2?$AA@ 100cc388     interop.obj
 0002:00001394       ??_C@_0L@KOMLJHDC@winShmMap3?$AA@ 100cc394     interop.obj
 0002:000013a0       ??_C@_0O@MBBPBMPM@winUnmapfile1?$AA@ 100cc3a0     interop.obj
 0002:000013b0       ??_C@_0O@OKDCEPDP@winUnmapfile2?$AA@ 100cc3b0     interop.obj
 0002:000013c0       ??_C@_0M@FMIFOGHC@winMapfile1?$AA@ 100cc3c0     interop.obj
 0002:000013cc       ??_C@_0M@HHKILFLB@winMapfile2?$AA@ 100cc3cc     interop.obj
 0002:000013d8       ??_C@_07NBNPOOME@etilqs_?$AA@ 100cc3d8     interop.obj
 0002:000013e0       ??_C@_0BA@KKAJEMJB@winGetTempname1?$AA@ 100cc3e0     interop.obj
 0002:000013f0       ??_C@_0BA@IBCEBPFC@winGetTempname2?$AA@ 100cc3f0     interop.obj
 0002:00001400       ??_C@_0BA@NHHOLINE@winGetTempname4?$AA@ 100cc400     interop.obj
 0002:00001410       ??_C@_0BA@MOGFIJJF@winGetTempname5?$AA@ 100cc410     interop.obj
 0002:00001420       ??_C@_07BEGGPPOF@winOpen?$AA@ 100cc420     interop.obj
 0002:00001428       ??_C@_04JKHAIEHD@psow?$AA@ 100cc428     interop.obj
 0002:00001430       ??_C@_09MOHEIBIO@winDelete?$AA@ 100cc430     interop.obj
 0002:0000143c       ??_C@_09NBJCHJLH@winAccess?$AA@ 100cc43c     interop.obj
 0002:00001448       ??_C@_06GIIGBPHC@?$CFs?$CFc?$CFs?$AA@ 100cc448     interop.obj
 0002:00001450       ??_C@_0BB@OFJJKLCE@winFullPathname1?$AA@ 100cc450     interop.obj
 0002:00001464       ??_C@_0BB@MOLEPIOH@winFullPathname2?$AA@ 100cc464     interop.obj
 0002:00001478       ??_C@_05NMJMPJJB@win32?$AA@ 100cc478     interop.obj
 0002:00001480       ??_C@_0P@DDINIIBH@win32?9longpath?$AA@ 100cc480     interop.obj
 0002:00001490       ??_C@_0L@GKDKNNFD@win32?9none?$AA@ 100cc490     interop.obj
 0002:0000149c       ??_C@_0BE@EDBNHJPM@win32?9longpath?9none?$AA@ 100cc49c     interop.obj
 0002:000014b0       ??_C@_0BL@FJPGAHP@recovered?5?$CFd?5pages?5from?5?$CFs?$AA@ 100cc4b0     interop.obj
 0002:000014cc       ??_C@_09HKLPJOIM@?9journal?$AA?$AA@ 100cc4cc     interop.obj
 0002:000014d8       ??_C@_05HMKKNGEJ@?9wal?$AA?$AA@ 100cc4d8     interop.obj
 0002:000014e0       ??_C@_06LDKHBALK@nolock?$AA@ 100cc4e0     interop.obj
 0002:000014e8       ??_C@_09JFJMBHCC@immutable?$AA@ 100cc4e8     interop.obj
 0002:000014f4       ??_C@_0CF@EDMDCOFB@recovered?5?$CFd?5frames?5from?5WAL?5fil@ 100cc4f4     interop.obj
 0002:0000151c       ??_C@_0BK@NCCCKLLJ@cannot?5limit?5WAL?5size?3?5?$CFs?$AA@ 100cc51c     interop.obj
 0002:00001538       ??_C@_08CADOGOJM@?3memory?3?$AA@ 100cc538     interop.obj
 0002:00001544       ??_C@_01EEMJAFIK@?6?$AA@   100cc544     interop.obj
 0002:00001548       ??_C@_0BH@LLKFEBHC@invalid?5page?5number?5?$CFd?$AA@ 100cc548     interop.obj
 0002:00001560       ??_C@_0BJ@HHKCLCDH@2nd?5reference?5to?5page?5?$CFd?$AA@ 100cc560     interop.obj
 0002:0000157c       ??_C@_0BN@NJCBBLIO@Failed?5to?5read?5ptrmap?5key?$DN?$CFd?$AA@ 100cc57c     interop.obj
 0002:0000159c       ??_C@_0DG@EAEHHDPC@Bad?5ptr?5map?5entry?5key?$DN?$CFd?5expecte@ 100cc59c     interop.obj
 0002:000015d4       ??_C@_0DJ@PBFEOOMP@?$CFd?5of?5?$CFd?5pages?5missing?5from?5over@ 100cc5d4     interop.obj
 0002:00001610       ??_C@_0BG@GMIBDIEE@failed?5to?5get?5page?5?$CFd?$AA@ 100cc610     interop.obj
 0002:00001628       ??_C@_0CH@LNHECGJJ@freelist?5leaf?5count?5too?5big?5on?5p@ 100cc628     interop.obj
 0002:00001650       ??_C@_0CH@EHDDBGPL@free?9page?5count?5in?5header?5is?5too@ 100cc650     interop.obj
 0002:00001678       ??_C@_09OLGIMPDE@Page?5?$CFd?3?5?$AA@ 100cc678     interop.obj
 0002:00001684       ??_C@_0CG@ILLDAEJM@unable?5to?5get?5the?5page?4?5error?5co@ 100cc684     interop.obj
 0002:000016ac       ??_C@_0CG@FFKEALPN@btreeInitPage?$CI?$CJ?5returns?5error?5co@ 100cc6ac     interop.obj
 0002:000016d4       ??_C@_0BK@DEBKKJM@On?5tree?5page?5?$CFd?5cell?5?$CFd?3?5?$AA@ 100cc6d4     interop.obj
 0002:000016f0       ??_C@_0BM@FMPLCKPB@On?5page?5?$CFd?5at?5right?5child?3?5?$AA@ 100cc6f0     interop.obj
 0002:0000170c       ??_C@_0BO@GNBLAJEP@Offset?5?$CFd?5out?5of?5range?5?$CFd?4?4?$CFd?$AA@ 100cc70c     interop.obj
 0002:0000172c       ??_C@_0BI@EFAGLMLE@Extends?5off?5end?5of?5page?$AA@ 100cc72c     interop.obj
 0002:00001744       ??_C@_0BI@CKMEGBED@Rowid?5?$CFlld?5out?5of?5order?$AA@ 100cc744     interop.obj
 0002:0000175c       ??_C@_0BJ@FLOCKNJL@Child?5page?5depth?5differs?$AA@ 100cc75c     interop.obj
 0002:00001778       ??_C@_0CF@FDPBJINM@Multiple?5uses?5for?5byte?5?$CFu?5of?5pag@ 100cc778     interop.obj
 0002:000017a0       ??_C@_0DE@NONOJPEC@Fragmentation?5of?5?$CFd?5bytes?5report@ 100cc7a0     interop.obj
 0002:000017d4       ??_C@_0BA@EAICBBKE@Main?5freelist?3?5?$AA@ 100cc7d4     interop.obj
 0002:000017e4       ??_C@_0BG@NJBAMKDO@Page?5?$CFd?5is?5never?5used?$AA@ 100cc7e4     interop.obj
 0002:000017fc       ??_C@_0CC@IBCKHFBM@Pointer?5map?5page?5?$CFd?5is?5reference@ 100cc7fc     interop.obj
 0002:00001820       ??_C@_0O@BNNCBLEN@out?5of?5memory?$AA@ 100cc820     interop.obj
 0002:00001830       ??_C@_0BE@OKPJBBEB@unknown?5database?5?$CFs?$AA@ 100cc830     interop.obj
 0002:00001844       ??_C@_0BP@CNIPEHFB@destination?5database?5is?5in?5use?$AA@ 100cc844     interop.obj
 0002:00001864       ??_C@_0CI@IHDDPHMP@source?5and?5destination?5must?5be?5d@ 100cc864     interop.obj
 0002:0000188c       ??_C@_06NJMDEJD@?$CF?$CB?415g?$AA@ 100cc88c     interop.obj
 0002:00001894       ??_C@_01JOAMLHOP@?9?$AA@   100cc894     interop.obj
 0002:00001898       ??_C@_04HDOCAJNK@?$CFs?$CFs?$AA@ 100cc898     interop.obj
 0002:000018a0       ??_C@_0O@HEEEJLEO@sqlite_record?$AA@ 100cc8a0     interop.obj
 0002:000018b0       ??_C@_04INKOODMH@k?$CI?$CFd?$AA@ 100cc8b0     interop.obj
 0002:000018b8       ??_C@_06FJHKNKMG@BINARY?$AA@ 100cc8b8     interop.obj
 0002:000018c0       ??_C@_01HMGJMAIH@B?$AA@    100cc8c0     interop.obj
 0002:000018c4       ??_C@_05HEGMJKCJ@?0?$CFs?$CFs?$AA@ 100cc8c4     interop.obj
 0002:000018cc       ??_C@_01PKGAHCOL@?$CJ?$AA@ 100cc8cc     interop.obj
 0002:000018d0       ??_C@_07CJFGHBKN@?$CI?$CF?420s?$CJ?$AA@ 100cc8d0     interop.obj
 0002:000018d8       ??_C@_06BPGFIOAL@?$CFs?$CI?$CFd?$CJ?$AA@ 100cc8d8     interop.obj
 0002:000018e0       ??_C@_02DPKJAMEF@?$CFd?$AA@ 100cc8e0     interop.obj
 0002:000018e4       ??_C@_06OLGPAEJH@?$CIblob?$CJ?$AA@ 100cc8e4     interop.obj
 0002:000018ec       ??_C@_07EGLAFBFD@vtab?3?$CFp?$AA@ 100cc8ec     interop.obj
 0002:000018f4       ??_C@_03LEIBKMN@?0?$CFd?$AA@ 100cc8f4     interop.obj
 0002:000018f8       ??_C@_01LBDDMOBJ@?$FN?$AA@ 100cc8f8     interop.obj
 0002:000018fc       ??_C@_07MHLKLKDM@program?$AA@ 100cc8fc     interop.obj
 0002:00001904       ??_C@_04LABILCJL@?$CF?42x?$AA@ 100cc904     interop.obj
 0002:0000190c       ??_C@_0BA@FKMAFLJK@?$CFs?9mjXXXXXX9XXz?$AA@ 100cc90c     interop.obj
 0002:0000191c       ??_C@_0O@IDFCBAPA@MJ?5delete?3?5?$CFs?$AA@ 100cc91c     interop.obj
 0002:0000192c       ??_C@_0P@EKBGDFBG@MJ?5collide?3?5?$CFs?$AA@ 100cc92c     interop.obj
 0002:0000193c       ??_C@_0N@FLHACMNC@?9mj?$CF06X9?$CF02X?$AA@ 100cc93c     interop.obj
 0002:0000194c       ??_C@_0BO@PMDGIFIC@FOREIGN?5KEY?5constraint?5failed?$AA@ 100cc94c     interop.obj
 0002:0000196c       ??_C@_0CN@JCKHFJMJ@API?5called?5with?5finalized?5prepar@ 100cc96c     interop.obj
 0002:0000199c       ??_C@_0CI@DGDEMKDJ@API?5called?5with?5NULL?5prepared?5st@ 100cc99c     interop.obj
 0002:000019c4       ??_C@_0BH@BEFJIDGM@string?5or?5blob?5too?5big?$AA@ 100cc9c4     interop.obj
 0002:000019dc       ??_C@_0DD@BOPMNMAO@unable?5to?5use?5function?5?$CFs?5in?5the@ 100cc9dc     interop.obj
 0002:00001a10       ??_C@_0CI@NKIMDBDG@bind?5on?5a?5busy?5prepared?5statemen@ 100cca10     interop.obj
 0002:00001a38       ??_C@_03CJPCKGBB@?9?9?5?$AA@ 100cca38     interop.obj
 0002:00001a3c       ??_C@_06BGANNCL@?8?$CF?4?$CKq?8?$AA@ 100cca3c     interop.obj
 0002:00001a44       ??_C@_0N@OGKFEFFN@zeroblob?$CI?$CFd?$CJ?$AA@ 100cca44     interop.obj
 0002:00001a54       ??_C@_02IAJJKNGA@x?8?$AA@  100cca54     interop.obj
 0002:00001a58       ??_C@_04NOJCDH@?$CF02x?$AA@ 100cca58     interop.obj
 0002:00001a60       ??_C@_01GEODFPGF@?8?$AA@   100cca60     interop.obj
 0002:00001a64       ??_C@_08BBHBEGAC@NOT?5NULL?$AA@ 100cca64     interop.obj
 0002:00001a70       ??_C@_06OHAHIIGJ@UNIQUE?$AA@ 100cca70     interop.obj
 0002:00001a78       ??_C@_05GCOJDIEO@CHECK?$AA@ 100cca78     interop.obj
 0002:00001a80       ??_C@_0M@CFPAHGLH@FOREIGN?5KEY?$AA@ 100cca80     interop.obj
 0002:00001a8c       ??_C@_0BF@PPLEKELH@?$CFs?5constraint?5failed?$AA@ 100cca8c     interop.obj
 0002:00001aa4       ??_C@_06CEJILJDK@?$CFz?3?5?$CFs?$AA@ 100ccaa4     interop.obj
 0002:00001aac       ??_C@_0BI@CKCEIKAL@abort?5at?5?$CFd?5in?5?$FL?$CFs?$FN?3?5?$CFs?$AA@ 100ccaac     interop.obj
 0002:00001ac4       ??_C@_0DD@EHMCJFDN@cannot?5open?5savepoint?5?9?5SQL?5stat@ 100ccac4     interop.obj
 0002:00001af8       ??_C@_0BG@NADCOEGF@no?5such?5savepoint?3?5?$CFs?$AA@ 100ccaf8     interop.obj
 0002:00001b10       ??_C@_0DG@JCGPCDM@cannot?5release?5savepoint?5?9?5SQL?5s@ 100ccb10     interop.obj
 0002:00001b48       ??_C@_0DH@EPKPHENF@cannot?5commit?5transaction?5?9?5SQL?5@ 100ccb48     interop.obj
 0002:00001b80       ??_C@_0DA@CKKHGBEC@cannot?5start?5a?5transaction?5withi@ 100ccb80     interop.obj
 0002:00001bb0       ??_C@_0CL@DIEDEFLK@cannot?5rollback?5?9?5no?5transaction@ 100ccbb0     interop.obj
 0002:00001bdc       ??_C@_0CJ@LALCBGBP@cannot?5commit?5?9?5no?5transaction?5i@ 100ccbdc     interop.obj
 0002:00001c08       ??_C@_0BM@FKBOKANJ@database?5schema?5has?5changed?$AA@ 100ccc08     interop.obj
 0002:00001c24       ??_C@_0BD@OLGFAFA@sqlite_temp_master?$AA@ 100ccc24     interop.obj
 0002:00001c38       ??_C@_0O@JMEKHCEB@sqlite_master?$AA@ 100ccc38     interop.obj
 0002:00001c48       ??_C@_0EA@GFNDAJBJ@SELECT?5name?0?5rootpage?0?5sql?5FROM?5@ 100ccc48     interop.obj
 0002:00001c88       ??_C@_0CF@DBNDEPJP@too?5many?5levels?5of?5trigger?5recur@ 100ccc88     interop.obj
 0002:00001cb0       ??_C@_04MHJLCKAK@into?$AA@ 100cccb0     interop.obj
 0002:00001cb8       ??_C@_06JIMOCJPC@out?5of?$AA@ 100cccb8     interop.obj
 0002:00001cc0       ??_C@_0DE@KIPNAMAA@cannot?5change?5?$CFs?5wal?5mode?5from?5w@ 100cccc0     interop.obj
 0002:00001cf4       ??_C@_0BN@JOIFECGM@database?5table?5is?5locked?3?5?$CFs?$AA@ 100cccf4     interop.obj
 0002:00001d14       ??_C@_0CA@JGFGBIFL@statement?5aborts?5at?5?$CFd?3?5?$FL?$CFs?$FN?5?$CFs?$AA@ 100ccd14     interop.obj
 0002:00001d34       ??_C@_04MLLLIHIP@null?$AA@ 100ccd34     interop.obj
 0002:00001d3c       ??_C@_04DGGKDJMA@real?$AA@ 100ccd3c     interop.obj
 0002:00001d44       ??_C@_07LKHFMGFB@integer?$AA@ 100ccd44     interop.obj
 0002:00001d4c       ??_C@_0BN@OFFACDFM@cannot?5open?5value?5of?5type?5?$CFs?$AA@ 100ccd4c     interop.obj
 0002:00001d6c       ??_C@_0BE@PGLAJEIK@no?5such?5rowid?3?5?$CFlld?$AA@ 100ccd6c     interop.obj
 0002:00001d80       ??_C@_0BO@BCBGJJEM@cannot?5open?5virtual?5table?3?5?$CFs?$AA@ 100ccd80     interop.obj
 0002:00001da0       ??_C@_0CE@OCACOFEC@cannot?5open?5table?5without?5rowid?3@ 100ccda0     interop.obj
 0002:00001dc4       ??_C@_0BF@LEHNPEDD@cannot?5open?5view?3?5?$CFs?$AA@ 100ccdc4     interop.obj
 0002:00001ddc       ??_C@_0BF@IFOHJMAC@no?5such?5column?3?5?$CC?$CFs?$CC?$AA@ 100ccddc     interop.obj
 0002:00001df4       ??_C@_0M@EKGNDAGL@foreign?5key?$AA@ 100ccdf4     interop.obj
 0002:00001e00       ??_C@_07KNEBDGNE@indexed?$AA@ 100cce00     interop.obj
 0002:00001e08       ??_C@_0CC@PCDMPIAA@cannot?5open?5?$CFs?5column?5for?5writin@ 100cce08     interop.obj
 0002:00001e2c       ??_C@_03CLCAEGCJ@new?$AA@  100cce2c     interop.obj
 0002:00001e30       ??_C@_03PNKCFLFB@old?$AA@  100cce30     interop.obj
 0002:00001e34       ??_C@_0BP@LIGNHLP@misuse?5of?5aliased?5aggregate?5?$CFs?$AA@ 100cce34     interop.obj
 0002:00001e54       ??_C@_0P@OOEELNMH@no?5such?5column?$AA@ 100cce54     interop.obj
 0002:00001e64       ??_C@_0BG@CPPEOILG@ambiguous?5column?5name?$AA@ 100cce64     interop.obj
 0002:00001e7c       ??_C@_0N@GOMHGJCA@?$CFs?3?5?$CFs?4?$CFs?4?$CFs?$AA@ 100cce7c     interop.obj
 0002:00001e8c       ??_C@_09DEPFKOIN@?$CFs?3?5?$CFs?4?$CFs?$AA@ 100cce8c     interop.obj
 0002:00001e98       ??_C@_06DJHOIPC@?$CFs?3?5?$CFs?$AA@ 100cce98     interop.obj
 0002:00001ea0       ??_C@_0BM@FHGIFHJI@partial?5index?5WHERE?5clauses?$AA@ 100ccea0     interop.obj
 0002:00001ebc       ??_C@_0BC@OGGBHAGM@index?5expressions?$AA@ 100ccebc     interop.obj
 0002:00001ed0       ??_C@_0BC@FDHDOACM@CHECK?5constraints?$AA@ 100cced0     interop.obj
 0002:00001ee4       ??_C@_0BE@FFEBFOFH@?$CFs?5prohibited?5in?5?$CFs?$AA@ 100ccee4     interop.obj
 0002:00001ef8       ??_C@_0BB@MKMPFLCK@the?5?$CC?4?$CC?5operator?$AA@ 100ccef8     interop.obj
 0002:00001f0c       ??_C@_09CEAIPAHE@functions?$AA@ 100ccf0c     interop.obj
 0002:00001f18       ??_C@_0EH@BOEFIEGB@second?5argument?5to?5likelihood?$CI?$CJ?5@ 100ccf18     interop.obj
 0002:00001f60       ??_C@_0CD@CLOCOINF@not?5authorized?5to?5use?5function?3?5@ 100ccf60     interop.obj
 0002:00001f84       ??_C@_0BM@KJBKFFPA@non?9deterministic?5functions?$AA@ 100ccf84     interop.obj
 0002:00001fa0       ??_C@_0CE@JOMBDPK@misuse?5of?5aggregate?5function?5?$CF?4?$CK@ 100ccfa0     interop.obj
 0002:00001fc4       ??_C@_0BH@DEPAIHDK@no?5such?5function?3?5?$CF?4?$CKs?$AA@ 100ccfc4     interop.obj
 0002:00001fdc       ??_C@_0CN@GBOJIJCC@wrong?5number?5of?5arguments?5to?5fun@ 100ccfdc     interop.obj
 0002:0000200c       ??_C@_0L@JIOMEFKM@subqueries?$AA@ 100cd00c     interop.obj
 0002:00002018       ??_C@_0L@HHPOFMCB@parameters?$AA@ 100cd018     interop.obj
 0002:00002024       ??_C@_0DI@IJOLPLNO@?$CFr?5?$CFs?5BY?5term?5out?5of?5range?5?9?5sho@ 100cd024     interop.obj
 0002:0000205c       ??_C@_0CC@GEJJPDIE@too?5many?5terms?5in?5ORDER?5BY?5claus@ 100cd05c     interop.obj
 0002:00002080       ??_C@_05BIEKMFNJ@ORDER?$AA@ 100cd080     interop.obj
 0002:00002088       ??_C@_0DN@KHANHMIL@?$CFr?5ORDER?5BY?5term?5does?5not?5match?5@ 100cd088     interop.obj
 0002:000020c8       ??_C@_0BP@OLNMGBH@too?5many?5terms?5in?5?$CFs?5BY?5clause?$AA@ 100cd0c8     interop.obj
 0002:000020e8       ??_C@_0CM@CFGBPLAG@a?5GROUP?5BY?5clause?5is?5required?5be@ 100cd0e8     interop.obj
 0002:00002114       ??_C@_05NAIABEH@GROUP?$AA@ 100cd114     interop.obj
 0002:0000211c       ??_C@_0DL@LDIIFJFH@aggregate?5functions?5are?5not?5allo@ 100cd11c     interop.obj
 0002:00002158       ??_C@_0DA@HPOBBFJP@Expression?5tree?5is?5too?5large?5?$CIma@ 100cd158     interop.obj
 0002:00002188       ??_C@_0CL@MAPAMFMM@variable?5number?5must?5be?5between?5@ 100cd188     interop.obj
 0002:000021b4       ??_C@_0BH@KLMBLGJH@too?5many?5SQL?5variables?$AA@ 100cd1b4     interop.obj
 0002:000021cc       ??_C@_0BH@HJGFDJPB@too?5many?5columns?5in?5?$CFs?$AA@ 100cd1cc     interop.obj
 0002:000021e4       ??_C@_07HKAAOBDA@_ROWID_?$AA@ 100cd1e4     interop.obj
 0002:000021ec       ??_C@_05GIFMDDGN@ROWID?$AA@ 100cd1ec     interop.obj
 0002:000021f4       ??_C@_03PGJCFEMG@OID?$AA@  100cd1f4     interop.obj
 0002:000021f8       ??_C@_04PCOPKCKE@LIST?$AA@ 100cd1f8     interop.obj
 0002:00002200       ??_C@_06LEOGOFDE@SCALAR?$AA@ 100cd200     interop.obj
 0002:00002208       ??_C@_0M@MCLOEEML@CORRELATED?5?$AA@ 100cd208     interop.obj
 0002:00002214       ??_C@_0BJ@HNBNONDH@EXECUTE?5?$CFs?$CFs?5SUBQUERY?5?$CFd?$AA@ 100cd214     interop.obj
 0002:00002230       ??_C@_02MDDDDAID@0x?$AA@   100cd230     interop.obj
 0002:00002234       ??_C@_0BI@BLOMPBJJ@hex?5literal?5too?5big?3?5?$CFs?$AA@ 100cd234     interop.obj
 0002:0000224c       ??_C@_0BK@BMEAFNCN@misuse?5of?5aggregate?3?5?$CFs?$CI?$CJ?$AA@ 100cd24c     interop.obj
 0002:00002268       ??_C@_0BH@DOLDNOOG@unknown?5function?3?5?$CFs?$CI?$CJ?$AA@ 100cd268     interop.obj
 0002:00002280       ??_C@_0DC@JGGJAPOJ@RAISE?$CI?$CJ?5may?5only?5be?5used?5within?5@ 100cd280     interop.obj
 0002:000022b4       ??_C@_0L@HDDJIJMP@?$CF?4?$CKs?$CC?$CFw?$CC?$CFs?$AA@ 100cd2b4     interop.obj
 0002:000022c0       ??_C@_0L@GGMNOGLF@?$CFs?$CF?4?$CKs?$CC?$CFw?$CC?$AA@ 100cd2c0     interop.obj
 0002:000022cc       ??_C@_0BE@JHJAJICL@sqlite_rename_table?$AA@ 100cd2cc     interop.obj
 0002:000022e0       ??_C@_0BG@DKJJOMDK@sqlite_rename_trigger?$AA@ 100cd2e0     interop.obj
 0002:000022f8       ??_C@_0BF@CIKMGNA@sqlite_rename_parent?$AA@ 100cd2f8     interop.obj
 0002:00002310       ??_C@_07IKCPJJF@name?$DN?$CFQ?$AA@ 100cd310     interop.obj
 0002:00002318       ??_C@_0O@JAFDLLMD@?$CFs?5OR?5name?$DN?$CFQ?$AA@ 100cd318     interop.obj
 0002:00002328       ??_C@_0BI@IBIDABAM@type?$DN?8trigger?8?5AND?5?$CI?$CFs?$CJ?$AA@ 100cd328     interop.obj
 0002:00002340       ??_C@_0M@FPJBBPLI@tbl_name?$DN?$CFQ?$AA@ 100cd340     interop.obj
 0002:0000234c       ??_C@_07IOGLMIPM@sqlite_?$AA@ 100cd34c     interop.obj
 0002:00002354       ??_C@_0BM@IAHFHDLE@table?5?$CFs?5may?5not?5be?5altered?$AA@ 100cd354     interop.obj
 0002:00002370       ??_C@_0DL@DAEIJKNC@there?5is?5already?5another?5table?5o@ 100cd370     interop.obj
 0002:000023ac       ??_C@_0BL@FIDIAKLG@view?5?$CFs?5may?5not?5be?5altered?$AA@ 100cd3ac     interop.obj
 0002:000023c8       ??_C@_0EF@LBDFNLNO@UPDATE?5?$CC?$CFw?$CC?4?$CFs?5SET?5sql?5?$DN?5sqlite_@ 100cd3c8     interop.obj
 0002:00002410       ??_C@_0BIA@DMFFJHNO@UPDATE?5?$CFQ?4?$CFs?5SET?5sql?5?$DN?5CASE?5WHEN@ 100cd410     interop.obj
 0002:00002590       ??_C@_0BA@KDDGKFDH@sqlite_sequence?$AA@ 100cd590     interop.obj
 0002:000025a0       ??_C@_0DK@NPMGFNPC@UPDATE?5?$CC?$CFw?$CC?4sqlite_sequence?5set?5@ 100cd5a0     interop.obj
 0002:000025e0       ??_C@_0FM@GJOILOPP@UPDATE?5sqlite_temp_master?5SET?5sq@ 100cd5e0     interop.obj
 0002:0000263c       ??_C@_0CA@KEHKHMLG@Cannot?5add?5a?5PRIMARY?5KEY?5column?$AA@ 100cd63c     interop.obj
 0002:0000265c       ??_C@_0BL@NAFLCLKF@Cannot?5add?5a?5UNIQUE?5column?$AA@ 100cd65c     interop.obj
 0002:00002678       ??_C@_0DL@KNFPANHI@Cannot?5add?5a?5REFERENCES?5column?5w@ 100cd678     interop.obj
 0002:000026b4       ??_C@_0DF@JACFJFPO@Cannot?5add?5a?5NOT?5NULL?5column?5wit@ 100cd6b4     interop.obj
 0002:000026ec       ??_C@_0CO@DPKGGDEF@Cannot?5add?5a?5column?5with?5non?9con@ 100cd6ec     interop.obj
 0002:00002720       ??_C@_0GN@GPPLIGGM@UPDATE?5?$CC?$CFw?$CC?4?$CFs?5SET?5sql?5?$DN?5substr?$CI@ 100cd720     interop.obj
 0002:00002790       ??_C@_0CC@HCCMFAJP@virtual?5tables?5may?5not?5be?5altere@ 100cd790     interop.obj
 0002:000027b4       ??_C@_0BO@IKHDEECD@Cannot?5add?5a?5column?5to?5a?5view?$AA@ 100cd7b4     interop.obj
 0002:000027d4       ??_C@_0BD@PKLNNDD@sqlite_altertab_?$CFs?$AA@ 100cd7d4     interop.obj
 0002:000027e8       ??_C@_0N@EIGEIEIJ@sqlite_stat1?$AA@ 100cd7e8     interop.obj
 0002:000027f8       ??_C@_0N@BCOBMINH@tbl?0idx?0stat?$AA@ 100cd7f8     interop.obj
 0002:00002808       ??_C@_0N@DFBDHAMM@sqlite_stat4?$AA@ 100cd808     interop.obj
 0002:00002818       ??_C@_0BM@EJONBLKK@tbl?0idx?0neq?0nlt?0ndlt?0sample?$AA@ 100cd818     interop.obj
 0002:00002834       ??_C@_0N@HKFCOGAL@sqlite_stat3?$AA@ 100cd834     interop.obj
 0002:00002844       ??_C@_0BH@NPNIHFHO@CREATE?5TABLE?5?$CFQ?4?$CFs?$CI?$CFs?$CJ?$AA@ 100cd844     interop.obj
 0002:0000285c       ??_C@_0BO@HNIAJBGG@DELETE?5FROM?5?$CFQ?4?$CFs?5WHERE?5?$CFs?$DN?$CFQ?$AA@ 100cd85c     interop.obj
 0002:0000287c       ??_C@_09BGHEAMKF@stat_init?$AA@ 100cd87c     interop.obj
 0002:00002888       ??_C@_09LFKFCDD@stat_push?$AA@ 100cd888     interop.obj
 0002:00002894       ??_C@_04FCIJFPNK@?$CFllu?$AA@ 100cd894     interop.obj
 0002:0000289c       ??_C@_05CCMFAMFC@?5?$CFllu?$AA@ 100cd89c     interop.obj
 0002:000028a4       ??_C@_05PDNAJGDH@?$CFllu?5?$AA@ 100cd8a4     interop.obj
 0002:000028ac       ??_C@_08FMENKBDE@stat_get?$AA@ 100cd8ac     interop.obj
 0002:000028b8       ??_C@_08FMHGAFBI@sqlite_?$CF?$AA@ 100cd8b8     interop.obj
 0002:000028c4       ??_C@_03FOPHMEHM@BBB?$AA@  100cd8c4     interop.obj
 0002:000028c8       ??_C@_03DAKNAIGI@idx?$AA@  100cd8c8     interop.obj
 0002:000028cc       ??_C@_03LIPNCMMN@tbl?$AA@  100cd8cc     interop.obj
 0002:000028d0       ??_C@_0L@DBBDLBKM@unordered?$CK?$AA@ 100cd8d0     interop.obj
 0002:000028dc       ??_C@_09OAJLDBEA@sz?$DN?$FL0?99?$FN?$CK?$AA@ 100cd8dc     interop.obj
 0002:000028e8       ??_C@_0M@JLHNGGLH@noskipscan?$CK?$AA@ 100cd8e8     interop.obj
 0002:000028f4       ??_C@_0DE@CFNJMCCH@SELECT?5idx?0neq?0nlt?0ndlt?0sample?5F@ 100cd8f4     interop.obj
 0002:00002928       ??_C@_0DG@DMFOEOLN@SELECT?5idx?0count?$CI?$CK?$CJ?5FROM?5?$CFQ?4sqli@ 100cd928     interop.obj
 0002:00002960       ??_C@_0ED@BDPAKHEL@SELECT?5idx?0neq?0nlt?0ndlt?0sqlite_r@ 100cd960     interop.obj
 0002:000029a4       ??_C@_0DG@KHFPEBKH@SELECT?5idx?0count?$CI?$CK?$CJ?5FROM?5?$CFQ?4sqli@ 100cd9a4     interop.obj
 0002:000029dc       ??_C@_0CJ@CJKDHBGL@SELECT?5tbl?0idx?0stat?5FROM?5?$CFQ?4sqli@ 100cd9dc     interop.obj
 0002:00002a08       ??_C@_0CF@FLFLBLIN@too?5many?5attached?5databases?5?9?5ma@ 100cda08     interop.obj
 0002:00002a30       ??_C@_0CK@JEFPBLHB@cannot?5ATTACH?5database?5within?5tr@ 100cda30     interop.obj
 0002:00002a5c       ??_C@_0BO@FOBANNIG@database?5?$CFs?5is?5already?5in?5use?$AA@ 100cda5c     interop.obj
 0002:00002a7c       ??_C@_0BN@IAAPNCPC@database?5is?5already?5attached?$AA@ 100cda7c     interop.obj
 0002:00002aa0       ??_C@_0EE@MLIDCBJA@attached?5databases?5must?5use?5the?5@ 100cdaa0     interop.obj
 0002:00002ae4       ??_C@_0BC@BMCHOAML@Invalid?5key?5value?$AA@ 100cdae4     interop.obj
 0002:00002af8       ??_C@_0BM@JECJFHOP@unable?5to?5open?5database?3?5?$CFs?$AA@ 100cdaf8     interop.obj
 0002:00002b14       ??_C@_0BF@PJFCJDG@no?5such?5database?3?5?$CFs?$AA@ 100cdb14     interop.obj
 0002:00002b2c       ??_C@_0BK@KGABJE@cannot?5detach?5database?5?$CFs?$AA@ 100cdb2c     interop.obj
 0002:00002b48       ??_C@_0CK@NCGPBHIO@cannot?5DETACH?5database?5within?5tr@ 100cdb48     interop.obj
 0002:00002b74       ??_C@_0BG@HKAEEBEM@database?5?$CFs?5is?5locked?$AA@ 100cdb74     interop.obj
 0002:00002b8c       ??_C@_0O@PDAEIIFA@sqlite_detach?$AA@ 100cdb8c     interop.obj
 0002:00002b9c       ??_C@_0O@GJLGHGMJ@sqlite_attach?$AA@ 100cdb9c     interop.obj
 0002:00002bac       ??_C@_0CO@IGOBCPDP@?$CFs?5?$CFT?5cannot?5reference?5objects?5i@ 100cdbac     interop.obj
 0002:00002bdc       ??_C@_0BI@NDHFOPCH@?$CFs?5cannot?5use?5variables?$AA@ 100cdbdc     interop.obj
 0002:00002bf4       ??_C@_0BH@KNHNEHPN@authorizer?5malfunction?$AA@ 100cdbf4     interop.obj
 0002:00002c0c       ??_C@_0CB@NCPGIDCD@access?5to?5?$CFs?4?$CFs?4?$CFs?5is?5prohibited@ 100cdc0c     interop.obj
 0002:00002c30       ??_C@_0BO@CMCIGPCH@access?5to?5?$CFs?4?$CFs?5is?5prohibited?$AA@ 100cdc30     interop.obj
 0002:00002c50       ??_C@_0P@PEBGBLCC@not?5authorized?$AA@ 100cdc50     interop.obj
 0002:00002c60       ??_C@_0N@IAMBEAMM@no?5such?5view?$AA@ 100cdc60     interop.obj
 0002:00002c70       ??_C@_0O@HKMEEONL@no?5such?5table?$AA@ 100cdc70     interop.obj
 0002:00002c80       ??_C@_0BB@GODMDNII@corrupt?5database?$AA@ 100cdc80     interop.obj
 0002:00002c94       ??_C@_0BE@DADMKDCE@unknown?5database?5?$CFT?$AA@ 100cdc94     interop.obj
 0002:00002ca8       ??_C@_0CK@DHAAGEMP@object?5name?5reserved?5for?5interna@ 100cdca8     interop.obj
 0002:00002cd4       ??_C@_0CJ@GGBIBJLH@temporary?5table?5name?5must?5be?5unq@ 100cdcd4     interop.obj
 0002:00002d00       ??_C@_0BI@NMBJKJHP@table?5?$CFT?5already?5exists?$AA@ 100cdd00     interop.obj
 0002:00002d18       ??_C@_0CD@FJHICPML@there?5is?5already?5an?5index?5named?5@ 100cdd18     interop.obj
 0002:00002d3c       ??_C@_0BH@KPDMNKOM@too?5many?5columns?5on?5?$CFs?$AA@ 100cdd3c     interop.obj
 0002:00002d54       ??_C@_0BK@CJJKBEHE@duplicate?5column?5name?3?5?$CFs?$AA@ 100cdd54     interop.obj
 0002:00002d70       ??_C@_0CN@MLPCOIJO@default?5value?5of?5column?5?$FL?$CFs?$FN?5is?5@ 100cdd70     interop.obj
 0002:00002da0       ??_C@_0CJ@LEOOFHMA@table?5?$CC?$CFs?$CC?5has?5more?5than?5one?5pri@ 100cdda0     interop.obj
 0002:00002dcc       ??_C@_07EHCIHKNF@INTEGER?$AA@ 100cddcc     interop.obj
 0002:00002dd4       ??_C@_0DI@IAIBDBA@AUTOINCREMENT?5is?5only?5allowed?5on@ 100cddd4     interop.obj
 0002:00002e0c       ??_C@_01IHBHIGKO@?0?$AA@   100cde0c     interop.obj
 0002:00002e10       ??_C@_03BMMPKCMF@?6?5?5?$AA@ 100cde10     interop.obj
 0002:00002e14       ??_C@_04PPJIEIMB@?0?6?5?5?$AA@ 100cde14     interop.obj
 0002:00002e1c       ??_C@_02EJGPDMNA@?6?$CJ?$AA@ 100cde1c     interop.obj
 0002:00002e20       ??_C@_0O@BLHKEBID@CREATE?5TABLE?5?$AA@ 100cde20     interop.obj
 0002:00002e30       ??_C@_05JELAHNDG@?5TEXT?$AA@ 100cde30     interop.obj
 0002:00002e38       ??_C@_04KMHHNFPL@?5NUM?$AA@ 100cde38     interop.obj
 0002:00002e40       ??_C@_04LKNDAIML@?5INT?$AA@ 100cde40     interop.obj
 0002:00002e48       ??_C@_05IKBMIIDA@?5REAL?$AA@ 100cde48     interop.obj
 0002:00002e50       ??_C@_0DC@FOEHBEGD@AUTOINCREMENT?5not?5allowed?5on?5WIT@ 100cde50     interop.obj
 0002:00002e84       ??_C@_0CA@OMALJPLC@PRIMARY?5KEY?5missing?5on?5table?5?$CFs?$AA@ 100cde84     interop.obj
 0002:00002ea4       ??_C@_05LCLENNFI@table?$AA@ 100cdea4     interop.obj
 0002:00002eac       ??_C@_05HJCCDKBG@TABLE?$AA@ 100cdeac     interop.obj
 0002:00002eb4       ??_C@_04CHADEDPO@view?$AA@ 100cdeb4     interop.obj
 0002:00002ebc       ??_C@_04OLDJKBIG@VIEW?$AA@ 100cdebc     interop.obj
 0002:00002ec4       ??_C@_0P@BPBAOJCC@CREATE?5?$CFs?5?$CF?4?$CKs?$AA@ 100cdec4     interop.obj
 0002:00002ed8       ??_C@_0FH@BLIGLCKI@UPDATE?5?$CFQ?4?$CFs?5SET?5type?$DN?8?$CFs?8?0?5name@ 100cded8     interop.obj
 0002:00002f30       ??_C@_0CK@BLJIJAMD@CREATE?5TABLE?5?$CFQ?4sqlite_sequence?$CI@ 100cdf30     interop.obj
 0002:00002f5c       ??_C@_0CC@CBOBIFGC@tbl_name?$DN?8?$CFq?8?5AND?5type?$CB?$DN?8trigger@ 100cdf5c     interop.obj
 0002:00002f80       ??_C@_0CE@HIMMFEMD@parameters?5are?5not?5allowed?5in?5vi@ 100cdf80     interop.obj
 0002:00002fa4       ??_C@_0BO@BLAOKNKN@view?5?$CFs?5is?5circularly?5defined?$AA@ 100cdfa4     interop.obj
 0002:00002fc4       ??_C@_0DI@GKCMDFKF@UPDATE?5?$CFQ?4?$CFs?5SET?5rootpage?$DN?$CFd?5WHE@ 100cdfc4     interop.obj
 0002:00002ffc       ??_C@_0O@IOJCPKAP@sqlite_stat?$CFd?$AA@ 100cdffc     interop.obj
 0002:0000300c       ??_C@_0CN@DKDOKGOO@DELETE?5FROM?5?$CFQ?4sqlite_sequence?5W@ 100ce00c     interop.obj
 0002:0000303c       ??_C@_0DI@FOLLFOLB@DELETE?5FROM?5?$CFQ?4?$CFs?5WHERE?5tbl_name@ 100ce03c     interop.obj
 0002:00003074       ??_C@_0M@IHGMMCJN@sqlite_stat?$AA@ 100ce074     interop.obj
 0002:00003080       ??_C@_0BM@JEGMLIGC@table?5?$CFs?5may?5not?5be?5dropped?$AA@ 100ce080     interop.obj
 0002:0000309c       ??_C@_0CC@HNNEDPB@use?5DROP?5TABLE?5to?5delete?5table?5?$CF@ 100ce09c     interop.obj
 0002:000030c0       ??_C@_0CA@FJIHAAAA@use?5DROP?5VIEW?5to?5delete?5view?5?$CFs?$AA@ 100ce0c0     interop.obj
 0002:000030e0       ??_C@_0DP@HFDIOLMB@foreign?5key?5on?5?$CFs?5should?5referen@ 100ce0e0     interop.obj
 0002:00003120       ??_C@_0FO@BDBBNOLJ@number?5of?5columns?5in?5foreign?5key@ 100ce120     interop.obj
 0002:00003180       ??_C@_0CO@ECJPGOGF@unknown?5column?5?$CC?$CFs?$CC?5in?5foreign?5k@ 100ce180     interop.obj
 0002:000031b0       ??_C@_05FKHKFDID@index?$AA@ 100ce1b0     interop.obj
 0002:000031b8       ??_C@_0DC@MMFBMLFB@cannot?5create?5a?5TEMP?5index?5on?5no@ 100ce1b8     interop.obj
 0002:000031ec       ??_C@_09NGMBFCCJ@altertab_?$AA@ 100ce1ec     interop.obj
 0002:000031f8       ??_C@_0BM@KIGEJLNH@table?5?$CFs?5may?5not?5be?5indexed?$AA@ 100ce1f8     interop.obj
 0002:00003214       ??_C@_0BJ@CFGNJLOC@views?5may?5not?5be?5indexed?$AA@ 100ce214     interop.obj
 0002:00003230       ??_C@_0CC@FKDNLIPM@virtual?5tables?5may?5not?5be?5indexe@ 100ce230     interop.obj
 0002:00003254       ??_C@_0CC@CKJEJGLG@there?5is?5already?5a?5table?5named?5?$CF@ 100ce254     interop.obj
 0002:00003278       ??_C@_0BI@HPCDPJFN@index?5?$CFs?5already?5exists?$AA@ 100ce278     interop.obj
 0002:00003290       ??_C@_0BH@HCCALECK@sqlite_autoindex_?$CFs_?$CFd?$AA@ 100ce290     interop.obj
 0002:000032a8       ??_C@_0DN@KANOKGBN@expressions?5prohibited?5in?5PRIMAR@ 100ce2a8     interop.obj
 0002:000032e8       ??_C@_0CK@BPKJMBLB@conflicting?5ON?5CONFLICT?5clauses?5@ 100ce2e8     interop.obj
 0002:00003314       ??_C@_07OGDPOKCI@?5UNIQUE?$AA@ 100ce314     interop.obj
 0002:0000331c       ??_C@_0BE@NHCJMGDI@CREATE?$CFs?5INDEX?5?$CF?4?$CKs?$AA@ 100ce31c     interop.obj
 0002:00003330       ??_C@_0DA@DLDDDEKN@INSERT?5INTO?5?$CFQ?4?$CFs?5VALUES?$CI?8index?8@ 100ce330     interop.obj
 0002:00003360       ??_C@_0BL@CHCJOOMG@name?$DN?8?$CFq?8?5AND?5type?$DN?8index?8?$AA@ 100ce360     interop.obj
 0002:0000337c       ??_C@_0BC@JBPCAJCH@no?5such?5index?3?5?$CFS?$AA@ 100ce37c     interop.obj
 0002:00003390       ??_C@_0EJ@MFMNFJHB@index?5associated?5with?5UNIQUE?5or?5@ 100ce390     interop.obj
 0002:000033dc       ??_C@_0DB@DNHAJCKG@DELETE?5FROM?5?$CFQ?4?$CFs?5WHERE?5name?$DN?$CFQ?5@ 100ce3dc     interop.obj
 0002:00003410       ??_C@_02BFICIOJL@ON?$AA@   100ce410     interop.obj
 0002:00003414       ??_C@_05EOONBMLM@USING?$AA@ 100ce414     interop.obj
 0002:0000341c       ??_C@_0CE@GFPKLECD@a?5JOIN?5clause?5is?5required?5before@ 100ce41c     interop.obj
 0002:00003440       ??_C@_05ILMMJGEC@BEGIN?$AA@ 100ce440     interop.obj
 0002:00003448       ??_C@_06IBPPMFNL@COMMIT?$AA@ 100ce448     interop.obj
 0002:00003450       ??_C@_08COBEBGNM@ROLLBACK?$AA@ 100ce450     interop.obj
 0002:0000345c       ??_C@_07LDDIIHCM@RELEASE?$AA@ 100ce45c     interop.obj
 0002:00003468       ??_C@_0EG@GIEOJFED@unable?5to?5open?5a?5temporary?5datab@ 100ce468     interop.obj
 0002:000034b0       ??_C@_0L@FKJLCLHK@index?5?8?$CFq?8?$AA@ 100ce4b0     interop.obj
 0002:000034bc       ??_C@_02KEGNLNML@?0?5?$AA@ 100ce4bc     interop.obj
 0002:000034c0       ??_C@_05NNFHCGPF@?$CFs?4?$CFs?$AA@ 100ce4c0     interop.obj
 0002:000034c8       ??_C@_08IBDKHCHA@?$CFs?4rowid?$AA@ 100ce4c8     interop.obj
 0002:000034d4       ??_C@_0CO@PMBDNHDC@unable?5to?5identify?5the?5object?5to@ 100ce4d4     interop.obj
 0002:00003504       ??_C@_0BO@HBGGJFCF@duplicate?5WITH?5table?5name?3?5?$CFs?$AA@ 100ce504     interop.obj
 0002:00003524       ??_C@_0BP@CGLMEPGG@no?5such?5collation?5sequence?3?5?$CFs?$AA@ 100ce524     interop.obj
 0002:00003544       ??_C@_0BN@GLMOOAMK@table?5?$CFs?5may?5not?5be?5modified?$AA@ 100ce544     interop.obj
 0002:00003564       ??_C@_0CG@CNPJIJGN@cannot?5modify?5?$CFs?5because?5it?5is?5a@ 100ce564     interop.obj
 0002:0000358c       ??_C@_0N@DAGIBCDP@rows?5deleted?$AA@ 100ce58c     interop.obj
 0002:0000359c       ??_C@_04CIMGMMMG@text?$AA@ 100ce59c     interop.obj
 0002:000035a4       ??_C@_04LPJPOBEM@blob?$AA@ 100ce5a4     interop.obj
 0002:000035ac       ??_C@_0BB@KBEKGHFK@integer?5overflow?$AA@ 100ce5ac     interop.obj
 0002:000035c0       ??_C@_04HGGMHPIM@?$CF?4?$CKf?$AA@ 100ce5c0     interop.obj
 0002:000035c8       ??_C@_0CB@LFIMBCA@LIKE?5or?5GLOB?5pattern?5too?5complex@ 100ce5c8     interop.obj
 0002:000035ec       ??_C@_0CN@PAMOLCDH@ESCAPE?5expression?5must?5be?5a?5sing@ 100ce5ec     interop.obj
 0002:0000361c       ??_C@_06CLNEDLBE@?$CF?$CB?420e?$AA@ 100ce61c     interop.obj
 0002:00003624       ??_C@_01CLKCMJKC@?5?$AA@   100ce624     interop.obj
 0002:00003628       ??_C@_04BBKKAMHH@?$DP000?$AA@ 100ce628     interop.obj
 0002:00003630       ??_C@_05JGHLFIHG@MATCH?$AA@ 100ce630     interop.obj
 0002:00003638       ??_C@_04HPDJJBAE@like?$AA@ 100ce638     interop.obj
 0002:00003640       ??_C@_04HHHPGODM@glob?$AA@ 100ce640     interop.obj
 0002:00003648       ??_C@_07KFKPEFNG@soundex?$AA@ 100ce648     interop.obj
 0002:00003650       ??_C@_0P@BJKPICNH@load_extension?$AA@ 100ce650     interop.obj
 0002:00003660       ??_C@_0BK@NPIMPNGH@sqlite_compileoption_used?$AA@ 100ce660     interop.obj
 0002:0000367c       ??_C@_0BJ@BHKPGCCL@sqlite_compileoption_get?$AA@ 100ce67c     interop.obj
 0002:00003698       ??_C@_08FIGEBGNH@unlikely?$AA@ 100ce698     interop.obj
 0002:000036a4       ??_C@_0L@EOIJFFJE@likelihood?$AA@ 100ce6a4     interop.obj
 0002:000036b0       ??_C@_06FMFEOJBE@likely?$AA@ 100ce6b0     interop.obj
 0002:000036b8       ??_C@_05GLDKFKCA@ltrim?$AA@ 100ce6b8     interop.obj
 0002:000036c0       ??_C@_05FCOGDJML@rtrim?$AA@ 100ce6c0     interop.obj
 0002:000036c8       ??_C@_04GDOMMDLP@trim?$AA@ 100ce6c8     interop.obj
 0002:000036d0       ??_C@_03KLIPLJLL@min?$AA@  100ce6d0     interop.obj
 0002:000036d4       ??_C@_03LJAEFNNE@max?$AA@  100ce6d4     interop.obj
 0002:000036d8       ??_C@_06NDJPCPHC@typeof?$AA@ 100ce6d8     interop.obj
 0002:000036e0       ??_C@_06IJDLPEM@length?$AA@ 100ce6e0     interop.obj
 0002:000036e8       ??_C@_05HALPBNGI@instr?$AA@ 100ce6e8     interop.obj
 0002:000036f0       ??_C@_06OHJFMFMB@printf?$AA@ 100ce6f0     interop.obj
 0002:000036f8       ??_C@_07GAJMMAJO@unicode?$AA@ 100ce6f8     interop.obj
 0002:00003700       ??_C@_04ENMBGAPA@char?$AA@ 100ce700     interop.obj
 0002:00003708       ??_C@_03BCGAIFPO@abs?$AA@  100ce708     interop.obj
 0002:0000370c       ??_C@_05MIMAKCN@round?$AA@ 100ce70c     interop.obj
 0002:00003714       ??_C@_05NECKJAMC@upper?$AA@ 100ce714     interop.obj
 0002:0000371c       ??_C@_05IPJEPLHL@lower?$AA@ 100ce71c     interop.obj
 0002:00003724       ??_C@_03IJNDAFDK@hex?$AA@  100ce724     interop.obj
 0002:00003728       ??_C@_06FAHGEKJN@ifnull?$AA@ 100ce728     interop.obj
 0002:00003730       ??_C@_06NLFCANPD@random?$AA@ 100ce730     interop.obj
 0002:00003738       ??_C@_0L@IDMFPHDO@randomblob?$AA@ 100ce738     interop.obj
 0002:00003744       ??_C@_06LLGGGFDC@nullif?$AA@ 100ce744     interop.obj
 0002:0000374c       ??_C@_0P@IPDPEBN@sqlite_version?$AA@ 100ce74c     interop.obj
 0002:0000375c       ??_C@_0BB@HPCCOLJC@sqlite_source_id?$AA@ 100ce75c     interop.obj
 0002:00003770       ??_C@_0L@HNFKFGGK@sqlite_log?$AA@ 100ce770     interop.obj
 0002:0000377c       ??_C@_05JHEGFHLM@quote?$AA@ 100ce77c     interop.obj
 0002:00003784       ??_C@_0BC@EKKKCJJE@last_insert_rowid?$AA@ 100ce784     interop.obj
 0002:00003798       ??_C@_07HFLFHMNL@changes?$AA@ 100ce798     interop.obj
 0002:000037a0       ??_C@_0O@MLEKHAGK@total_changes?$AA@ 100ce7a0     interop.obj
 0002:000037b0       ??_C@_07CLEHDIEJ@replace?$AA@ 100ce7b0     interop.obj
 0002:000037b8       ??_C@_08OAGHJJOG@zeroblob?$AA@ 100ce7b8     interop.obj
 0002:000037c4       ??_C@_06DAHFIGOC@substr?$AA@ 100ce7c4     interop.obj
 0002:000037cc       ??_C@_03CFFIJAMA@sum?$AA@  100ce7cc     interop.obj
 0002:000037d0       ??_C@_05KBOMEDGA@total?$AA@ 100ce7d0     interop.obj
 0002:000037d8       ??_C@_03CHOBFJAH@avg?$AA@  100ce7d8     interop.obj
 0002:000037dc       ??_C@_05IOMEMJEC@count?$AA@ 100ce7dc     interop.obj
 0002:000037e4       ??_C@_0N@KKLIBDFO@group_concat?$AA@ 100ce7e4     interop.obj
 0002:000037f4       ??_C@_08FNGHHBID@coalesce?$AA@ 100ce7f4     interop.obj
 0002:00003800       ??_C@_0CN@NOKHDNFH@foreign?5key?5mismatch?5?9?5?$CC?$CFw?$CC?5refe@ 100ce800     interop.obj
 0002:00003830       ??_C@_0CA@HKGLKLIP@table?5?$CFS?5has?5no?5column?5named?5?$CFs?$AA@ 100ce830     interop.obj
 0002:00003850       ??_C@_0DE@HLHNLKJ@table?5?$CFS?5has?5?$CFd?5columns?5but?5?$CFd?5v@ 100ce850     interop.obj
 0002:00003884       ??_C@_0BJ@IABIHKKK@?$CFd?5values?5for?5?$CFd?5columns?$AA@ 100ce884     interop.obj
 0002:000038a0       ??_C@_0O@OMFDFDMH@rows?5inserted?$AA@ 100ce8a0     interop.obj
 0002:000038b0       ??_C@_03OCHKFGFI@dll?$AA@  100ce8b0     interop.obj
 0002:000038b4       ??_C@_0BH@NNAEMFED@sqlite3_extension_init?$AA@ 100ce8b4     interop.obj
 0002:000038cc       ??_C@_0CD@FENJJFPL@unable?5to?5open?5shared?5library?5?$FL?$CF@ 100ce8cc     interop.obj
 0002:000038f0       ??_C@_08MIGLKGCA@sqlite3_?$AA@ 100ce8f0     interop.obj
 0002:000038fc       ??_C@_03LPIGJBNC@lib?$AA@  100ce8fc     interop.obj
 0002:00003900       ??_C@_05PAGLDNCP@_init?$AA@ 100ce900     interop.obj
 0002:00003908       ??_C@_0CL@IHPFGADB@no?5entry?5point?5?$FL?$CFs?$FN?5in?5shared?5li@ 100ce908     interop.obj
 0002:00003934       ??_C@_0CA@BPLHPOIJ@error?5during?5initialization?3?5?$CFs?$AA@ 100ce934     interop.obj
 0002:00003954       ??_C@_0CH@EKKEGGML@automatic?5extension?5loading?5fail@ 100ce954     interop.obj
 0002:0000397c       ??_C@_0BE@GNJIECAI@activate_extensions?$AA@ 100ce97c     interop.obj
 0002:00003990       ??_C@_0P@MIBGKNHF@application_id?$AA@ 100ce990     interop.obj
 0002:000039a0       ??_C@_0M@ENMLGDH@auto_vacuum?$AA@ 100ce9a0     interop.obj
 0002:000039ac       ??_C@_0BA@NMINPKHE@automatic_index?$AA@ 100ce9ac     interop.obj
 0002:000039bc       ??_C@_0N@ELBKLHHC@busy_timeout?$AA@ 100ce9bc     interop.obj
 0002:000039cc       ??_C@_0L@JIGNFOJJ@cache_size?$AA@ 100ce9cc     interop.obj
 0002:000039d8       ??_C@_0M@GAIOFEBI@cache_spill?$AA@ 100ce9d8     interop.obj
 0002:000039e4       ??_C@_0BE@LKBHCIHN@case_sensitive_like?$AA@ 100ce9e4     interop.obj
 0002:000039f8       ??_C@_0BA@ILJBCKLF@cell_size_check?$AA@ 100ce9f8     interop.obj
 0002:00003a08       ??_C@_0BF@IOJNJBPA@checkpoint_fullfsync?$AA@ 100cea08     interop.obj
 0002:00003a20       ??_C@_0P@KOJNIGCH@collation_list?$AA@ 100cea20     interop.obj
 0002:00003a30       ??_C@_0BA@CFJEIIDP@compile_options?$AA@ 100cea30     interop.obj
 0002:00003a40       ??_C@_0O@PEBBJPHD@count_changes?$AA@ 100cea40     interop.obj
 0002:00003a50       ??_C@_0BF@OGPCDMDP@data_store_directory?$AA@ 100cea50     interop.obj
 0002:00003a68       ??_C@_0N@OFPBFGHH@data_version?$AA@ 100cea68     interop.obj
 0002:00003a78       ??_C@_0O@EBMNDACF@database_list?$AA@ 100cea78     interop.obj
 0002:00003a88       ??_C@_0BD@EMJOENCP@default_cache_size?$AA@ 100cea88     interop.obj
 0002:00003a9c       ??_C@_0BD@DIGJFFIE@defer_foreign_keys?$AA@ 100cea9c     interop.obj
 0002:00003ab0       ??_C@_0BH@CMLDBHJP@empty_result_callbacks?$AA@ 100ceab0     interop.obj
 0002:00003ac8       ??_C@_08MLPGAEIK@encoding?$AA@ 100ceac8     interop.obj
 0002:00003ad4       ??_C@_0BC@CIFGNOOA@foreign_key_check?$AA@ 100cead4     interop.obj
 0002:00003ae8       ??_C@_0BB@KJMCGNAI@foreign_key_list?$AA@ 100ceae8     interop.obj
 0002:00003afc       ??_C@_0N@CEEMEAMB@foreign_keys?$AA@ 100ceafc     interop.obj
 0002:00003b0c       ??_C@_0P@GDKICNML@freelist_count?$AA@ 100ceb0c     interop.obj
 0002:00003b1c       ??_C@_0BC@CBBNFKC@full_column_names?$AA@ 100ceb1c     interop.obj
 0002:00003b30       ??_C@_09MLJLLBEB@fullfsync?$AA@ 100ceb30     interop.obj
 0002:00003b3c       ??_C@_06BHJHKMJC@hexkey?$AA@ 100ceb3c     interop.obj
 0002:00003b44       ??_C@_08PCDPBHPP@hexrekey?$AA@ 100ceb44     interop.obj
 0002:00003b50       ??_C@_0BJ@KLIMENGM@ignore_check_constraints?$AA@ 100ceb50     interop.obj
 0002:00003b6c       ??_C@_0BD@IEMDKFHA@incremental_vacuum?$AA@ 100ceb6c     interop.obj
 0002:00003b80       ??_C@_0L@CKPANNIC@index_info?$AA@ 100ceb80     interop.obj
 0002:00003b8c       ??_C@_0L@MMBMMAEK@index_list?$AA@ 100ceb8c     interop.obj
 0002:00003b98       ??_C@_0M@FBDGHLPH@index_xinfo?$AA@ 100ceb98     interop.obj
 0002:00003ba4       ??_C@_0BA@EDNFHOBJ@integrity_check?$AA@ 100ceba4     interop.obj
 0002:00003bb4       ??_C@_0N@IPLFJDHP@journal_mode?$AA@ 100cebb4     interop.obj
 0002:00003bc4       ??_C@_0BD@MCBLCGGI@journal_size_limit?$AA@ 100cebc4     interop.obj
 0002:00003bd8       ??_C@_03ICHNJLJF@key?$AA@  100cebd8     interop.obj
 0002:00003bdc       ??_C@_0BD@LEFOEGBK@legacy_file_format?$AA@ 100cebdc     interop.obj
 0002:00003bf0       ??_C@_0N@NOOMDJH@locking_mode?$AA@ 100cebf0     interop.obj
 0002:00003c00       ??_C@_0P@FMLMLOHD@max_page_count?$AA@ 100cec00     interop.obj
 0002:00003c10       ??_C@_09CBABOEGE@mmap_size?$AA@ 100cec10     interop.obj
 0002:00003c1c       ??_C@_0L@OBBCDPFM@page_count?$AA@ 100cec1c     interop.obj
 0002:00003c28       ??_C@_09OGOMKHMG@page_size?$AA@ 100cec28     interop.obj
 0002:00003c34       ??_C@_0L@LILGGAHH@query_only?$AA@ 100cec34     interop.obj
 0002:00003c40       ??_C@_0M@EDPCDMIO@quick_check?$AA@ 100cec40     interop.obj
 0002:00003c4c       ??_C@_0BB@KLHJNGLH@read_uncommitted?$AA@ 100cec4c     interop.obj
 0002:00003c60       ??_C@_0BD@IAMNLMFM@recursive_triggers?$AA@ 100cec60     interop.obj
 0002:00003c74       ??_C@_05FMDLBNN@rekey?$AA@ 100cec74     interop.obj
 0002:00003c7c       ??_C@_0BK@ECMFJINF@reverse_unordered_selects?$AA@ 100cec7c     interop.obj
 0002:00003c98       ??_C@_0P@JGMMHBPP@schema_version?$AA@ 100cec98     interop.obj
 0002:00003ca8       ??_C@_0O@CPOJHNIK@secure_delete?$AA@ 100ceca8     interop.obj
 0002:00003cb8       ??_C@_0BD@BFIEDLEP@short_column_names?$AA@ 100cecb8     interop.obj
 0002:00003ccc       ??_C@_0O@ILHLPNHH@shrink_memory?$AA@ 100ceccc     interop.obj
 0002:00003cdc       ??_C@_0BA@HCOALODB@soft_heap_limit?$AA@ 100cecdc     interop.obj
 0002:00003cec       ??_C@_05BLKJBNOD@stats?$AA@ 100cecec     interop.obj
 0002:00003cf4       ??_C@_0M@GKGFOGDE@synchronous?$AA@ 100cecf4     interop.obj
 0002:00003d00       ??_C@_0L@NEMFJAGM@table_info?$AA@ 100ced00     interop.obj
 0002:00003d0c       ??_C@_0L@JEPCDDIC@temp_store?$AA@ 100ced0c     interop.obj
 0002:00003d18       ??_C@_0BF@OPALIJKE@temp_store_directory?$AA@ 100ced18     interop.obj
 0002:00003d30       ??_C@_07NFPADACG@threads?$AA@ 100ced30     interop.obj
 0002:00003d38       ??_C@_0N@MPKCHLKL@user_version?$AA@ 100ced38     interop.obj
 0002:00003d48       ??_C@_0BD@JPABJEAI@wal_autocheckpoint?$AA@ 100ced48     interop.obj
 0002:00003d5c       ??_C@_0P@OLFGCBDE@wal_checkpoint?$AA@ 100ced5c     interop.obj
 0002:00003d6c       ??_C@_0BA@OHBCLCAL@writable_schema?$AA@ 100ced6c     interop.obj
 0002:00003d7c       ??_C@_09JJPHINFN@exclusive?$AA@ 100ced7c     interop.obj
 0002:00003d88       ??_C@_06IKLLLDHL@normal?$AA@ 100ced88     interop.obj
 0002:00003d90       ??_C@_04CGFJFPFD@none?$AA@ 100ced90     interop.obj
 0002:00003d98       ??_C@_04PLMLMMEO@full?$AA@ 100ced98     interop.obj
 0002:00003da0       ??_C@_0M@LPKHOAFP@incremental?$AA@ 100ceda0     interop.obj
 0002:00003dac       ??_C@_04DAMGJPCA@file?$AA@ 100cedac     interop.obj
 0002:00003db4       ??_C@_06HLKELJGF@memory?$AA@ 100cedb4     interop.obj
 0002:00003dbc       ??_C@_0DO@MAKCDDCJ@temporary?5storage?5cannot?5be?5chan@ 100cedbc     interop.obj
 0002:00003dfc       ??_C@_08NNDOPPOM@SET?5NULL?$AA@ 100cedfc     interop.obj
 0002:00003e08       ??_C@_0M@GCMLNHF@SET?5DEFAULT?$AA@ 100cee08     interop.obj
 0002:00003e14       ??_C@_07JDMPGCJB@CASCADE?$AA@ 100cee14     interop.obj
 0002:00003e1c       ??_C@_08KJMJNHDG@RESTRICT?$AA@ 100cee1c     interop.obj
 0002:00003e28       ??_C@_09DBFINONP@NO?5ACTION?$AA@ 100cee28     interop.obj
 0002:00003e34       ??_C@_06FOBLBEIN@delete?$AA@ 100cee34     interop.obj
 0002:00003e3c       ??_C@_07EMFBDGOD@persist?$AA@ 100cee3c     interop.obj
 0002:00003e44       ??_C@_03MCADLMAF@off?$AA@  100cee44     interop.obj
 0002:00003e48       ??_C@_08MABILMFG@truncate?$AA@ 100cee48     interop.obj
 0002:00003e54       ??_C@_03KIAODNHK@wal?$AA@  100cee54     interop.obj
 0002:00003e58       ??_C@_03GMLCELFL@?9?$CFT?$AA@ 100cee58     interop.obj
 0002:00003e5c       ??_C@_06KJFADLGN@result?$AA@ 100cee5c     interop.obj
 0002:00003e64       ??_C@_0BJ@INLPNACB@not?5a?5writable?5directory?$AA@ 100cee64     interop.obj
 0002:00003e80       ??_C@_0DF@GMDBDCKL@Safety?5level?5may?5not?5be?5changed?5@ 100cee80     interop.obj
 0002:00003eb8       ??_C@_03LBLPCGAC@cid?$AA@  100ceeb8     interop.obj
 0002:00003ebc       ??_C@_04MEMAJGDJ@name?$AA@ 100ceebc     interop.obj
 0002:00003ec4       ??_C@_04GPMDFGEJ@type?$AA@ 100ceec4     interop.obj
 0002:00003ecc       ??_C@_07EAJHGOKJ@notnull?$AA@ 100ceecc     interop.obj
 0002:00003ed4       ??_C@_0L@KNDFGGNJ@dflt_value?$AA@ 100ceed4     interop.obj
 0002:00003ee0       ??_C@_02NCEGPMNB@pk?$AA@   100ceee0     interop.obj
 0002:00003ee4       ??_C@_06OLNPHCKJ@issisi?$AA@ 100ceee4     interop.obj
 0002:00003eec       ??_C@_05IGKADHGO@width?$AA@ 100ceeec     interop.obj
 0002:00003ef4       ??_C@_06LNLHEAAG@height?$AA@ 100ceef4     interop.obj
 0002:00003efc       ??_C@_04NBMLNMO@ssii?$AA@  100ceefc     interop.obj
 0002:00003f04       ??_C@_03FEAIAPNA@sii?$AA@  100cef04     interop.obj
 0002:00003f08       ??_C@_05OBPGIPLF@seqno?$AA@ 100cef08     interop.obj
 0002:00003f10       ??_C@_04EBPADADD@desc?$AA@ 100cef10     interop.obj
 0002:00003f18       ??_C@_04MIPPEMF@coll?$AA@  100cef18     interop.obj
 0002:00003f20       ??_C@_03NLIBECPA@iis?$AA@  100cef20     interop.obj
 0002:00003f24       ??_C@_03HKBNJOIN@isi?$AA@  100cef24     interop.obj
 0002:00003f28       ??_C@_03NPAJGOON@seq?$AA@  100cef28     interop.obj
 0002:00003f2c       ??_C@_06ODCMFGLL@unique?$AA@ 100cef2c     interop.obj
 0002:00003f34       ??_C@_06NHCMNMEH@origin?$AA@ 100cef34     interop.obj
 0002:00003f3c       ??_C@_07JHIHCBKH@partial?$AA@ 100cef3c     interop.obj
 0002:00003f44       ??_C@_01PAPGNFGE@c?$AA@    100cef44     interop.obj
 0002:00003f48       ??_C@_01OMGOGALD@u?$AA@    100cef48     interop.obj
 0002:00003f4c       ??_C@_05HLBCCELP@isisi?$AA@ 100cef4c     interop.obj
 0002:00003f54       ??_C@_03MKDAGEFG@iss?$AA@  100cef54     interop.obj
 0002:00003f58       ??_C@_02EDKKPMHH@is?$AA@   100cef58     interop.obj
 0002:00003f5c       ??_C@_02EGCJHIOB@id?$AA@   100cef5c     interop.obj
 0002:00003f60       ??_C@_04HNEBHLOP@from?$AA@ 100cef60     interop.obj
 0002:00003f68       ??_C@_02LBCDJBAJ@to?$AA@   100cef68     interop.obj
 0002:00003f6c       ??_C@_09DFBGJPOA@on_update?$AA@ 100cef6c     interop.obj
 0002:00003f78       ??_C@_09BILGEHCE@on_delete?$AA@ 100cef78     interop.obj
 0002:00003f84       ??_C@_05FNONLPDI@match?$AA@ 100cef84     interop.obj
 0002:00003f8c       ??_C@_04OKGDLNCL@NONE?$AA@ 100cef8c     interop.obj
 0002:00003f94       ??_C@_08ODPJLLLG@iissssss?$AA@ 100cef94     interop.obj
 0002:00003fa0       ??_C@_05KDMKNECD@rowid?$AA@ 100cefa0     interop.obj
 0002:00003fa8       ??_C@_06MLKDMCBD@parent?$AA@ 100cefa8     interop.obj
 0002:00003fb0       ??_C@_04IFBPKEAB@fkid?$AA@ 100cefb0     interop.obj
 0002:00003fb8       ??_C@_02OCDGCAAK@si?$AA@   100cefb8     interop.obj
 0002:00003fbc       ??_C@_0BI@FOLPKNAK@?$CK?$CK?$CK?5in?5database?5?$CFs?5?$CK?$CK?$CK?6?$AA@ 100cefbc     interop.obj
 0002:00003fd4       ??_C@_0BE@NPIDKCIA@NULL?5value?5in?5?$CFs?4?$CFs?$AA@ 100cefd4     interop.obj
 0002:00003fe8       ??_C@_04BNLAAGGP@row?5?$AA@ 100cefe8     interop.obj
 0002:00003ff0       ??_C@_0BF@JGBLFHJL@?5missing?5from?5index?5?$AA@ 100ceff0     interop.obj
 0002:00004008       ??_C@_0BL@POCBBOHD@non?9unique?5entry?5in?5index?5?$AA@ 100cf008     interop.obj
 0002:00004024       ??_C@_0BN@JKHLHJNK@wrong?5?$CD?5of?5entries?5in?5index?5?$AA@ 100cf024     interop.obj
 0002:00004044       ??_C@_02MFDMBIJM@ok?$AA@   100cf044     interop.obj
 0002:00004048       ??_C@_04OOMJJNCF@UTF8?$AA@ 100cf048     interop.obj
 0002:00004050       ??_C@_05EGJIMALK@UTF?98?$AA@ 100cf050     interop.obj
 0002:00004058       ??_C@_08HMPANPBC@UTF?916le?$AA@ 100cf058     interop.obj
 0002:00004064       ??_C@_08HGGOPCBI@UTF?916be?$AA@ 100cf064     interop.obj
 0002:00004070       ??_C@_07JJMGGCAM@UTF16le?$AA@ 100cf070     interop.obj
 0002:00004078       ??_C@_07JDFIEPAG@UTF16be?$AA@ 100cf078     interop.obj
 0002:00004080       ??_C@_06KNDPGIKI@UTF?916?$AA@ 100cf080     interop.obj
 0002:00004088       ??_C@_05MNCHLHCA@UTF16?$AA@ 100cf088     interop.obj
 0002:00004090       ??_C@_0BJ@GJBMJNNI@unsupported?5encoding?3?5?$CFs?$AA@ 100cf090     interop.obj
 0002:000040ac       ??_C@_0P@DCFGLPDE@compile_option?$AA@ 100cf0ac     interop.obj
 0002:000040bc       ??_C@_04COIEGINH@busy?$AA@ 100cf0bc     interop.obj
 0002:000040c4       ??_C@_03MGHMBJCF@log?$AA@  100cf0c4     interop.obj
 0002:000040c8       ??_C@_0N@NLAOCFOK@checkpointed?$AA@ 100cf0c8     interop.obj
 0002:000040d8       ??_C@_07LDHOHMPD@restart?$AA@ 100cf0d8     interop.obj
 0002:000040e0       ??_C@_07DDHNKDGP@timeout?$AA@ 100cf0e0     interop.obj
 0002:000040e8       ??_C@_04OFGBMGOI@see?9?$AA@ 100cf0e8     interop.obj
 0002:000040f0       ??_C@_01OGPIMHDM@?$DP?$AA@ 100cf0f0     interop.obj
 0002:000040f4       ??_C@_0BP@EHGGIFII@malformed?5database?5schema?5?$CI?$CFs?$CJ?$AA@ 100cf0f4     interop.obj
 0002:00004114       ??_C@_07MHAICMEC@?$CFz?5?9?5?$CFs?$AA@ 100cf114     interop.obj
 0002:0000411c       ??_C@_07HMOAJMHK@create?5?$AA@ 100cf11c     interop.obj
 0002:00004124       ??_C@_0BB@JDJPANJL@invalid?5rootpage?$AA@ 100cf124     interop.obj
 0002:00004138       ??_C@_0EM@NJIAEPEM@CREATE?5TABLE?5x?$CItype?5text?0name?5te@ 100cf138     interop.obj
 0002:00004184       ??_C@_0BI@FFDCNLCF@unsupported?5file?5format?$AA@ 100cf184     interop.obj
 0002:0000419c       ??_C@_0DH@KOGIOIF@SELECT?5name?0?5rootpage?0?5sql?5FROM?5@ 100cf19c     interop.obj
 0002:000041d4       ??_C@_0BO@EBFEALBC@database?5schema?5is?5locked?3?5?$CFs?$AA@ 100cf1d4     interop.obj
 0002:000041f4       ??_C@_0BD@NDJILONF@statement?5too?5long?$AA@ 100cf1f4     interop.obj
 0002:00004208       ??_C@_04HLBMEOMD@addr?$AA@ 100cf208     interop.obj
 0002:00004210       ??_C@_06POMMAHJK@opcode?$AA@ 100cf210     interop.obj
 0002:00004218       ??_C@_02JCBCEJAP@p1?$AA@   100cf218     interop.obj
 0002:0000421c       ??_C@_02LJDPBKMM@p2?$AA@   100cf21c     interop.obj
 0002:00004220       ??_C@_02KACECLIN@p3?$AA@   100cf220     interop.obj
 0002:00004224       ??_C@_02OPGFLNEK@p4?$AA@   100cf224     interop.obj
 0002:00004228       ??_C@_02PGHOIMAL@p5?$AA@   100cf228     interop.obj
 0002:0000422c       ??_C@_07GJGNEJFD@comment?$AA@ 100cf22c     interop.obj
 0002:00004234       ??_C@_08CAKEGGLM@selectid?$AA@ 100cf234     interop.obj
 0002:00004240       ??_C@_05NDNMCCJH@order?$AA@ 100cf240     interop.obj
 0002:00004248       ??_C@_06EENFNEPD@detail?$AA@ 100cf248     interop.obj
 0002:00004250       ??_C@_0CM@LOMFMKCH@unknown?5or?5unsupported?5join?5type@ 100cf250     interop.obj
 0002:0000427c       ??_C@_0DH@LJEHIDDA@RIGHT?5and?5FULL?5OUTER?5JOINs?5are?5n@ 100cf27c     interop.obj
 0002:000042b4       ??_C@_0DC@NBGJANJH@a?5NATURAL?5join?5may?5not?5have?5an?5O@ 100cf2b4     interop.obj
 0002:000042e8       ??_C@_0DH@DHMOHNCE@cannot?5have?5both?5ON?5and?5USING?5cl@ 100cf2e8     interop.obj
 0002:00004320       ??_C@_0EA@LFCKDDII@cannot?5join?5using?5column?5?$CFs?5?9?5co@ 100cf320     interop.obj
 0002:00004360       ??_C@_0EI@FMCKEHHB@only?5a?5single?5result?5allowed?5for@ 100cf360     interop.obj
 0002:000043a8       ??_C@_09CDPONBKL@UNION?5ALL?$AA@ 100cf3a8     interop.obj
 0002:000043b4       ??_C@_09JBOBNLLF@INTERSECT?$AA@ 100cf3b4     interop.obj
 0002:000043c0       ??_C@_06JFIPMMLD@EXCEPT?$AA@ 100cf3c0     interop.obj
 0002:000043c8       ??_C@_05GJNJOPB@UNION?$AA@ 100cf3c8     interop.obj
 0002:000043d0       ??_C@_0BH@JCGMDKCI@USE?5TEMP?5B?9TREE?5FOR?5?$CFs?$AA@ 100cf3d0     interop.obj
 0002:000043e8       ??_C@_0BD@INMGDFNB@USING?5TEMP?5B?9TREE?5?$AA@ 100cf3e8     interop.obj
 0002:000043fc       ??_C@_0CF@IFPCHLOK@COMPOUND?5SUBQUERIES?5?$CFd?5AND?5?$CFd?5?$CFs@ 100cf3fc     interop.obj
 0002:00004424       ??_C@_08OHGGEHKA@column?$CFd?$AA@ 100cf424     interop.obj
 0002:00004430       ??_C@_07FCMEMBCG@?$CF?4?$CKz?3?$CFu?$AA@ 100cf430     interop.obj
 0002:00004438       ??_C@_0CK@HHBJKMKL@recursive?5aggregate?5queries?5not?5@ 100cf438     interop.obj
 0002:00004464       ??_C@_0DA@GPNKNMMI@ORDER?5BY?5clause?5should?5come?5afte@ 100cf464     interop.obj
 0002:00004494       ??_C@_0CN@DDIHOHHL@LIMIT?5clause?5should?5come?5after?5?$CF@ 100cf494     interop.obj
 0002:000044c4       ??_C@_0CO@DAHFDIDO@all?5VALUES?5must?5have?5the?5same?5nu@ 100cf4c4     interop.obj
 0002:000044f8       ??_C@_0FC@CMDCIIHA@SELECTs?5to?5the?5left?5and?5right?5of@ 100cf4f8     interop.obj
 0002:0000454c       ??_C@_0BC@EHGCNIF@no?5such?5index?3?5?$CFs?$AA@ 100cf54c     interop.obj
 0002:00004560       ??_C@_0BH@COPFJELM@?8?$CFs?8?5is?5not?5a?5function?$AA@ 100cf560     interop.obj
 0002:00004578       ??_C@_0CL@CKHNGNG@multiple?5references?5to?5recursive@ 100cf578     interop.obj
 0002:000045a4       ??_C@_0BH@IJPFMMLM@circular?5reference?3?5?$CFs?$AA@ 100cf5a4     interop.obj
 0002:000045bc       ??_C@_0CG@GEPIMHHM@table?5?$CFs?5has?5?$CFd?5values?5for?5?$CFd?5co@ 100cf5bc     interop.obj
 0002:000045e4       ??_C@_0CC@BILCKNBO@multiple?5recursive?5references?3?5?$CF@ 100cf5e4     interop.obj
 0002:00004608       ??_C@_0CG@CINNECCN@recursive?5reference?5in?5a?5subquer@ 100cf608     interop.obj
 0002:00004630       ??_C@_0N@BEGMLOKI@sqlite_sq_?$CFp?$AA@ 100cf630     interop.obj
 0002:00004640       ??_C@_0CH@HMBFCKPN@too?5many?5references?5to?5?$CC?$CFs?$CC?3?5max@ 100cf640     interop.obj
 0002:00004668       ??_C@_01NBENCBCI@?$CK?$AA@ 100cf668     interop.obj
 0002:0000466c       ??_C@_08PPKHIAKG@?$CFs?4?$CFs?4?$CFs?$AA@ 100cf66c     interop.obj
 0002:00004678       ??_C@_0BC@OFCALFBN@no?5such?5table?3?5?$CFs?$AA@ 100cf678     interop.obj
 0002:0000468c       ??_C@_0BE@EGLAAHPP@no?5tables?5specified?$AA@ 100cf68c     interop.obj
 0002:000046a0       ??_C@_0BP@JFMLENOH@too?5many?5columns?5in?5result?5set?$AA@ 100cf6a0     interop.obj
 0002:000046c0       ??_C@_0DD@MKKFPBAF@DISTINCT?5aggregates?5must?5have?5ex@ 100cf6c0     interop.obj
 0002:000046f4       ??_C@_0BH@EIOOLNKK@?5USING?5COVERING?5INDEX?5?$AA@ 100cf6f4     interop.obj
 0002:0000470c       ??_C@_0BC@NNECCOGJ@SCAN?5TABLE?5?$CFs?$CFs?$CFs?$AA@ 100cf70c     interop.obj
 0002:00004720       ??_C@_0CI@GMLFBPGG@expected?5?$CFd?5columns?5for?5?8?$CFs?8?5but@ 100cf720     interop.obj
 0002:00004748       ??_C@_08KLFLGHKI@DISTINCT?$AA@ 100cf748     interop.obj
 0002:00004754       ??_C@_08NKEADCLG@GROUP?5BY?$AA@ 100cf754     interop.obj
 0002:00004760       ??_C@_0BH@IOPKGOOF@RIGHT?5PART?5OF?5ORDER?5BY?$AA@ 100cf760     interop.obj
 0002:00004778       ??_C@_08BKIJJFKP@ORDER?5BY?$AA@ 100cf778     interop.obj
 0002:00004788       ??_C@_0EB@PHGCKHIG@sqlite3_get_table?$CI?$CJ?5called?5with?5@ 100cf788     interop.obj
 0002:000047cc       ??_C@_0CO@CGGBEMGD@temporary?5trigger?5may?5not?5have?5q@ 100cf7cc     interop.obj
 0002:000047fc       ??_C@_07DIDNFGDE@trigger?$AA@ 100cf7fc     interop.obj
 0002:00004804       ??_C@_0CJ@KLDCMPKB@cannot?5create?5triggers?5on?5virtua@ 100cf804     interop.obj
 0002:00004830       ??_C@_0BK@IACDKJFA@trigger?5?$CFT?5already?5exists?$AA@ 100cf830     interop.obj
 0002:0000484c       ??_C@_0CG@JAGCNIHD@cannot?5create?5trigger?5on?5system?5@ 100cf84c     interop.obj
 0002:00004874       ??_C@_06BIGAHLBC@BEFORE?$AA@ 100cf874     interop.obj
 0002:0000487c       ??_C@_05OHDJMCHE@AFTER?$AA@ 100cf87c     interop.obj
 0002:00004884       ??_C@_0CF@CNPIEMED@cannot?5create?5?$CFs?5trigger?5on?5view@ 100cf884     interop.obj
 0002:000048ac       ??_C@_0CO@GJNALGCE@cannot?5create?5INSTEAD?5OF?5trigger@ 100cf8ac     interop.obj
 0002:000048e0       ??_C@_0EA@IJNEMIHP@INSERT?5INTO?5?$CFQ?4?$CFs?5VALUES?$CI?8trigge@ 100cf8e0     interop.obj
 0002:00004920       ??_C@_0BN@JFPIJHCG@type?$DN?8trigger?8?5AND?5name?$DN?8?$CFq?8?$AA@ 100cf920     interop.obj
 0002:00004940       ??_C@_0BE@ELCABEID@no?5such?5trigger?3?5?$CFS?$AA@ 100cf940     interop.obj
 0002:00004954       ??_C@_0DD@OCMFALEA@DELETE?5FROM?5?$CFQ?4?$CFs?5WHERE?5name?$DN?$CFQ?5@ 100cf954     interop.obj
 0002:00004988       ??_C@_0O@JKBKLFDA@?9?9?5TRIGGER?5?$CFs?$AA@ 100cf988     interop.obj
 0002:00004998       ??_C@_0BD@IEIMFPKF@no?5such?5column?3?5?$CFs?$AA@ 100cf998     interop.obj
 0002:000049ac       ??_C@_0N@KMEMLEEO@rows?5updated?$AA@ 100cf9ac     interop.obj
 0002:000049bc       ??_C@_0CI@CPMJIPOI@cannot?5VACUUM?5from?5within?5a?5tran@ 100cf9bc     interop.obj
 0002:000049e4       ??_C@_0CL@HKLPPLKM@cannot?5VACUUM?5?9?5SQL?5statements?5i@ 100cf9e4     interop.obj
 0002:00004a10       ??_C@_0CA@LDLCFKGD@ATTACH?5?8?3memory?3?8?5AS?5vacuum_db?$DL?$AA@ 100cfa10     interop.obj
 0002:00004a30       ??_C@_0BI@OOHLJPLG@ATTACH?5?8?8?5AS?5vacuum_db?$DL?$AA@ 100cfa30     interop.obj
 0002:00004a48       ??_C@_0CB@NBNOHMDI@PRAGMA?5vacuum_db?4synchronous?$DNOFF@ 100cfa48     interop.obj
 0002:00004a6c       ??_C@_06KEOLADBC@BEGIN?$DL?$AA@ 100cfa6c     interop.obj
 0002:00004a78       ??_C@_0JE@NGIHIELL@SELECT?5?8CREATE?5TABLE?5vacuum_db?4?8@ 100cfa78     interop.obj
 0002:00004b10       ??_C@_0GI@FEDHFMIE@SELECT?5?8CREATE?5INDEX?5vacuum_db?4?8@ 100cfb10     interop.obj
 0002:00004b78       ??_C@_0HG@GKDDPPFI@SELECT?5?8CREATE?5UNIQUE?5INDEX?5vacu@ 100cfb78     interop.obj
 0002:00004bf0       ??_C@_0ME@JFICNLPL@SELECT?5?8INSERT?5INTO?5vacuum_db?4?8?5@ 100cfbf0     interop.obj
 0002:00004cb8       ??_C@_0HB@CJENIKHO@SELECT?5?8DELETE?5FROM?5vacuum_db?4?8?5@ 100cfcb8     interop.obj
 0002:00004d30       ??_C@_0JL@BNIMKHIL@SELECT?5?8INSERT?5INTO?5vacuum_db?4?8?5@ 100cfd30     interop.obj
 0002:00004dd0       ??_C@_0LI@DFGNFIOM@INSERT?5INTO?5vacuum_db?4sqlite_mas@ 100cfdd0     interop.obj
 0002:00004e88       ??_C@_0BI@PDMEEOA@CREATE?5VIRTUAL?5TABLE?5?$CFT?$AA@ 100cfe88     interop.obj
 0002:00004ea0       ??_C@_0FI@IFIJAFLJ@UPDATE?5?$CFQ?4?$CFs?5SET?5type?$DN?8table?8?0?5n@ 100cfea0     interop.obj
 0002:00004ef8       ??_C@_0BL@DGMACLBE@name?$DN?8?$CFq?8?5AND?5type?$DN?8table?8?$AA@ 100cfef8     interop.obj
 0002:00004f14       ??_C@_0CK@JFGPKPML@vtable?5constructor?5called?5recurs@ 100cff14     interop.obj
 0002:00004f40       ??_C@_0BO@DEKEKMPI@vtable?5constructor?5failed?3?5?$CFs?$AA@ 100cff40     interop.obj
 0002:00004f60       ??_C@_0CO@NAIIFAKI@vtable?5constructor?5did?5not?5decla@ 100cff60     interop.obj
 0002:00004f90       ??_C@_06JIKFICKK@hidden?$AA@ 100cff90     interop.obj
 0002:00004f98       ??_C@_0BD@KBJCCNMM@no?5such?5module?3?5?$CFs?$AA@ 100cff98     interop.obj
 0002:00004fac       ??_C@_05LFNOAECD@?5AND?5?$AA@ 100cffac     interop.obj
 0002:00004fb4       ??_C@_06OBEENNJP@?$DMexpr?$DO?$AA@ 100cffb4     interop.obj
 0002:00004fbc       ??_C@_02GFKOMOKH@?5?$CI?$AA@ 100cffbc     interop.obj
 0002:00004fc0       ??_C@_04DNBLPLBL@?$CFs?$DN?$DP?$AA@ 100cffc0     interop.obj
 0002:00004fc8       ??_C@_07DEPDMHNF@ANY?$CI?$CFs?$CJ?$AA@ 100cffc8     interop.obj
 0002:00004fd0       ??_C@_01PPODPGHN@?$DO?$AA@ 100cffd0     interop.obj
 0002:00004fd4       ??_C@_01MNNFJEPP@?$DM?$AA@ 100cffd4     interop.obj
 0002:00004fd8       ??_C@_06GBNAAIDA@SEARCH?$AA@ 100cffd8     interop.obj
 0002:00004fe0       ??_C@_04NAGNMPFG@SCAN?$AA@ 100cffe0     interop.obj
 0002:00004fe8       ??_C@_0N@BOAKKPBG@?5SUBQUERY?5?$CFd?$AA@ 100cffe8     interop.obj
 0002:00004ff8       ??_C@_09DIBKDOCO@?5TABLE?5?$CFs?$AA@ 100cfff8     interop.obj
 0002:00005004       ??_C@_06IMDPHEMP@?5AS?5?$CFs?$AA@ 100d0004     interop.obj
 0002:0000500c       ??_C@_0M@DPPBPFJP@PRIMARY?5KEY?$AA@ 100d000c     interop.obj
 0002:00005018       ??_C@_0CB@HEDLDBJB@AUTOMATIC?5PARTIAL?5COVERING?5INDEX@ 100d0018     interop.obj
 0002:0000503c       ??_C@_0BJ@OBMPNMAB@AUTOMATIC?5COVERING?5INDEX?$AA@ 100d003c     interop.obj
 0002:00005058       ??_C@_0BC@JHKMHKPK@COVERING?5INDEX?5?$CFs?$AA@ 100d0058     interop.obj
 0002:0000506c       ??_C@_08CKMEMBGN@INDEX?5?$CFs?$AA@ 100d006c     interop.obj
 0002:00005078       ??_C@_07FGCFFEFI@?5USING?5?$AA@ 100d0078     interop.obj
 0002:00005080       ??_C@_01NEMOKFLO@?$DN?$AA@ 100d0080     interop.obj
 0002:00005084       ??_C@_0O@CICIFHFH@?$DO?$DP?5AND?5rowid?$DM?$AA@ 100d0084     interop.obj
 0002:00005094       ??_C@_0CG@OJDGGIHC@?5USING?5INTEGER?5PRIMARY?5KEY?5?$CIrowi@ 100d0094     interop.obj
 0002:000050bc       ??_C@_0BL@NFGDLEEC@?5VIRTUAL?5TABLE?5INDEX?5?$CFd?3?$CFs?$AA@ 100d00bc     interop.obj
 0002:000050d8       ??_C@_06BDGKJDBI@regexp?$AA@ 100d00d8     interop.obj
 0002:000050e0       ??_C@_06FHKGKAHE@NOCASE?$AA@ 100d00e0     interop.obj
 0002:000050e8       ??_C@_0CE@MBDKDMPE@too?5many?5arguments?5on?5?$CFs?$CI?$CJ?5?9?5max@ 100d00e8     interop.obj
 0002:0000510c       ??_C@_0BK@FFCJJLEP@automatic?5index?5on?5?$CFs?$CI?$CFs?$CJ?$AA@ 100d010c     interop.obj
 0002:00005128       ??_C@_0L@LOLDMHK@auto?9index?$AA@ 100d0128     interop.obj
 0002:00005134       ??_C@_0BK@BDHGLICJ@?$CFs?4xBestIndex?5malfunction?$AA@ 100d0134     interop.obj
 0002:00005150       ??_C@_0BC@CBDLPDHH@no?5query?5solution?$AA@ 100d0150     interop.obj
 0002:00005164       ??_C@_0BM@BLDEAGOK@at?5most?5?$CFd?5tables?5in?5a?5join?$AA@ 100d0164     interop.obj
 0002:00005180       ??_C@_0CC@DHLFNDIF@too?5many?5terms?5in?5compound?5SELEC@ 100d0180     interop.obj
 0002:000051a4       ??_C@_0CG@KKIPIFCN@syntax?5error?5after?5column?5name?5?$CC@ 100d01a4     interop.obj
 0002:000051cc       ??_C@_0BG@FMAEELCM@parser?5stack?5overflow?$AA@ 100d01cc     interop.obj
 0002:000051e4       ??_C@_0BL@DBADNDMB@unknown?5table?5option?3?5?$CF?4?$CKs?$AA@ 100d01e4     interop.obj
 0002:00005200       ??_C@_08FAFAADKO@set?5list?$AA@ 100d0200     interop.obj
 0002:0000520c       ??_C@_0BI@CBJKLAIG@near?5?$CC?$CFT?$CC?3?5syntax?5error?$AA@ 100d020c     interop.obj
 0002:00005224       ??_C@_0CC@BHLMPGNH@too?5many?5arguments?5on?5function?5?$CF@ 100d0224     interop.obj
 0002:00005248       ??_C@_0FP@BDHEAEAL@qualified?5table?5names?5are?5not?5al@ 100d0248     interop.obj
 0002:000052a8       ??_C@_0FE@ONDNFGPP@the?5INDEXED?5BY?5clause?5is?5not?5all@ 100d02a8     interop.obj
 0002:00005300       ??_C@_0FF@IPEGLKPG@the?5NOT?5INDEXED?5clause?5is?5not?5al@ 100d0300     interop.obj
 0002:00005358       ??_C@_0BJ@EMNEDDKJ@unrecognized?5token?3?5?$CC?$CFT?$CC?$AA@ 100d0358     interop.obj
 0002:00005374       ??_C@_06HBNONAG@create?$AA@ 100d0374     interop.obj
 0002:0000537c       ??_C@_04FGEHGIFJ@temp?$AA@ 100d037c     interop.obj
 0002:00005384       ??_C@_09CAHPDAG@temporary?$AA@ 100d0384     interop.obj
 0002:00005390       ??_C@_03JBJLGPFL@end?$AA@  100d0390     interop.obj
 0002:00005394       ??_C@_07LFFDKBGI@explain?$AA@ 100d0394     interop.obj
 0002:0000539c       ??_C@_0DN@KLKKMBCB@2016?909?912?518?350?349?529dbef4b8585@ 100d039c     interop.obj
 0002:000053e0       ??_C@_0EE@DHFGJPIC@unable?5to?5close?5due?5to?5unfinaliz@ 100d03e0     interop.obj
 0002:00005424       ??_C@_0N@FKKFHCIB@not?5an?5error?$AA@ 100d0424     interop.obj
 0002:00005434       ??_C@_0CE@BCMAPMOL@SQL?5logic?5error?5or?5missing?5datab@ 100d0434     interop.obj
 0002:00005458       ??_C@_0BJ@OFHFLJKH@access?5permission?5denied?$AA@ 100d0458     interop.obj
 0002:00005474       ??_C@_0BP@BFMDEDKN@callback?5requested?5query?5abort?$AA@ 100d0474     interop.obj
 0002:00005494       ??_C@_0BD@DAAAMHOI@database?5is?5locked?$AA@ 100d0494     interop.obj
 0002:000054a8       ??_C@_0BJ@DNPONIEG@database?5table?5is?5locked?$AA@ 100d04a8     interop.obj
 0002:000054c4       ??_C@_0CF@JBLJEMGC@attempt?5to?5write?5a?5readonly?5data@ 100d04c4     interop.obj
 0002:000054ec       ??_C@_0M@EGEKIIMP@interrupted?$AA@ 100d04ec     interop.obj
 0002:000054f8       ??_C@_0P@FOPPKBJH@disk?5I?1O?5error?$AA@ 100d04f8     interop.obj
 0002:00005508       ??_C@_0CB@ONDDCPGK@database?5disk?5image?5is?5malformed@ 100d0508     interop.obj
 0002:0000552c       ??_C@_0BC@BDMDPLFD@unknown?5operation?$AA@ 100d052c     interop.obj
 0002:00005540       ??_C@_0BJ@GDNBBAEL@database?5or?5disk?5is?5full?$AA@ 100d0540     interop.obj
 0002:0000555c       ??_C@_0BN@JLONMGIA@unable?5to?5open?5database?5file?$AA@ 100d055c     interop.obj
 0002:0000557c       ??_C@_0BB@MCPOJJBB@locking?5protocol?$AA@ 100d057c     interop.obj
 0002:00005590       ??_C@_0BH@OCNELEJF@table?5contains?5no?5data?$AA@ 100d0590     interop.obj
 0002:000055a8       ??_C@_0BC@IFKPGMGK@constraint?5failed?$AA@ 100d05a8     interop.obj
 0002:000055bc       ??_C@_0BC@FILINGOB@datatype?5mismatch?$AA@ 100d05bc     interop.obj
 0002:000055d0       ??_C@_0CH@GCDGLLPA@library?5routine?5called?5out?5of?5se@ 100d05d0     interop.obj
 0002:000055f8       ??_C@_0BP@GMDPJID@large?5file?5support?5is?5disabled?$AA@ 100d05f8     interop.obj
 0002:00005618       ??_C@_0BF@LMCDAPDN@authorization?5denied?$AA@ 100d0618     interop.obj
 0002:00005630       ??_C@_0CA@DBBJFBEG@auxiliary?5database?5format?5error?$AA@ 100d0630     interop.obj
 0002:00005650       ??_C@_0CC@OHMKLHEA@bind?5or?5column?5index?5out?5of?5rang@ 100d0650     interop.obj
 0002:00005674       ??_C@_0CH@JKOMOHHH@file?5is?5encrypted?5or?5is?5not?5a?5da@ 100d0674     interop.obj
 0002:0000569c       ??_C@_0O@BFJCFAAK@unknown?5error?$AA@ 100d069c     interop.obj
 0002:000056ac       ??_C@_0BG@MJDEINHO@abort?5due?5to?5ROLLBACK?$AA@ 100d06ac     interop.obj
 0002:000056c4       ??_C@_0DP@BDIELDAF@unable?5to?5delete?1modify?5user?9fun@ 100d06c4     interop.obj
 0002:00005704       ??_C@_0BF@HAJMIPDB@unknown?5database?3?5?$CFs?$AA@ 100d0704     interop.obj
 0002:00005720       ??_C@_0EE@IKACNBHK@unable?5to?5delete?1modify?5collatio@ 100d0720     interop.obj
 0002:00005764       ??_C@_0BM@COJKMEBB@invalid?5uri?5authority?3?5?$CF?4?$CKs?$AA@ 100d0764     interop.obj
 0002:00005780       ??_C@_05BDNCCAMC@cache?$AA@ 100d0780     interop.obj
 0002:00005788       ??_C@_06HBFNPGIC@shared?$AA@ 100d0788     interop.obj
 0002:00005790       ??_C@_07NMPLPEPB@private?$AA@ 100d0790     interop.obj
 0002:00005798       ??_C@_04GMGOKAFF@mode?$AA@ 100d0798     interop.obj
 0002:000057a0       ??_C@_02LFKOONLL@ro?$AA@   100d07a0     interop.obj
 0002:000057a4       ??_C@_02DHLFHFOC@rw?$AA@   100d07a4     interop.obj
 0002:000057a8       ??_C@_03ODAOEF@rwc?$AA@    100d07a8     interop.obj
 0002:000057ac       ??_C@_06EBPNOMLE@access?$AA@ 100d07ac     interop.obj
 0002:000057b4       ??_C@_0BE@CEDEHNFE@no?5such?5?$CFs?5mode?3?5?$CFs?$AA@ 100d07b4     interop.obj
 0002:000057c8       ??_C@_0BI@PGEAHBFI@?$CFs?5mode?5not?5allowed?3?5?$CFs?$AA@ 100d07c8     interop.obj
 0002:000057e0       ??_C@_0BA@JNKNNOBA@no?5such?5vfs?3?5?$CFs?$AA@ 100d07e0     interop.obj
 0002:000057f0       ??_C@_05JJHANOIF@RTRIM?$AA@ 100d07f0     interop.obj
 0002:000057f8       ??_C@_04GHJNJNPO@main?$AA@ 100d07f8     interop.obj
 0002:00005800       ??_C@_02LOCGON@?$AA?$AA?$AA@ 100d0800     interop.obj
 0002:00005804       ??_C@_0BJ@ICCNDDFO@?$CFs?5at?5line?5?$CFd?5of?5?$FL?$CF?410s?$FN?$AA@ 100d0804     interop.obj
 0002:00005820       ??_C@_0BE@FNOILMBA@database?5corruption?$AA@ 100d0820     interop.obj
 0002:00005834       ??_C@_06LKHNAGM@misuse?$AA@ 100d0834     interop.obj
 0002:0000583c       ??_C@_0BB@HMGEDEGN@cannot?5open?5file?$AA@ 100d083c     interop.obj
 0002:00005850       ??_C@_0BM@OILBPENI@no?5such?5table?5column?3?5?$CFs?4?$CFs?$AA@ 100d0850     interop.obj
 0002:0000586c       ??_C@_0CF@JMBAPJDM@DROP?5TABLE?5IF?5EXISTS?5?$CFQ?4?8?$CFq_cont@ 100d086c     interop.obj
 0002:00005894       ??_C@_0CG@MBAKJBDH@DROP?5TABLE?5IF?5EXISTS?5?$CFQ?4?8?$CFq_segm@ 100d0894     interop.obj
 0002:000058bc       ??_C@_0CE@ONKNGDLL@DROP?5TABLE?5IF?5EXISTS?5?$CFQ?4?8?$CFq_segd@ 100d08bc     interop.obj
 0002:000058e0       ??_C@_0CF@IDMMCBAD@DROP?5TABLE?5IF?5EXISTS?5?$CFQ?4?8?$CFq_docs@ 100d08e0     interop.obj
 0002:00005908       ??_C@_0CC@IOIKPJHP@DROP?5TABLE?5IF?5EXISTS?5?$CFQ?4?8?$CFq_stat@ 100d0908     interop.obj
 0002:0000592c       ??_C@_08HBMBCGGI@__langid?$AA@ 100d092c     interop.obj
 0002:00005938       ??_C@_04OHJOFLHH@?$CFQ?0?5?$AA@ 100d0938     interop.obj
 0002:00005940       ??_C@_06ILOMELII@?$CFz?$CFQ?0?5?$AA@ 100d0940     interop.obj
 0002:00005948       ??_C@_0DG@KNNCMIAK@CREATE?5TABLE?5x?$CI?$CFs?5?$CFQ?5HIDDEN?0?5doc@ 100d0948     interop.obj
 0002:00005980       ??_C@_0EN@BNJDGKOP@CREATE?5TABLE?5IF?5NOT?5EXISTS?5?$CFQ?4?8?$CF@ 100d0980     interop.obj
 0002:000059d0       ??_C@_0BK@ILPNCKDD@docid?5INTEGER?5PRIMARY?5KEY?$AA@ 100d09d0     interop.obj
 0002:000059ec       ??_C@_0M@KFIBGJMD@?$CFz?0?5?8c?$CFd?$CFq?8?$AA@ 100d09ec     interop.obj
 0002:000059f8       ??_C@_0L@FGLBMJMC@?$CFz?0?5langid?$AA@ 100d09f8     interop.obj
 0002:00005a04       ??_C@_0CB@GGGOGPJJ@CREATE?5TABLE?5?$CFQ?4?8?$CFq_content?8?$CI?$CFs?$CJ@ 100d0a04     interop.obj
 0002:00005a28       ??_C@_0EI@JJJNEMPK@CREATE?5TABLE?5?$CFQ?4?8?$CFq_segments?8?$CIbl@ 100d0a28     interop.obj
 0002:00005a70       ??_C@_0JJ@EINNGPFL@CREATE?5TABLE?5?$CFQ?4?8?$CFq_segdir?8?$CIleve@ 100d0a70     interop.obj
 0002:00005b10       ??_C@_0EE@MDIIHKIJ@CREATE?5TABLE?5?$CFQ?4?8?$CFq_docsize?8?$CIdoc@ 100d0b10     interop.obj
 0002:00005b54       ??_C@_0BE@JJENHHFJ@PRAGMA?5?$CFQ?4page_size?$AA@ 100d0b54     interop.obj
 0002:00005b68       ??_C@_05KJDOPFGN@docid?$AA@ 100d0b68     interop.obj
 0002:00005b70       ??_C@_0P@LFFPPLAI@?0?$CFs?$CIx?4?8c?$CFd?$CFq?8?$CJ?$AA@ 100d0b70     interop.obj
 0002:00005b80       ??_C@_06CLEJICHF@langid?$AA@ 100d0b80     interop.obj
 0002:00005b88       ??_C@_06HJELONEC@?0?5x?4?$CFQ?$AA@ 100d0b88     interop.obj
 0002:00005b90       ??_C@_08NJPBOKA@?0?5x?4?8?$CFq?8?$AA@ 100d0b90     interop.obj
 0002:00005b9c       ??_C@_08KMMJILGO@_content?$AA@ 100d0b9c     interop.obj
 0002:00005ba8       ??_C@_0BH@DJGBFAID@?5FROM?5?8?$CFq?8?4?8?$CFq?$CFs?8?5AS?5x?$AA@ 100d0ba8     interop.obj
 0002:00005bc0       ??_C@_06INGKMHGE@?0?$CFs?$CI?$DP?$CJ?$AA@ 100d0bc0     interop.obj
 0002:00005bc8       ??_C@_03FEMMFMLJ@?0?5?$DP?$AA@ 100d0bc8     interop.obj
 0002:00005bcc       ??_C@_0BE@NJEPGLOD@SELECT?5?$CK?5FROM?5?$CFQ?4?$CFQ?$AA@ 100d0bcc     interop.obj
 0002:00005be0       ??_C@_08ENDKEOKI@tokenize?$AA@ 100d0be0     interop.obj
 0002:00005bec       ??_C@_09OEHDJMHN@matchinfo?$AA@ 100d0bec     interop.obj
 0002:00005bf8       ??_C@_06CHGOAPND@prefix?$AA@ 100d0bf8     interop.obj
 0002:00005c00       ??_C@_08EJNPIMGB@compress?$AA@ 100d0c00     interop.obj
 0002:00005c0c       ??_C@_0L@IEAKODFB@uncompress?$AA@ 100d0c0c     interop.obj
 0002:00005c18       ??_C@_07ICAJMOAO@content?$AA@ 100d0c18     interop.obj
 0002:00005c20       ??_C@_0L@KCJJAHCF@languageid?$AA@ 100d0c20     interop.obj
 0002:00005c2c       ??_C@_0L@CMOFCIEL@notindexed?$AA@ 100d0c2c     interop.obj
 0002:00005c38       ??_C@_0BL@LDDPBJJP@unrecognized?5parameter?3?5?$CFs?$AA@ 100d0c38     interop.obj
 0002:00005c54       ??_C@_04GJCOAOPN@fts3?$AA@ 100d0c54     interop.obj
 0002:00005c5c       ??_C@_0BL@LGOAFHOC@unrecognized?5matchinfo?3?5?$CFs?$AA@ 100d0c5c     interop.obj
 0002:00005c78       ??_C@_03EFEGFOOI@asc?$AA@  100d0c78     interop.obj
 0002:00005c7c       ??_C@_0BH@DEFIELBN@unrecognized?5order?3?5?$CFs?$AA@ 100d0c7c     interop.obj
 0002:00005c94       ??_C@_06MDDCAKGD@simple?$AA@ 100d0c94     interop.obj
 0002:00005c9c       ??_C@_0CD@HIKDEBHJ@error?5parsing?5prefix?5parameter?3?5@ 100d0c9c     interop.obj
 0002:00005cc0       ??_C@_0CJ@LIAMDBLK@missing?5?$CFs?5parameter?5in?5fts4?5con@ 100d0cc0     interop.obj
 0002:00005cec       ??_C@_04INMKNCEL@DESC?$AA@ 100d0cec     interop.obj
 0002:00005cf4       ??_C@_03EILNJDJE@ASC?$AA@  100d0cf4     interop.obj
 0002:00005cf8       ??_C@_0BK@DAHJKJOI@SELECT?5?$CFs?5WHERE?5rowid?5?$DN?5?$DP?$AA@ 100d0cf8     interop.obj
 0002:00005d14       ??_C@_0DO@PMGJMNHJ@SELECT?5?$CFs?5WHERE?5rowid?5BETWEEN?5?$CFl@ 100d0d14     interop.obj
 0002:00005d54       ??_C@_0BM@EFGHBBLP@SELECT?5?$CFs?5ORDER?5BY?5rowid?5?$CFs?$AA@ 100d0d54     interop.obj
 0002:00005d70       ??_C@_0DI@KJNDNABI@SELECT?51?5FROM?5?$CFQ?4sqlite_master?5W@ 100d0d70     interop.obj
 0002:00005da8       ??_C@_0BN@HNFGPPAE@illegal?5first?5argument?5to?5?$CFs?$AA@ 100d0da8     interop.obj
 0002:00005dc8       ??_C@_03GONAGDMJ@?$DMb?$DO?$AA@ 100d0dc8     interop.obj
 0002:00005dcc       ??_C@_04KPMLOGDO@?$DM?1b?$DO?$AA@ 100d0dcc     interop.obj
 0002:00005dd4       ??_C@_0L@FNCHOAPK@?$DMb?$DO?4?4?4?$DM?1b?$DO?$AA@ 100d0dd4     interop.obj
 0002:00005de0       ??_C@_0DA@BPKHEBAA@wrong?5number?5of?5arguments?5to?5fun@ 100d0de0     interop.obj
 0002:00005e10       ??_C@_07NLNCCKKF@snippet?$AA@ 100d0e10     interop.obj
 0002:00005e18       ??_C@_07EALNHAIO@offsets?$AA@ 100d0e18     interop.obj
 0002:00005e20       ??_C@_08GHMAOHAP@optimize?$AA@ 100d0e20     interop.obj
 0002:00005e2c       ??_C@_0BA@OAEHOEOG@Index?5optimized?$AA@ 100d0e2c     interop.obj
 0002:00005e3c       ??_C@_0BG@LMCLNKNA@Index?5already?5optimal?$AA@ 100d0e3c     interop.obj
 0002:00005e54       ??_C@_0DF@DCFHAMLC@ALTER?5TABLE?5?$CFQ?4?8?$CFq_content?8?5?5REN@ 100d0e54     interop.obj
 0002:00005e8c       ??_C@_0DF@DCOLKKAO@ALTER?5TABLE?5?$CFQ?4?8?$CFq_docsize?8?5?5REN@ 100d0e8c     interop.obj
 0002:00005ec4       ??_C@_0CP@CGFDJKNC@ALTER?5TABLE?5?$CFQ?4?8?$CFq_stat?8?5?5RENAME@ 100d0ec4     interop.obj
 0002:00005ef4       ??_C@_0DG@DAAAGDKF@ALTER?5TABLE?5?$CFQ?4?8?$CFq_segments?8?5REN@ 100d0ef4     interop.obj
 0002:00005f2c       ??_C@_0DE@LHKMPNFJ@ALTER?5TABLE?5?$CFQ?4?8?$CFq_segdir?8?5?5?5REN@ 100d0f2c     interop.obj
 0002:00005f60       ??_C@_06EDADNLPO@porter?$AA@ 100d0f60     interop.obj
 0002:00005f68       ??_C@_09JCBNJLCI@unicode61?$AA@ 100d0f68     interop.obj
 0002:00005f74       ??_C@_0P@ONNIBBGC@fts3_tokenizer?$AA@ 100d0f74     interop.obj
 0002:00005f84       ??_C@_04CGGPJIDK@fts4?$AA@ 100d0f84     interop.obj
 0002:00005f90       ??_C@_0EF@OOGFNENA@CREATE?5TABLE?5x?$CIterm?0?5col?0?5docume@ 100d0f90     interop.obj
 0002:00005fd8       ??_C@_0CJ@KNMGIKGK@invalid?5arguments?5to?5fts4aux?5con@ 100d0fd8     interop.obj
 0002:00006004       ??_C@_07HLCPNFJI@fts4aux?$AA@ 100d1004     interop.obj
 0002:0000600c       ??_C@_02PDPFNDMG@OR?$AA@   100d100c     interop.obj
 0002:00006010       ??_C@_03BDACDFHA@AND?$AA@  100d1010     interop.obj
 0002:00006014       ??_C@_03GBFNEA@NOT?$AA@    100d1014     interop.obj
 0002:00006018       ??_C@_04ILABJOOE@NEAR?$AA@ 100d1018     interop.obj
 0002:00006020       ??_C@_0DE@GLAEHGBM@FTS?5expression?5tree?5is?5too?5large@ 100d1020     interop.obj
 0002:00006054       ??_C@_0CB@FOEJOLMC@malformed?5MATCH?5expression?3?5?$FL?$CFs?$FN@ 100d1054     interop.obj
 0002:00006078       ??_C@_02FCBLNKNB@ss?$AA@   100d1078     interop.obj
 0002:0000607c       ??_C@_04NJPCGJPA@sess?$AA@ 100d107c     interop.obj
 0002:00006084       ??_C@_01KBJDNOO@i?$AA@     100d1084     interop.obj
 0002:00006088       ??_C@_03FNBCPGLE@sei?$AA@  100d1088     interop.obj
 0002:0000608c       ??_C@_02FGCILAME@ee?$AA@   100d108c     interop.obj
 0002:00006090       ??_C@_03DMGJNGJO@dee?$AA@  100d1090     interop.obj
 0002:00006094       ??_C@_03IODMNJJN@gni?$AA@  100d1094     interop.obj
 0002:00006098       ??_C@_02FHOKNKPD@de?$AA@   100d1098     interop.obj
 0002:0000609c       ??_C@_03BGFDOPOL@ate?$AA@  100d109c     interop.obj
 0002:000060a0       ??_C@_02CPKALMIH@ta?$AA@   100d10a0     interop.obj
 0002:000060a4       ??_C@_03BGNDLCMN@ble?$AA@  100d10a4     interop.obj
 0002:000060a8       ??_C@_02BGLIBNIM@lb?$AA@   100d10a8     interop.obj
 0002:000060ac       ??_C@_03NJHJOKAO@ize?$AA@  100d10ac     interop.obj
 0002:000060b0       ??_C@_02ONOHBLIF@zi?$AA@   100d10b0     interop.obj
 0002:000060b4       ??_C@_07HAPEHOGG@lanoita?$AA@ 100d10b4     interop.obj
 0002:000060bc       ??_C@_04MLFEDMFA@tion?$AA@ 100d10bc     interop.obj
 0002:000060c4       ??_C@_06KEDPLIML@lanoit?$AA@ 100d10c4     interop.obj
 0002:000060cc       ??_C@_04OBONJKHE@ence?$AA@ 100d10cc     interop.obj
 0002:000060d4       ??_C@_04NOKPDMPL@icne?$AA@ 100d10d4     interop.obj
 0002:000060dc       ??_C@_04BEGNDMLE@ance?$AA@ 100d10dc     interop.obj
 0002:000060e4       ??_C@_04LKMDPJPP@icna?$AA@ 100d10e4     interop.obj
 0002:000060ec       ??_C@_04FLGOIBBE@rezi?$AA@ 100d10ec     interop.obj
 0002:000060f4       ??_C@_04IBMNHKNC@igol?$AA@ 100d10f4     interop.obj
 0002:000060fc       ??_C@_03IOJDKDAL@ilb?$AA@  100d10fc     interop.obj
 0002:00006100       ??_C@_02IAODKDFB@al?$AA@   100d1100     interop.obj
 0002:00006104       ??_C@_04OBCEDNMH@illa?$AA@ 100d1104     interop.obj
 0002:0000610c       ??_C@_03NLFJHNAK@ent?$AA@  100d110c     interop.obj
 0002:00006110       ??_C@_05IDJKNEIB@iltne?$AA@ 100d1110     interop.obj
 0002:00006118       ??_C@_01KGKMHCOC@e?$AA@    100d1118     interop.obj
 0002:0000611c       ??_C@_03MBNCDFMM@ile?$AA@  100d111c     interop.obj
 0002:00006120       ??_C@_03OLNGEHDI@ous?$AA@  100d1120     interop.obj
 0002:00006124       ??_C@_05PENBEICD@ilsuo?$AA@ 100d1124     interop.obj
 0002:0000612c       ??_C@_07GPCIBLIA@noitazi?$AA@ 100d112c     interop.obj
 0002:00006134       ??_C@_05OJBPCAJ@noita?$AA@ 100d1134     interop.obj
 0002:0000613c       ??_C@_04PGJEMGHC@rota?$AA@ 100d113c     interop.obj
 0002:00006144       ??_C@_05DPCAAIOM@msila?$AA@ 100d1144     interop.obj
 0002:0000614c       ??_C@_03NAGDBDGK@ive?$AA@  100d114c     interop.obj
 0002:00006150       ??_C@_07PDACOIKL@ssenevi?$AA@ 100d1150     interop.obj
 0002:00006158       ??_C@_03FLIEAGCM@ful?$AA@  100d1158     interop.obj
 0002:0000615c       ??_C@_07LNEAFLH@ssenluf?$AA@ 100d115c     interop.obj
 0002:00006164       ??_C@_07NCGMPJDH@ssensuo?$AA@ 100d1164     interop.obj
 0002:0000616c       ??_C@_05BGJBJGOK@itila?$AA@ 100d116c     interop.obj
 0002:00006174       ??_C@_05MPPJDKEE@itivi?$AA@ 100d1174     interop.obj
 0002:0000617c       ??_C@_06BJBBMCGN@itilib?$AA@ 100d117c     interop.obj
 0002:00006184       ??_C@_02JGIOOCG@ic?$AA@    100d1184     interop.obj
 0002:00006188       ??_C@_05GHGCLDEL@etaci?$AA@ 100d1188     interop.obj
 0002:00006190       ??_C@_05JKGPHDJ@evita?$AA@ 100d1190     interop.obj
 0002:00006198       ??_C@_05NOGDOIPA@ezila?$AA@ 100d1198     interop.obj
 0002:000061a0       ??_C@_05NFBEFLNP@itici?$AA@ 100d11a0     interop.obj
 0002:000061a8       ??_C@_04BICLKHFP@laci?$AA@ 100d11a8     interop.obj
 0002:000061b0       ??_C@_03MONGAOMC@luf?$AA@  100d11b0     interop.obj
 0002:000061b4       ??_C@_04ELEHNCGN@ssen?$AA@ 100d11b4     interop.obj
 0002:000061bc       ??_C@_05KMPBBIAH@tneme?$AA@ 100d11bc     interop.obj
 0002:000061c4       ??_C@_04HADJNCPM@tnem?$AA@ 100d11c4     interop.obj
 0002:000061cc       ??_C@_03GACFGOOA@tne?$AA@  100d11cc     interop.obj
 0002:000061d0       ??_C@_03PCPGPMCA@noi?$AA@  100d11d0     interop.obj
 0002:000061d4       ??_C@_03PNFNLNLI@eta?$AA@  100d11d4     interop.obj
 0002:000061d8       ??_C@_03HPFCIIAI@iti?$AA@  100d11d8     interop.obj
 0002:000061dc       ??_C@_0BH@PMNILKKF@argument?5type?5mismatch?$AA@ 100d11dc     interop.obj
 0002:000061f4       ??_C@_0BG@KNLCJAMI@fts3tokenize?5disabled?$AA@ 100d11f4     interop.obj
 0002:0000620c       ??_C@_0BG@CPKCHLPM@unknown?5tokenizer?3?5?$CFs?$AA@ 100d120c     interop.obj
 0002:00006224       ??_C@_0BC@MIGNHNIC@unknown?5tokenizer?$AA@ 100d1224     interop.obj
 0002:00006238       ??_C@_0DD@EDFEHGLO@CREATE?5TABLE?5x?$CIinput?0?5token?0?5sta@ 100d1238     interop.obj
 0002:0000626c       ??_C@_0N@MJBJKOEF@fts3tokenize?$AA@ 100d126c     interop.obj
 0002:0000627c       ??_C@_0CM@CCEIGCNK@DELETE?5FROM?5?$CFQ?4?8?$CFq_content?8?5WHER@ 100d127c     interop.obj
 0002:000062a8       ??_C@_0EE@NIHFGMMI@SELECT?5NOT?5EXISTS?$CISELECT?5docid?5F@ 100d12a8     interop.obj
 0002:000062ec       ??_C@_0BM@PEBOBMKF@DELETE?5FROM?5?$CFQ?4?8?$CFq_content?8?$AA@ 100d12ec     interop.obj
 0002:00006308       ??_C@_0BN@EILBLEDC@DELETE?5FROM?5?$CFQ?4?8?$CFq_segments?8?$AA@ 100d1308     interop.obj
 0002:00006328       ??_C@_0BL@DOPLACGJ@DELETE?5FROM?5?$CFQ?4?8?$CFq_segdir?8?$AA@ 100d1328     interop.obj
 0002:00006344       ??_C@_0BM@OLMCMEJK@DELETE?5FROM?5?$CFQ?4?8?$CFq_docsize?8?$AA@ 100d1344     interop.obj
 0002:00006360       ??_C@_0BJ@HOMEFFOK@DELETE?5FROM?5?$CFQ?4?8?$CFq_stat?8?$AA@ 100d1360     interop.obj
 0002:0000637c       ??_C@_0BI@EHNAAIOC@SELECT?5?$CFs?5WHERE?5rowid?$DN?$DP?$AA@ 100d137c     interop.obj
 0002:00006398       ??_C@_0EB@JLFIAJAO@SELECT?5?$CISELECT?5max?$CIidx?$CJ?5FROM?5?$CFQ?4@ 100d1398     interop.obj
 0002:000063dc       ??_C@_0DL@MFGEIOD@REPLACE?5INTO?5?$CFQ?4?8?$CFq_segments?8?$CIbl@ 100d13dc     interop.obj
 0002:00006418       ??_C@_0EE@PDNODLPC@SELECT?5coalesce?$CI?$CISELECT?5max?$CIbloc@ 100d1418     interop.obj
 0002:0000645c       ??_C@_0DA@CMKKFBOL@REPLACE?5INTO?5?$CFQ?4?8?$CFq_segdir?8?5VALU@ 100d145c     interop.obj
 0002:00006490       ??_C@_0HA@JJLMMHPL@SELECT?5idx?0?5start_block?0?5leaves_@ 100d1490     interop.obj
 0002:00006500       ??_C@_0IH@CHFFJLEM@SELECT?5idx?0?5start_block?0?5leaves_@ 100d1500     interop.obj
 0002:00006588       ??_C@_0DE@JFBNLGCM@SELECT?5count?$CI?$CK?$CJ?5FROM?5?$CFQ?4?8?$CFq_segd@ 100d1588     interop.obj
 0002:000065c0       ??_C@_0EC@NJOFEFNB@SELECT?5max?$CIlevel?$CJ?5FROM?5?$CFQ?4?8?$CFq_se@ 100d15c0     interop.obj
 0002:00006604       ??_C@_0CL@LJFNCCFI@DELETE?5FROM?5?$CFQ?4?8?$CFq_segdir?8?5WHERE@ 100d1604     interop.obj
 0002:00006630       ??_C@_0DL@FMDHOPDD@DELETE?5FROM?5?$CFQ?4?8?$CFq_segments?8?5WHE@ 100d1630     interop.obj
 0002:0000666c       ??_C@_0CH@KOJCNEKB@INSERT?5INTO?5?$CFQ?4?8?$CFq_content?8?5VALU@ 100d166c     interop.obj
 0002:00006694       ??_C@_0CM@JNJGJAMO@DELETE?5FROM?5?$CFQ?4?8?$CFq_docsize?8?5WHER@ 100d1694     interop.obj
 0002:000066c0       ??_C@_0CJ@LFPHJFLB@REPLACE?5INTO?5?$CFQ?4?8?$CFq_docsize?8?5VAL@ 100d16c0     interop.obj
 0002:000066ec       ??_C@_0CP@OHAINFIB@SELECT?5size?5FROM?5?$CFQ?4?8?$CFq_docsize?8@ 100d16ec     interop.obj
 0002:0000671c       ??_C@_0CK@NBNCGFLN@SELECT?5value?5FROM?5?$CFQ?4?8?$CFq_stat?8?5W@ 100d171c     interop.obj
 0002:00006748       ??_C@_0CG@FNKMPDFF@REPLACE?5INTO?5?$CFQ?4?8?$CFq_stat?8?5VALUES@ 100d1748     interop.obj
 0002:00006770       ??_C@_0DH@BCKMOPJL@DELETE?5FROM?5?$CFQ?4?8?$CFq_segdir?8?5WHERE@ 100d1770     interop.obj
 0002:000067a8       ??_C@_0DN@PICGLGBK@SELECT?5?$DP?5UNION?5SELECT?5level?5?1?5?$CI1@ 100d17a8     interop.obj
 0002:000067e8       ??_C@_0HH@DHCPLDPH@SELECT?5level?0?5count?$CI?$CK?$CJ?5AS?5cnt?5FR@ 100d17e8     interop.obj
 0002:00006860       ??_C@_0GH@DPJIHEGC@SELECT?52?5?$CK?5total?$CI1?5?$CL?5leaves_end_@ 100d1860     interop.obj
 0002:000068c8       ??_C@_0DH@DBLDPJEO@DELETE?5FROM?5?$CFQ?4?8?$CFq_segdir?8?5WHERE@ 100d18c8     interop.obj
 0002:00006900       ??_C@_0DK@IIIPEDBM@UPDATE?5?$CFQ?4?8?$CFq_segdir?8?5SET?5idx?5?$DN?5@ 100d1900     interop.obj
 0002:00006940       ??_C@_0GL@HMGCAOBI@SELECT?5idx?0?5start_block?0?5leaves_@ 100d1940     interop.obj
 0002:000069b0       ??_C@_0EP@DBFLEABP@UPDATE?5?$CFQ?4?8?$CFq_segdir?8?5SET?5start_@ 100d19b0     interop.obj
 0002:00006a00       ??_C@_0EB@INOOLLID@SELECT?51?5FROM?5?$CFQ?4?8?$CFq_segments?8?5W@ 100d1a00     interop.obj
 0002:00006a44       ??_C@_0DM@EICDJEDC@SELECT?5idx?5FROM?5?$CFQ?4?8?$CFq_segdir?8?5W@ 100d1a44     interop.obj
 0002:00006a80       ??_C@_0DA@ONAEGFD@SELECT?5max?$CI?5level?5?$CF?$CF?51024?5?$CJ?5FROM@ 100d1a80     interop.obj
 0002:00006ab0       ??_C@_0GK@GKICLGAF@SELECT?5level?0?5idx?0?5end_block?5FRO@ 100d1ab0     interop.obj
 0002:00006b20       ??_C@_0EJ@EJCODMCO@UPDATE?5OR?5FAIL?5?$CFQ?4?8?$CFq_segdir?8?5SE@ 100d1b20     interop.obj
 0002:00006b6c       ??_C@_0DJ@JFKMPJPN@UPDATE?5OR?5FAIL?5?$CFQ?4?8?$CFq_segdir?8?5SE@ 100d1b6c     interop.obj
 0002:00006ba8       ??_C@_0M@FNPINBNL@?$CFs_segments?$AA@ 100d1ba8     interop.obj
 0002:00006bb4       ??_C@_05PIBOEKAB@block?$AA@ 100d1bb4     interop.obj
 0002:00006bbc       ??_C@_09MIMKIBLB@?$CFlld?5?$CFlld?$AA@ 100d1bbc     interop.obj
 0002:00006bc8       ??_C@_09GMKLHBDP@SELECT?5?$CFs?$AA@ 100d1bc8     interop.obj
 0002:00006bd4       ??_C@_07NPFKDALJ@rebuild?$AA@ 100d1bd4     interop.obj
 0002:00006bdc       ??_C@_0BA@DICCLPBL@integrity?9check?$AA@ 100d1bdc     interop.obj
 0002:00006bec       ??_C@_06NBNMKOCN@merge?$DN?$AA@ 100d1bec     interop.obj
 0002:00006bf4       ??_C@_0L@CIJOHFF@automerge?$DN?$AA@ 100d1bf4     interop.obj
 0002:00006c00       ??_C@_0P@LDDNGGJP@SAVEPOINT?5fts3?$AA@ 100d1c00     interop.obj
 0002:00006c10       ??_C@_0N@MGHAAGPN@RELEASE?5fts3?$AA@ 100d1c10     interop.obj
 0002:00006c20       ??_C@_0BB@FILGCGJ@ROLLBACK?5TO?5fts3?$AA@ 100d1c20     interop.obj
 0002:00006c34       ??_C@_0CD@HGBIMAPM@unrecognized?5matchinfo?5request?3?5@ 100d1c34     interop.obj
 0002:00006c58       ??_C@_0N@CAAIIPHA@?$CFd?5?$CFd?5?$CFd?5?$CFd?5?$AA@ 100d1c58     interop.obj
 0002:00006c68       ??_C@_03BIPDAGPI@pcx?$AA@  100d1c68     interop.obj
 0002:00006c6c       ??_C@_0BE@DGBGPKPD@remove_diacritics?$DN1?$AA@ 100d1c6c     interop.obj
 0002:00006c80       ??_C@_0BE@CPANMLLC@remove_diacritics?$DN0?$AA@ 100d1c80     interop.obj
 0002:00006c94       ??_C@_0M@JNBKBLBC@tokenchars?$DN?$AA@ 100d1c94     interop.obj
 0002:00006ca0       ??_C@_0M@POCAMIMG@separators?$DN?$AA@ 100d1ca0     interop.obj
 0002:00006cb0       ??_C@_0FC@PCOGINLL@DROP?5TABLE?5?8?$CFq?8?4?8?$CFq_node?8?$DLDROP?5T@ 100d1cb0     interop.obj
 0002:00006d04       ??_C@_0CA@KKFEJEOI@UNIQUE?5constraint?5failed?3?5?$CFs?4?$CFs?$AA@ 100d1d04     interop.obj
 0002:00006d24       ??_C@_0CF@BJOAOMHH@rtree?5constraint?5failed?3?5?$CFs?4?$CI?$CFs?$DM@ 100d1d24     interop.obj
 0002:00006d50       ??_C@_0JB@OPIDJEFG@ALTER?5TABLE?5?$CFQ?4?8?$CFq_node?8?5?5?5RENAM@ 100d1d50     interop.obj
 0002:00006de4       ??_C@_0DI@KGIILJME@SELECT?5stat?5FROM?5?$CFQ?4sqlite_stat1@ 100d1de4     interop.obj
 0002:00006e1c       ??_C@_0DC@LADEDDNO@SELECT?5data?5FROM?5?8?$CFq?8?4?8?$CFq_node?8?5@ 100d1e1c     interop.obj
 0002:00006e50       ??_C@_0DF@HGBHOIBO@INSERT?5OR?5REPLACE?5INTO?5?8?$CFq?8?4?8?$CFq_@ 100d1e50     interop.obj
 0002:00006e88       ??_C@_0CN@NJAIPDIA@DELETE?5FROM?5?8?$CFq?8?4?8?$CFq_node?8?5WHERE@ 100d1e88     interop.obj
 0002:00006eb8       ??_C@_0DE@NMCAHMCK@SELECT?5nodeno?5FROM?5?8?$CFq?8?4?8?$CFq_rowi@ 100d1eb8     interop.obj
 0002:00006eec       ??_C@_0DG@OPBLMGLD@INSERT?5OR?5REPLACE?5INTO?5?8?$CFq?8?4?8?$CFq_@ 100d1eec     interop.obj
 0002:00006f24       ??_C@_0CN@JLLIJKKP@DELETE?5FROM?5?8?$CFq?8?4?8?$CFq_rowid?8?5WHER@ 100d1f24     interop.obj
 0002:00006f54       ??_C@_0DK@LBKGHCLI@SELECT?5parentnode?5FROM?5?8?$CFq?8?4?8?$CFq_@ 100d1f54     interop.obj
 0002:00006f90       ??_C@_0DH@IPNBEOMK@INSERT?5OR?5REPLACE?5INTO?5?8?$CFq?8?4?8?$CFq_@ 100d1f90     interop.obj
 0002:00006fc8       ??_C@_0CP@DMLOGJAI@DELETE?5FROM?5?8?$CFq?8?4?8?$CFq_parent?8?5WHE@ 100d1fc8     interop.obj
 0002:00006ff8       ??_C@_0BAM@HLINMDBI@CREATE?5TABLE?5?$CC?$CFw?$CC?4?$CC?$CFw_node?$CC?$CInode@ 100d1ff8     interop.obj
 0002:00007104       ??_C@_0DJ@FJHIAAMI@SELECT?5length?$CIdata?$CJ?5FROM?5?8?$CFq?8?4?8?$CF@ 100d2104     interop.obj
 0002:00007140       ??_C@_0CL@JLGEGOKF@Wrong?5number?5of?5columns?5for?5an?5r@ 100d2140     interop.obj
 0002:0000716c       ??_C@_0CD@LNBABDIB@Too?5few?5columns?5for?5an?5rtree?5tab@ 100d216c     interop.obj
 0002:00007190       ??_C@_0CE@OFDKEPLE@Too?5many?5columns?5for?5an?5rtree?5ta@ 100d2190     interop.obj
 0002:000071b4       ??_C@_0BC@EHLBCEFD@CREATE?5TABLE?5x?$CI?$CFs?$AA@ 100d21b4     interop.obj
 0002:000071c8       ??_C@_06OMDHIKNA@?$CFs?0?5?$CFs?$AA@ 100d21c8     interop.obj
 0002:000071d0       ??_C@_04ECFIDFLD@?$CFs?$CJ?$DL?$AA@ 100d21d0     interop.obj
 0002:000071d8       ??_C@_03GKLDPGLG@?5?$CFg?$AA@ 100d21d8     interop.obj
 0002:000071dc       ??_C@_07CEKPNMEE@?$CFs?5?$HL?$CFs?$HN?$AA@ 100d21dc     interop.obj
 0002:000071e4       ??_C@_04OMBFFHIC@?$HL?$CFs?$HN?$AA@ 100d21e4     interop.obj
 0002:000071ec       ??_C@_0CB@GBDNHMJO@Invalid?5argument?5to?5rtreedepth?$CI?$CJ@ 100d21ec     interop.obj
 0002:00007210       ??_C@_09DOFHOJNE@rtreenode?$AA@ 100d2210     interop.obj
 0002:0000721c       ??_C@_0L@FBAJCMD@rtreedepth?$AA@ 100d221c     interop.obj
 0002:00007228       ??_C@_05JDCFEKKH@rtree?$AA@ 100d2228     interop.obj
 0002:00007230       ??_C@_09BLHENEJI@rtree_i32?$AA@ 100d2230     interop.obj
 0002:00007240       ??_C@_0CME@HBOLCCP@CREATE?5TABLE?5xx?$CI?5?5?5name?5?5?5?5?5?5?5TE@ 100d2240     interop.obj
 0002:00007504       ??_C@_01KMDKNFGN@?1?$AA@   100d2504     interop.obj
 0002:00007508       ??_C@_08CLAAFLMB@overflow?$AA@ 100d2508     interop.obj
 0002:00007514       ??_C@_0M@LHFNBNKN@?$CFs?$CF?43x?$CL?$CF?46x?$AA@ 100d2514     interop.obj
 0002:00007520       ??_C@_07HFDLNFDI@?$CFs?$CF?43x?1?$AA@ 100d2520     interop.obj
 0002:00007528       ??_C@_08LEPPLCNF@internal?$AA@ 100d2528     interop.obj
 0002:00007534       ??_C@_04BDFFPIKJ@leaf?$AA@ 100d2534     interop.obj
 0002:0000753c       ??_C@_09DJBANNHO@corrupted?$AA@ 100d253c     interop.obj
 0002:00007548       ??_C@_0BD@OAEHKJBC@no?5such?5schema?3?5?$CFs?$AA@ 100d2548     interop.obj
 0002:00007560       ??_C@_0JG@LLGEKHGM@SELECT?5?8sqlite_master?8?5AS?5name?0?5@ 100d2560     interop.obj
 0002:000075f8       ??_C@_06DPFGBH@dbstat?$AA@ 100d25f8     interop.obj
 0002:00007600       ??_C@_0N@HPOBCAGP@domain?5error?$AA@ 100d2600     interop.obj
 0002:00007610       ??_C@_04PDIFKINK@acos?$AA@ 100d2610     interop.obj
 0002:00007618       ??_C@_04FIHNOPOL@asin?$AA@ 100d2618     interop.obj
 0002:00007620       ??_C@_04MLLJIGOK@atan?$AA@ 100d2620     interop.obj
 0002:00007628       ??_C@_04NGOLNDIP@atn2?$AA@ 100d2628     interop.obj
 0002:00007630       ??_C@_05KNGEOGJB@atan2?$AA@ 100d2630     interop.obj
 0002:00007638       ??_C@_05MLNBFPMN@acosh?$AA@ 100d2638     interop.obj
 0002:00007640       ??_C@_05JKKEKHLA@asinh?$AA@ 100d2640     interop.obj
 0002:00007648       ??_C@_05ONDAFDEP@atanh?$AA@ 100d2648     interop.obj
 0002:00007650       ??_C@_0L@CHCOIIBP@difference?$AA@ 100d2650     interop.obj
 0002:0000765c       ??_C@_07MHOHEFBH@degrees?$AA@ 100d265c     interop.obj
 0002:00007664       ??_C@_07JLOPPFCD@radians?$AA@ 100d2664     interop.obj
 0002:0000766c       ??_C@_03LALBNOCG@cos?$AA@  100d266c     interop.obj
 0002:00007670       ??_C@_03BLEJJJBH@sin?$AA@  100d2670     interop.obj
 0002:00007674       ??_C@_03IIINPABG@tan?$AA@  100d2674     interop.obj
 0002:00007678       ??_C@_03PPPAEIOB@cot?$AA@  100d2678     interop.obj
 0002:0000767c       ??_C@_04HPJJNFIM@cosh?$AA@ 100d267c     interop.obj
 0002:00007684       ??_C@_04COOMCNPB@sinh?$AA@ 100d2684     interop.obj
 0002:0000768c       ??_C@_04FJHINJAO@tanh?$AA@ 100d268c     interop.obj
 0002:00007694       ??_C@_04HKNGMDAJ@coth?$AA@ 100d2694     interop.obj
 0002:0000769c       ??_C@_03KHJOGHMM@exp?$AA@  100d269c     interop.obj
 0002:000076a0       ??_C@_05HGHHAHAP@log10?$AA@ 100d26a0     interop.obj
 0002:000076a8       ??_C@_05PLIADJJL@power?$AA@ 100d26a8     interop.obj
 0002:000076b0       ??_C@_04HHGHLBPI@sign?$AA@ 100d26b0     interop.obj
 0002:000076b8       ??_C@_04EIAKFFMI@sqrt?$AA@ 100d26b8     interop.obj
 0002:000076c0       ??_C@_06ICDKOIFG@square?$AA@ 100d26c0     interop.obj
 0002:000076c8       ??_C@_04GFPJNGEK@ceil?$AA@ 100d26c8     interop.obj
 0002:000076d0       ??_C@_07EANFIDJB@ceiling?$AA@ 100d26d0     interop.obj
 0002:000076d8       ??_C@_05PBJFFIGL@floor?$AA@ 100d26d8     interop.obj
 0002:000076e0       ??_C@_02OAHAJOFD@pi?$AA@   100d26e0     interop.obj
 0002:000076e4       ??_C@_0BD@IFENDAKA@last_rows_affected?$AA@ 100d26e4     interop.obj
 0002:000076f8       ??_C@_09CBPKCNMB@replicate?$AA@ 100d26f8     interop.obj
 0002:00007704       ??_C@_09LCOPGHLO@charindex?$AA@ 100d2704     interop.obj
 0002:00007710       ??_C@_07CBJDIIOC@leftstr?$AA@ 100d2710     interop.obj
 0002:00007718       ??_C@_08JJJINGEL@rightstr?$AA@ 100d2718     interop.obj
 0002:00007724       ??_C@_07KOIEOCCE@reverse?$AA@ 100d2724     interop.obj
 0002:0000772c       ??_C@_06OLFJAONP@proper?$AA@ 100d272c     interop.obj
 0002:00007734       ??_C@_04MFADDPBM@padl?$AA@ 100d2734     interop.obj
 0002:0000773c       ??_C@_04BBECAAMD@padr?$AA@ 100d273c     interop.obj
 0002:00007744       ??_C@_04ECJLCDND@padc?$AA@ 100d2744     interop.obj
 0002:0000774c       ??_C@_09GOCGDFFD@strfilter?$AA@ 100d274c     interop.obj
 0002:00007758       ??_C@_05EMOENAND@stdev?$AA@ 100d2758     interop.obj
 0002:00007760       ??_C@_08PPLCFKON@variance?$AA@ 100d2760     interop.obj
 0002:0000776c       ??_C@_06EIDMBNHH@median?$AA@ 100d276c     interop.obj
 0002:00007774       ??_C@_0P@BHPBIMCK@lower_quartile?$AA@ 100d2774     interop.obj
 0002:00007784       ??_C@_0P@GILEIKMI@upper_quartile?$AA@ 100d2784     interop.obj
 0002:00007798       ??_C@_1FO@GBKEFGLF@?$AAM?$AAi?$AAc?$AAr?$AAo?$AAs?$AAo?$AAf?$AAt?$AA?5?$AAE?$AAn?$AAh?$AAa?$AAn?$AAc?$AAe?$AAd?$AA?5?$AAC?$AAr?$AAy?$AAp?$AAt?$AAo?$AAg?$AAr?$AAa?$AAp?$AAh?$AAi?$AAc@ 100d2798     interop.obj
 0002:000077f8       ??_C@_0CF@PDNGJJHH@Cryptographic?5provider?5not?5avail@ 100d27f8     interop.obj
 0002:00007820       ??_C@_05KECBHFIB@CODEC?$AA@ 100d2820     interop.obj
 0002:00007828       ??_C@_0BE@FBEPHJOJ@EXTENSION_FUNCTIONS?$AA@ 100d2828     interop.obj
 0002:0000783c       ??_C@_0BA@KNGGBCAM@JSON1_EXTENSION?$AA@ 100d283c     interop.obj
 0002:0000784c       ??_C@_0BF@ICFBEBIE@PERCENTILE_EXTENSION?$AA@ 100d284c     interop.obj
 0002:00007864       ??_C@_0BB@CDMPNKEH@REGEXP_EXTENSION?$AA@ 100d2864     interop.obj
 0002:00007878       ??_C@_0BB@KHKIMGJF@TOTYPE_EXTENSION?$AA@ 100d2878     interop.obj
 0002:0000788c       ??_C@_0BH@CHBLMFDP@VERSION_NUMBER?$DN3014002?$AA@ 100d288c     interop.obj
 0002:000078a4       ??_C@_0O@NJNGIHJL@VIRTUAL_TABLE?$AA@ 100d28a4     interop.obj
 0002:000078b4       ??_C@_08POEGDEC@INTEROP_?$AA@ 100d28b4     interop.obj
 0002:000078c0       ??_C@_09KKDEFANK@1?40?4103?40?$AA@ 100d28c0     interop.obj
 0002:000078d0       ??_C@_0EB@BIBJKLHN@00000000000000000000000000000000@ 100d28d0     interop.obj
 0002:00007914       ??_C@_0CB@CGLCOOIM@virtual?5table?5was?5disposed?3?5?$CC?$CFs?$CC@ 100d2914     interop.obj
 0002:00007938       ??_C@_0BM@CGDFPFBP@fts5?3?5parser?5stack?5overflow?$AA@ 100d2938     interop.obj
 0002:00007954       ??_C@_0BP@KPOIFJDP@fts5?3?5syntax?5error?5near?5?$CC?$CF?4?$CKs?$CC?$AA@ 100d2954     interop.obj
 0002:00007974       ??_C@_06CNKLIJGH@?$CFz?$CF?4?$CKs?$AA@ 100d2974     interop.obj
 0002:0000797c       ??_C@_0DC@CGMBNLKK@wrong?5number?5of?5arguments?5to?5fun@ 100d297c     interop.obj
 0002:000079b0       ??_C@_09MIAHMBP@highlight?$AA@ 100d29b0     interop.obj
 0002:000079bc       ??_C@_04JGLNPAFJ@bm25?$AA@ 100d29bc     interop.obj
 0002:000079c4       ??_C@_0BP@JGOLAMJF@malformed?5prefix?$DN?4?4?4?5directive?$AA@ 100d29c4     interop.obj
 0002:000079e4       ??_C@_0CB@CPMAOHA@too?5many?5prefix?5indexes?5?$CImax?5?$CFd?$CJ@ 100d29e4     interop.obj
 0002:00007a08       ??_C@_0CF@JGJMFBMP@prefix?5length?5out?5of?5range?5?$CImax?5@ 100d2a08     interop.obj
 0002:00007a30       ??_C@_0CB@ECGEPJLH@multiple?5tokenize?$DN?4?4?4?5directives@ 100d2a30     interop.obj
 0002:00007a54       ??_C@_0CC@PPKILGPK@parse?5error?5in?5tokenize?5directiv@ 100d2a54     interop.obj
 0002:00007a78       ??_C@_0CA@EJMIFEII@multiple?5content?$DN?4?4?4?5directives?$AA@ 100d2a78     interop.obj
 0002:00007a98       ??_C@_05MBOEBMLB@?$CFQ?4?$CFQ?$AA@ 100d2a98     interop.obj
 0002:00007aa0       ??_C@_0O@MLPMKEIP@content_rowid?$AA@ 100d2aa0     interop.obj
 0002:00007ab0       ??_C@_0CG@EMNNNJLK@multiple?5content_rowid?$DN?4?4?4?5direc@ 100d2ab0     interop.obj
 0002:00007ad8       ??_C@_0L@ECGKBPGO@columnsize?$AA@ 100d2ad8     interop.obj
 0002:00007ae4       ??_C@_0CD@NEPNFBHB@malformed?5columnsize?$DN?4?4?4?5directi@ 100d2ae4     interop.obj
 0002:00007b08       ??_C@_07HIFEPIJN@columns?$AA@ 100d2b08     interop.obj
 0002:00007b10       ??_C@_0BP@NJOMNEFL@malformed?5detail?$DN?4?4?4?5directive?$AA@ 100d2b10     interop.obj
 0002:00007b30       ??_C@_0BM@GLKIHOOD@unrecognized?5option?3?5?$CC?$CF?4?$CKs?$CC?$AA@ 100d2b30     interop.obj
 0002:00007b4c       ??_C@_04PNBFHPGN@rank?$AA@ 100d2b4c     interop.obj
 0002:00007b54       ??_C@_0BO@HLHCALLL@reserved?5fts5?5column?5name?3?5?$CFs?$AA@ 100d2b54     interop.obj
 0002:00007b74       ??_C@_09KPCIJFCB@unindexed?$AA@ 100d2b74     interop.obj
 0002:00007b80       ??_C@_0BP@EBLACHJN@unrecognized?5column?5option?3?5?$CFs?$AA@ 100d2b80     interop.obj
 0002:00007ba0       ??_C@_04CJIFFBPK@T?4?$CFQ?$AA@ 100d2ba0     interop.obj
 0002:00007ba8       ??_C@_06HNHKCPEH@?0?5T?4?$CFQ?$AA@ 100d2ba8     interop.obj
 0002:00007bb0       ??_C@_07ENDMHNC@?0?5T?4c?$CFd?$AA@ 100d2bb0     interop.obj
 0002:00007bb8       ??_C@_0BN@MEHNAIOK@reserved?5fts5?5table?5name?3?5?$CFs?$AA@ 100d2bb8     interop.obj
 0002:00007bd8       ??_C@_0BE@NEGGJJFK@parse?5error?5in?5?$CC?$CFs?$CC?$AA@ 100d2bd8     interop.obj
 0002:00007bec       ??_C@_07IEFCJPNN@docsize?$AA@ 100d2bec     interop.obj
 0002:00007bf4       ??_C@_0L@HAMDBJKL@?$CFQ?4?8?$CFq_?$CFs?8?$AA@ 100d2bf4     interop.obj
 0002:00007c00       ??_C@_0BA@BGMKDGLG@CREATE?5TABLE?5x?$CI?$AA@ 100d2c00     interop.obj
 0002:00007c10       ??_C@_06LICCFPAF@?$CFz?$CFs?$CFQ?$AA@ 100d2c10     interop.obj
 0002:00007c18       ??_C@_0BK@DLCLEHIJ@?$CFz?0?5?$CFQ?5HIDDEN?0?5?$CFs?5HIDDEN?$CJ?$AA@ 100d2c18     interop.obj
 0002:00007c34       ??_C@_04OFJJGAOC@pgsz?$AA@ 100d2c34     interop.obj
 0002:00007c3c       ??_C@_08GCJLHPLL@hashsize?$AA@ 100d2c3c     interop.obj
 0002:00007c48       ??_C@_09LMBMBDNC@automerge?$AA@ 100d2c48     interop.obj
 0002:00007c54       ??_C@_09FHFLIHHB@usermerge?$AA@ 100d2c54     interop.obj
 0002:00007c60       ??_C@_0M@PKMMADDP@crisismerge?$AA@ 100d2c60     interop.obj
 0002:00007c6c       ??_C@_0CA@PGNDODLA@SELECT?5k?0?5v?5FROM?5?$CFQ?4?8?$CFq_config?8?$AA@ 100d2c6c     interop.obj
 0002:00007c8c       ??_C@_07CPCPJPKL@version?$AA@ 100d2c8c     interop.obj
 0002:00007c98       ??_C@_0EB@PDIODBOG@invalid?5fts5?5file?5format?5?$CIfound?5@ 100d2c98     interop.obj
 0002:00007cdc       ??_C@_0BE@EMLBHFPA@unterminated?5string?$AA@ 100d2cdc     interop.obj
 0002:00007cf0       ??_C@_0BP@CIPAIJKB@fts5?3?5syntax?5error?5near?5?$CC?$CF?41s?$CC?$AA@ 100d2cf0     interop.obj
 0002:00007d10       ??_C@_0BN@KOBPHHFF@expected?5integer?0?5got?5?$CC?$CF?4?$CKs?$CC?$AA@ 100d2d10     interop.obj
 0002:00007d30       ??_C@_0DF@DBCIDOJF@fts5?3?5column?5queries?5are?5not?5sup@ 100d2d30     interop.obj
 0002:00007d68       ??_C@_06CEOJBHLP@phrase?$AA@ 100d2d68     interop.obj
 0002:00007d70       ??_C@_0DC@BGMKGANN@fts5?3?5?$CFs?5queries?5are?5not?5support@ 100d2d70     interop.obj
 0002:00007da4       ??_C@_03IKGEINEE@?$CFs?5?$AA@ 100d2da4     interop.obj
 0002:00007da8       ??_C@_08LKJDONIG@?9col?5?$CFd?5?$AA@ 100d2da8     interop.obj
 0002:00007db4       ??_C@_08HEAMPIOB@?9col?5?$HL?$CFd?$AA@ 100d2db4     interop.obj
 0002:00007dc0       ??_C@_03EBJOKFHF@?5?$CFd?$AA@ 100d2dc0     interop.obj
 0002:00007dc4       ??_C@_02MJBDPJEM@?$HN?5?$AA@ 100d2dc4     interop.obj
 0002:00007dc8       ??_C@_09ENCADHMN@?9near?5?$CFd?5?$AA@ 100d2dc8     interop.obj
 0002:00007dd4       ??_C@_02BAABKJLB@?9?9?$AA@ 100d2dd4     interop.obj
 0002:00007dd8       ??_C@_02PEDIMADA@?5?$HL?$AA@ 100d2dd8     interop.obj
 0002:00007ddc       ??_C@_01CELHOKLL@?$HN?$AA@ 100d2ddc     interop.obj
 0002:00007de0       ??_C@_05MHMNDECD@?5?$FL?$CFz?$FN?$AA@ 100d2de0     interop.obj
 0002:00007de8       ??_C@_02JMMFPCED@?$CC?$CC?$AA@ 100d2de8     interop.obj
 0002:00007dec       ??_C@_05LLGELLBM@?$CFs?5?3?5?$AA@ 100d2dec     interop.obj
 0002:00007df4       ??_C@_05PKLBIJFF@NEAR?$CI?$AA@ 100d2df4     interop.obj
 0002:00007dfc       ??_C@_03NPBFACHO@?5?$CL?5?$AA@ 100d2dfc     interop.obj
 0002:00007e00       ??_C@_05GDOGBHAO@?0?5?$CFd?$CJ?$AA@ 100d2e00     interop.obj
 0002:00007e08       ??_C@_05JDBEFHOH@?5NOT?5?$AA@ 100d2e08     interop.obj
 0002:00007e10       ??_C@_04MBNHLBPB@?5OR?5?$AA@ 100d2e10     interop.obj
 0002:00007e18       ??_C@_01ODHLEDKK@?$CI?$AA@ 100d2e18     interop.obj
 0002:00007e1c       ??_C@_08NEELJNCI@?$CFs?$CFs?$CFz?$CFs?$AA@ 100d2e1c     interop.obj
 0002:00007e28       ??_C@_07LKENCEEG@nearset?$AA@ 100d2e28     interop.obj
 0002:00007e30       ??_C@_0O@HMOEDBAG@fts5_expr_tcl?$AA@ 100d2e30     interop.obj
 0002:00007e40       ??_C@_09PODONEKJ@fts5_expr?$AA@ 100d2e40     interop.obj
 0002:00007e4c       ??_C@_0CJ@LMNCPIEA@wrong?5number?5of?5arguments?5to?5fun@ 100d2e4c     interop.obj
 0002:00007e78       ??_C@_0DD@PEIJNNKA@wrong?5number?5of?5arguments?5to?5fun@ 100d2e78     interop.obj
 0002:00007eac       ??_C@_0DA@BIIALNIH@wrong?5number?5of?5arguments?5to?5fun@ 100d2eac     interop.obj
 0002:00007edc       ??_C@_0N@OJPOPNKI@fts5_isalnum?$AA@ 100d2edc     interop.obj
 0002:00007eec       ??_C@_09HNPECOJM@fts5_fold?$AA@ 100d2eec     interop.obj
 0002:00007ef8       ??_C@_0DD@OABMJECO@REPLACE?5INTO?5?8?$CFq?8?4?8?$CFq_data?8?$CIid?0?5@ 100d2ef8     interop.obj
 0002:00007f2c       ??_C@_0DB@JNAPOGD@DELETE?5FROM?5?8?$CFq?8?4?8?$CFq_data?8?5WHERE@ 100d2f2c     interop.obj
 0002:00007f60       ??_C@_0CI@GOFEPDLL@DELETE?5FROM?5?8?$CFq?8?4?8?$CFq_idx?8?5WHERE?5@ 100d2f60     interop.obj
 0002:00007f88       ??_C@_0BH@DDFHPPKE@PRAGMA?5?$CFQ?4data_version?$AA@ 100d2f88     interop.obj
 0002:00007fa0       ??_C@_0FE@FFBGCGHB@SELECT?5pgno?5FROM?5?8?$CFq?8?4?8?$CFq_idx?8?5W@ 100d2fa0     interop.obj
 0002:00007ff4       ??_C@_0DJ@GMPBOAPJ@INSERT?5INTO?5?8?$CFq?8?4?8?$CFq_idx?8?$CIsegid?0@ 100d2ff4     interop.obj
 0002:00008030       ??_C@_07MLCFOHLB@?$CFs_data?$AA@ 100d3030     interop.obj
 0002:00008038       ??_C@_0CD@BNBOJEIH@id?5INTEGER?5PRIMARY?5KEY?0?5block?5BL@ 100d3038     interop.obj
 0002:0000805c       ??_C@_04PJOLNDGD@data?$AA@ 100d305c     interop.obj
 0002:00008064       ??_C@_0CM@KAPJJDEC@segid?0?5term?0?5pgno?0?5PRIMARY?5KEY?$CIs@ 100d3064     interop.obj
 0002:00008090       ??_C@_0EI@ONICPMBF@SELECT?5segid?0?5term?0?5?$CIpgno?$DO?$DO1?$CJ?0?5?$CI@ 100d3090     interop.obj
 0002:000080d8       ??_C@_0M@JKLLKCBG@?$HLaverages?$HN?5?$AA@ 100d30d8     interop.obj
 0002:000080e4       ??_C@_0M@HNBBGJKK@?$HLstructure?$HN?$AA@ 100d30e4     interop.obj
 0002:000080f0       ??_C@_06INFMOPHE@dlidx?5?$AA@ 100d30f0     interop.obj
 0002:000080f8       ??_C@_0BK@NNHEDIBA@?$HL?$CFssegid?$DN?$CFd?5h?$DN?$CFd?5pgno?$DN?$CFd?$HN?$AA@ 100d30f8     interop.obj
 0002:00008114       ??_C@_0BL@EFMJIEFD@?5?$HLlvl?$DN?$CFd?5nMerge?$DN?$CFd?5nSeg?$DN?$CFd?$AA@ 100d3114     interop.obj
 0002:00008130       ??_C@_0BH@MLHDJCKN@?5?$HLid?$DN?$CFd?5leaves?$DN?$CFd?4?4?$CFd?$HN?$AA@ 100d3130     interop.obj
 0002:00008148       ??_C@_04HGGBINEM@?$CFs?$CFd?$AA@ 100d3148     interop.obj
 0002:00008150       ??_C@_08KLDDNKMP@?5id?$DN?$CFlld?$AA@ 100d3150     interop.obj
 0002:0000815c       ??_C@_0L@EEMGLGLN@?5nPos?$DN?$CFd?$CFs?$AA@ 100d315c     interop.obj
 0002:00008168       ??_C@_01MIFGBAGJ@?$CL?$AA@ 100d3168     interop.obj
 0002:0000816c       ??_C@_07FDAKMPPM@?5?$CFlld?$CFs?$AA@ 100d316c     interop.obj
 0002:00008174       ??_C@_09ECHGDAGK@?5?$CFd?$CI?$CFlld?$CJ?$AA@ 100d3174     interop.obj
 0002:00008180       ??_C@_0L@DPEGBOAM@?5term?$DN?$CF?4?$CKs?$AA@ 100d3180     interop.obj
 0002:0000818c       ??_C@_07DPPMCAKL@corrupt?$AA@ 100d318c     interop.obj
 0002:00008194       ??_C@_0CF@MKKLNHEF@should?5be?3?5fts5_rowid?$CIsubject?0?5?4@ 100d3194     interop.obj
 0002:000081bc       ??_C@_07BADNAEFA@segment?$AA@ 100d31bc     interop.obj
 0002:000081c4       ??_C@_0CP@PALIMOP@should?5be?3?5fts5_rowid?$CI?8segment?8?0@ 100d31c4     interop.obj
 0002:000081f4       ??_C@_0CM@BIFLHBFJ@first?5arg?5to?5fts5_rowid?$CI?$CJ?5must?5b@ 100d31f4     interop.obj
 0002:00008220       ??_C@_0M@DFCDGLKM@fts5_decode?$AA@ 100d3220     interop.obj
 0002:0000822c       ??_C@_0BB@CDJGNFAJ@fts5_decode_none?$AA@ 100d322c     interop.obj
 0002:00008240       ??_C@_0L@OPNCIGKC@fts5_rowid?$AA@ 100d3240     interop.obj
 0002:0000824c       ??_C@_0DF@JLMLEJKE@SELECT?5rowid?0?5rank?5FROM?5?$CFQ?4?$CFQ?5OR@ 100d324c     interop.obj
 0002:00008284       ??_C@_05JBFDNDAE@reads?$AA@ 100d3284     interop.obj
 0002:0000828c       ??_C@_0BM@IFPGLKLD@unknown?5special?5query?3?5?$CF?4?$CKs?$AA@ 100d328c     interop.obj
 0002:000082a8       ??_C@_0BF@OOPNCALL@no?5such?5function?3?5?$CFs?$AA@ 100d32a8     interop.obj
 0002:000082c0       ??_C@_0CB@HOIJLHLO@parse?5error?5in?5rank?5function?3?5?$CFs@ 100d32c0     interop.obj
 0002:000082e4       ??_C@_0CE@ECAIDPIF@?$CFs?3?5table?5does?5not?5support?5scann@ 100d32e4     interop.obj
 0002:00008308       ??_C@_0L@BDLHLPBP@delete?9all?$AA@ 100d3308     interop.obj
 0002:00008318       ??_C@_0FA@CIIINBOG@?8delete?9all?8?5may?5only?5be?5used?5wi@ 100d3318     interop.obj
 0002:00008368       ??_C@_0DI@DLMKIEBM@?8rebuild?8?5may?5not?5be?5used?5with?5a@ 100d3368     interop.obj
 0002:000083a0       ??_C@_05DPKBJALF@merge?$AA@ 100d33a0     interop.obj
 0002:000083a8       ??_C@_06HHJABCJL@UPDATE?$AA@ 100d33a8     interop.obj
 0002:000083b0       ??_C@_0M@IELMHAAN@DELETE?5from?$AA@ 100d33b0     interop.obj
 0002:000083bc       ??_C@_0CF@HECLOEBI@cannot?5?$CFs?5contentless?5fts5?5table@ 100d33bc     interop.obj
 0002:000083e4       ??_C@_0BF@HCNBMNJO@no?5such?5cursor?3?5?$CFlld?$AA@ 100d33e4     interop.obj
 0002:000083fc       ??_C@_0BG@LBLJOHPJ@no?5such?5tokenizer?3?5?$CFs?$AA@ 100d33fc     interop.obj
 0002:00008414       ??_C@_0BP@OILDIGEL@error?5in?5tokenizer?5constructor?$AA@ 100d3414     interop.obj
 0002:00008438       ??_C@_0ED@MEOMIECL@fts5?3?52016?909?912?518?350?349?529dbef@ 100d3438     interop.obj
 0002:0000847c       ??_C@_04DPHEKJHL@fts5?$AA@ 100d347c     interop.obj
 0002:00008484       ??_C@_0P@NAHBMDMC@fts5_source_id?$AA@ 100d3484     interop.obj
 0002:00008498       ??_C@_0EE@MFBLFLCB@SELECT?5?$CFs?5FROM?5?$CFs?5T?5WHERE?5T?4?$CFQ?5?$DO@ 100d3498     interop.obj
 0002:000084e0       ??_C@_0EF@CPBHACAK@SELECT?5?$CFs?5FROM?5?$CFs?5T?5WHERE?5T?4?$CFQ?5?$DM@ 100d34e0     interop.obj
 0002:00008528       ??_C@_0CB@EJCMNDBM@SELECT?5?$CFs?5FROM?5?$CFs?5T?5WHERE?5T?4?$CFQ?$DN?$DP@ 100d3528     interop.obj
 0002:0000854c       ??_C@_0CI@IBMIJCLN@REPLACE?5INTO?5?$CFQ?4?8?$CFq_content?8?5VAL@ 100d354c     interop.obj
 0002:00008574       ??_C@_0CH@KANAGELI@DELETE?5FROM?5?$CFQ?4?8?$CFq_content?8?5WHER@ 100d3574     interop.obj
 0002:0000859c       ??_C@_0CH@CMIFHF@DELETE?5FROM?5?$CFQ?4?8?$CFq_docsize?8?5WHER@ 100d359c     interop.obj
 0002:000085c4       ??_C@_0CK@JMILCBMB@SELECT?5sz?5FROM?5?$CFQ?4?8?$CFq_docsize?8?5W@ 100d35c4     interop.obj
 0002:000085f0       ??_C@_0CI@MDNDCIBJ@REPLACE?5INTO?5?$CFQ?4?8?$CFq_config?8?5VALU@ 100d35f0     interop.obj
 0002:00008618       ??_C@_0BH@BLCDJBGD@SELECT?5?$CFs?5FROM?5?$CFs?5AS?5T?$AA@ 100d3618     interop.obj
 0002:00008630       ??_C@_0GI@LBOJHFAI@DROP?5TABLE?5IF?5EXISTS?5?$CFQ?4?8?$CFq_data@ 100d3630     interop.obj
 0002:00008698       ??_C@_0CG@KFDIHCKD@DROP?5TABLE?5IF?5EXISTS?5?$CFQ?4?8?$CFq_docs@ 100d3698     interop.obj
 0002:000086c0       ??_C@_0CG@BDEBIDEG@DROP?5TABLE?5IF?5EXISTS?5?$CFQ?4?8?$CFq_cont@ 100d36c0     interop.obj
 0002:000086e8       ??_C@_0CK@JPEMFHJJ@ALTER?5TABLE?5?$CFQ?4?8?$CFq_?$CFs?8?5RENAME?5TO@ 100d36e8     interop.obj
 0002:00008714       ??_C@_06HEJKKHEK@config?$AA@ 100d3714     interop.obj
 0002:0000871c       ??_C@_0P@OEAFFAME@?5WITHOUT?5ROWID?$AA@ 100d371c     interop.obj
 0002:0000872c       ??_C@_0BO@KJIIKFHN@CREATE?5TABLE?5?$CFQ?4?8?$CFq_?$CFq?8?$CI?$CFs?$CJ?$CFs?$AA@ 100d372c     interop.obj
 0002:0000874c       ??_C@_0CM@FMPEAAE@fts5?3?5error?5creating?5shadow?5tabl@ 100d374c     interop.obj
 0002:00008778       ??_C@_0BH@FOGGOGNE@id?5INTEGER?5PRIMARY?5KEY?$AA@ 100d3778     interop.obj
 0002:00008790       ??_C@_05OJBGMGFA@?0?5c?$CFd?$AA@ 100d3790     interop.obj
 0002:00008798       ??_C@_0CA@CCDFFKIA@id?5INTEGER?5PRIMARY?5KEY?0?5sz?5BLOB?$AA@ 100d3798     interop.obj
 0002:000087b8       ??_C@_0BB@DBJOGKKF@k?5PRIMARY?5KEY?0?5v?$AA@ 100d37b8     interop.obj
 0002:000087cc       ??_C@_0DC@NNCAGEAH@DELETE?5FROM?5?$CFQ?4?8?$CFq_data?8?$DLDELETE?5@ 100d37cc     interop.obj
 0002:00008800       ??_C@_0BN@CMIDFHKG@DELETE?5FROM?5?$CFQ?4?8?$CFq_docsize?8?$DL?$AA@ 100d3800     interop.obj
 0002:00008820       ??_C@_0CA@KFMKPEJG@SELECT?5count?$CI?$CK?$CJ?5FROM?5?$CFQ?4?8?$CFq_?$CFs?8?$AA@ 100d3820     interop.obj
 0002:00008840       ??_C@_0L@JAAEPBJE@tokenchars?$AA@ 100d3840     interop.obj
 0002:0000884c       ??_C@_0L@KMLLPMIJ@separators?$AA@ 100d384c     interop.obj
 0002:00008858       ??_C@_0BC@DCEAKPHN@remove_diacritics?$AA@ 100d3858     interop.obj
 0002:0000886c       ??_C@_05OJENGABA@ascii?$AA@ 100d386c     interop.obj
 0002:00008874       ??_C@_03HNOLNALI@col?$AA@  100d3874     interop.obj
 0002:00008878       ??_C@_03DMHICLNI@row?$AA@  100d3878     interop.obj
 0002:0000887c       ??_C@_0CC@JDJLAILP@fts5vocab?3?5unknown?5table?5type?3?5?$CF@ 100d387c     interop.obj
 0002:000088a0       ??_C@_0CI@BGKFKDIK@CREATE?5TABlE?5vocab?$CIterm?0?5col?0?5do@ 100d38a0     interop.obj
 0002:000088c8       ??_C@_0CD@GEHGHJJN@CREATE?5TABlE?5vocab?$CIterm?0?5doc?0?5cn@ 100d38c8     interop.obj
 0002:000088ec       ??_C@_0CB@GHBHBODJ@wrong?5number?5of?5vtable?5arguments@ 100d38ec     interop.obj
 0002:00008910       ??_C@_0DD@FBAAPLAN@SELECT?5t?4?$CFQ?5FROM?5?$CFQ?4?$CFQ?5AS?5t?5WHER@ 100d3910     interop.obj
 0002:00008944       ??_C@_0BK@FEAIPECG@no?5such?5fts5?5table?3?5?$CFs?4?$CFs?$AA@ 100d3944     interop.obj
 0002:00008960       ??_C@_09EEBDJDHO@fts5vocab?$AA@ 100d3960     interop.obj
 0002:0000896c       ??_C@_04LOAJBDKD@true?$AA@ 100d396c     interop.obj
 0002:00008974       ??_C@_05LAPONLG@false?$AA@ 100d3974     interop.obj
 0002:0000897c       ??_C@_05HIFJDKLD@array?$AA@ 100d397c     interop.obj
 0002:00008984       ??_C@_06IEOJBDIK@object?$AA@ 100d3984     interop.obj
 0002:00008990       ??_C@_0BB@JCEFLFJE@0123456789abcdef?$AA@ 100d3990     interop.obj
 0002:000089a4       ??_C@_0BN@OLHIFNEE@JSON?5cannot?5hold?5BLOB?5values?$AA@ 100d39a4     interop.obj
 0002:000089c4       ??_C@_0P@HGMNNFIA@malformed?5JSON?$AA@ 100d39c4     interop.obj
 0002:000089d4       ??_C@_03OJMJGOMJ@?$FL0?$FN?$AA@ 100d39d4     interop.obj
 0002:000089d8       ??_C@_0BK@NJDFBDHG@JSON?5path?5error?5near?5?8?$CFq?8?$AA@ 100d39d8     interop.obj
 0002:000089f4       ??_C@_0CL@MLCLHBFD@json_?$CFs?$CI?$CJ?5needs?5an?5odd?5number?5of@ 100d39f4     interop.obj
 0002:00008a20       ??_C@_0DD@MNHKLOMA@json_object?$CI?$CJ?5requires?5an?5even?5n@ 100d3a20     interop.obj
 0002:00008a54       ??_C@_0CC@DJMFCANB@json_object?$CI?$CJ?5labels?5must?5be?5TEX@ 100d3a54     interop.obj
 0002:00008a78       ??_C@_03KCHOJKKI@set?$AA@  100d3a78     interop.obj
 0002:00008a7c       ??_C@_06OAOPNKHP@insert?$AA@ 100d3a7c     interop.obj
 0002:00008a84       ??_C@_02GPECMEKF@?$FL?$FN?$AA@ 100d3a84     interop.obj
 0002:00008a88       ??_C@_02MCILKGOH@?$HL?$HN?$AA@ 100d3a88     interop.obj
 0002:00008a90       ??_C@_0FD@FFENPNAL@CREATE?5TABLE?5x?$CIkey?0value?0type?0at@ 100d3a90     interop.obj
 0002:00008ae4       ??_C@_04KBDJOJNB@?$FL?$CFd?$FN?$AA@ 100d3ae4     interop.obj
 0002:00008aec       ??_C@_05LJPKLGA@?4?$CF?4?$CKs?$AA@ 100d3aec     interop.obj
 0002:00008af4       ??_C@_01EPMOAMKG@$?$AA@    100d3af4     interop.obj
 0002:00008af8       ??_C@_04CLCAKCEI@json?$AA@ 100d3af8     interop.obj
 0002:00008b00       ??_C@_0L@JODPLPHJ@json_array?$AA@ 100d3b00     interop.obj
 0002:00008b0c       ??_C@_0BC@KIEPDDP@json_array_length?$AA@ 100d3b0c     interop.obj
 0002:00008b20       ??_C@_0N@OAGPBLJN@json_extract?$AA@ 100d3b20     interop.obj
 0002:00008b30       ??_C@_0M@JLLIJHFE@json_insert?$AA@ 100d3b30     interop.obj
 0002:00008b3c       ??_C@_0M@PPLOFOKB@json_object?$AA@ 100d3b3c     interop.obj
 0002:00008b48       ??_C@_0L@HBCANCHG@json_quote?$AA@ 100d3b48     interop.obj
 0002:00008b54       ??_C@_0M@HABLONOI@json_remove?$AA@ 100d3b54     interop.obj
 0002:00008b60       ??_C@_0N@IHIAJGEE@json_replace?$AA@ 100d3b60     interop.obj
 0002:00008b70       ??_C@_08HLOCMGGP@json_set?$AA@ 100d3b70     interop.obj
 0002:00008b7c       ??_C@_09GKBKJNAG@json_type?$AA@ 100d3b7c     interop.obj
 0002:00008b88       ??_C@_0L@OGBFHNAA@json_valid?$AA@ 100d3b88     interop.obj
 0002:00008b94       ??_C@_0BB@NBIIOEJO@json_group_array?$AA@ 100d3b94     interop.obj
 0002:00008ba8       ??_C@_0BC@MBJPJOCB@json_group_object?$AA@ 100d3ba8     interop.obj
 0002:00008bbc       ??_C@_09JPJDPCA@json_each?$AA@ 100d3bbc     interop.obj
 0002:00008bc8       ??_C@_09KHPGHLJM@json_tree?$AA@ 100d3bc8     interop.obj
 0002:00008bd8       ??_C@_0ED@OEJKFPLO@2nd?5argument?5to?5percentile?$CI?$CJ?5is?5@ 100d3bd8     interop.obj
 0002:00008c20       ??_C@_0EA@BKMGCEPO@2nd?5argument?5to?5percentile?$CI?$CJ?5is?5@ 100d3c20     interop.obj
 0002:00008c60       ??_C@_0CM@EJOMGILO@1st?5argument?5to?5percentile?$CI?$CJ?5is?5@ 100d3c60     interop.obj
 0002:00008c8c       ??_C@_0BK@LJDALHEI@Inf?5input?5to?5percentile?$CI?$CJ?$AA@ 100d3c8c     interop.obj
 0002:00008ca8       ??_C@_0L@CFOOMBJH@percentile?$AA@ 100d3ca8     interop.obj
 0002:00008cb4       ??_C@_0BB@HILABBIL@unknown?5?2?5escape?$AA@ 100d3cb4     interop.obj
 0002:00008cc8       ??_C@_0O@FACMLJNN@unmatched?5?8?$CI?8?$AA@ 100d3cc8     interop.obj
 0002:00008cd8       ??_C@_0BE@CFACGOLF@?8?$CK?8?5without?5operand?$AA@ 100d3cd8     interop.obj
 0002:00008cec       ??_C@_0BE@PCOAOOON@?8?$CL?8?5without?5operand?$AA@ 100d3cec     interop.obj
 0002:00008d00       ??_C@_0BE@IMKNIAF@?8?$DP?8?5without?5operand?$AA@ 100d3d00     interop.obj
 0002:00008d14       ??_C@_0BI@PPDBEGLA@?8?$HLm?0n?$HN?8?5without?5operand?$AA@ 100d3d14     interop.obj
 0002:00008d2c       ??_C@_0O@DONGCJDE@unmatched?5?8?$HL?8?$AA@ 100d3d2c     interop.obj
 0002:00008d3c       ??_C@_0BJ@NKJEOJON@n?5less?5than?5m?5in?5?8?$HLm?0n?$HN?8?$AA@ 100d3d3c     interop.obj
 0002:00008d58       ??_C@_0CB@LCAEBHHB@both?5m?5and?5n?5are?5zero?5in?5?8?$HLm?0n?$HN?8@ 100d3d58     interop.obj
 0002:00008d7c       ??_C@_0CG@PFMKOOCB@POSIX?5character?5classes?5not?5supp@ 100d3d7c     interop.obj
 0002:00008da4       ??_C@_0N@DJDIOAIE@unclosed?5?8?$FL?8?$AA@ 100d3da4     interop.obj
 0002:00008db4       ??_C@_0BH@GALMDGKD@unrecognized?5character?$AA@ 100d3db4     interop.obj
 0002:00008dcc       ??_C@_09EAKFBKNJ@tointeger?$AA@ 100d3dcc     interop.obj
 0002:00008dd8       ??_C@_06IMKBFIBE@toreal?$AA@ 100d3dd8     interop.obj
 0002:0000b6c4       _sqlite3_version           100d66c4     interop.obj
 0002:0000e738       __load_config_used         100d9738     MSVCRT:loadcfg.obj
 0002:0003f7a0       ___safe_se_handler_table   1010a7a0     <linker-defined>
 0002:0003faa8       ___rtc_iaa                 1010aaa8     MSVCRT:_initsect_.obj
 0002:0003faac       ___rtc_izz                 1010aaac     MSVCRT:_initsect_.obj
 0002:0003fab0       ___rtc_taa                 1010aab0     MSVCRT:_initsect_.obj
 0002:0003fab4       ___rtc_tzz                 1010aab4     MSVCRT:_initsect_.obj
 0002:000422a8       __IMPORT_DESCRIPTOR_KERNEL32 1010d2a8     kernel32:KERNEL32.dll
 0002:000422bc       __IMPORT_DESCRIPTOR_ADVAPI32 1010d2bc     advapi32:ADVAPI32.dll
 0002:000422d0       __IMPORT_DESCRIPTOR_VCRUNTIME140 1010d2d0     vcruntime:VCRUNTIME140.dll
 0002:000422e4       __IMPORT_DESCRIPTOR_api-ms-win-crt-heap-l1-1-0 1010d2e4     ucrt:api-ms-win-crt-heap-l1-1-0.dll
 0002:000422f8       __IMPORT_DESCRIPTOR_api-ms-win-crt-runtime-l1-1-0 1010d2f8     ucrt:api-ms-win-crt-runtime-l1-1-0.dll
 0002:0004230c       __IMPORT_DESCRIPTOR_api-ms-win-crt-string-l1-1-0 1010d30c     ucrt:api-ms-win-crt-string-l1-1-0.dll
 0002:00042320       __IMPORT_DESCRIPTOR_api-ms-win-crt-time-l1-1-0 1010d320     ucrt:api-ms-win-crt-time-l1-1-0.dll
 0002:00042334       __IMPORT_DESCRIPTOR_api-ms-win-crt-math-l1-1-0 1010d334     ucrt:api-ms-win-crt-math-l1-1-0.dll
 0002:00042348       __IMPORT_DESCRIPTOR_api-ms-win-crt-utility-l1-1-0 1010d348     ucrt:api-ms-win-crt-utility-l1-1-0.dll
 0002:0004235c       __IMPORT_DESCRIPTOR_mscoree 1010d35c     mscoree:mscoree.dll
 0002:00042370       __NULL_IMPORT_DESCRIPTOR   1010d370     kernel32:KERNEL32.dll
 0003:00000000       ___security_cookie_complement 1010f000     MSVCRT:gs_cookie.obj
 0003:00000004       ___security_cookie         1010f004     MSVCRT:gs_cookie.obj
 0003:00000008       ___scrt_native_dllmain_reason 1010f008     MSVCRT:utility.obj
 0003:00000010       ___isa_enabled             1010f010     MSVCRT:_cpu_disp_.obj
 0003:00000014       ___scrt_ucrt_dll_is_in_use 1010f014     MSVCRT:ucrt_stubs.obj
 0003:00001148       __fltused                  10110148     MSVCRT:fltused.obj
 0003:00001470       ___scrt_current_native_startup_state 10110470     MSVCRT:utility.obj
 0003:00001474       ___scrt_native_startup_lock 10110474     MSVCRT:utility.obj
 0003:00001498       ?__type_info_root_node@@3U__type_info_node@@A 10110498     MSVCRT:tncleanup.obj
 0003:000014a0       ?_OptionsStorage@?1??__local_stdio_printf_options@@9@4_KA 101104a0     MSVCRT:default_local_stdio_options.obj
 0003:000014a8       ?_OptionsStorage@?1??__local_stdio_scanf_options@@9@4_KA 101104a8     MSVCRT:default_local_stdio_options.obj
 0003:000014b0       ___scrt_debugger_hook_flag 101104b0     MSVCRT:utility_desktop.obj
 0003:000014b4       ___isa_available           101104b4     MSVCRT:_cpu_disp_.obj
 0003:000014b8       ___favor                   101104b8     MSVCRT:_cpu_disp_.obj
 0003:000014c4       _sqlite3_data_directory    101104c4     interop.obj
 0003:000014c8       _sqlite3_temp_directory    101104c8     interop.obj
 0003:00001554       _g_hProvider               10110554     interop.obj
 0003:00003388       ___dyn_tls_init_callback   10112388     <common>
 0005:00000000       __real@3f50624dd2f1a9fc    10114000     interop.obj
 0005:00000008       __real@3ff0000000000000    10114008     interop.obj
 0005:00000010       __real@547d42aea2879f2e    10114010     interop.obj
 0005:00000018       __real@4059000000000000    10114018     interop.obj
 0005:00000020       __real@412e848000000000    10114020     interop.obj
 0005:00000028       __real@3fe0000000000000    10114028     interop.obj
 0005:00000030       __xmm@6765656463617979756f6e6965636100 10114030     interop.obj
 0005:00000040       __xmm@6f7a797775757473726f6e6c6b6a6968 10114040     interop.obj
 0005:00000050       __xmm@726f6965616e676a6f6b67756f696175 10114050     interop.obj
 0005:00000060       __xmm@0000000000000000796f656168747375 10114060     interop.obj
 0005:00000070       __xmm@706e6d6c6c6b69686867666564646261 10114070     interop.obj
 0005:00000080       __xmm@61797774687a79787777767574737272 10114080     interop.obj
 0005:00000090       __xmm@41414141414141414141414141414141 10114090     interop.obj
 0005:000000a0       __xmm@ffffffffffffffffffffffffffffffff 101140a0     interop.obj
 0005:000000b0       __xmm@5a5a5a5a5a5a5a5a5a5a5a5a5a5a5a5a 101140b0     interop.obj
 0005:000000c0       __xmm@20202020202020202020202020202020 101140c0     interop.obj
 0005:000000d0       __real@4066800000000000    101140d0     interop.obj
 0005:000000d8       __real@400921fb54442d18    101140d8     interop.obj
 0005:000000e0       __real@4014000000000000    101140e0     interop.obj
 0005:000000e8       __real@40d3880000000000    101140e8     interop.obj
 0005:000000f0       __real@c3e0000000000000    101140f0     interop.obj
 0005:000000f8       __real@43e0000000000000    101140f8     interop.obj
 0005:00000100       __real@0000000000000000    10114100     interop.obj
 0005:00000108       __real@8000000000000000    10114108     interop.obj
 0005:00000110       __real@4024000000000000    10114110     interop.obj
 0005:00000118       __real@7fe1ccf385ebc8a0    10114118     interop.obj
 0005:00000120       __real@7ff0000000000000    10114120     interop.obj
 0005:00000128       __real@4480f0cf064dd592    10114128     interop.obj
 0005:00000130       __real@4194997000000000    10114130     interop.obj
 0005:00000138       __real@413c7dd040000000    10114138     interop.obj
 0005:00000140       __real@40e1d58800000000    10114140     interop.obj
 0005:00000148       __real@405e866666666666    10114148     interop.obj
 0005:00000150       __real@4076d40000000000    10114150     interop.obj
 0005:00000158       __real@403e99a027525461    10114158     interop.obj
 0005:00000160       __real@4097d20000000000    10114160     interop.obj
 0005:00000168       __real@c08f400000000000    10114168     interop.obj
 0005:00000170       __real@bff0000000000000    10114170     interop.obj
 0005:00000178       __real@41a0000000000000    10114178     interop.obj
 0005:00000180       __real@41ddcd6500000000    10114180     interop.obj
 0005:00000188       __real@408f400000000000    10114188     interop.obj
 0005:00000190       __xmm@00000001000000010000000100000042 10114190     interop.obj
 0005:000001a0       __xmm@000000020000000200000042ffffffff 101141a0     interop.obj
 0005:000001b0       __xmm@0000000400000002ffffffff00000001 101141b0     interop.obj
 0005:000001c0       __xmm@00000018ffffffff0000000000000000 101141c0     interop.obj
 0005:000001d0       __xmm@ffffffff000000000000000000000008 101141d0     interop.obj
 0005:000001e0       __xmm@00000000000000000000001000000024 101141e0     interop.obj
 0005:000001f0       __real@4a511b0ec57e649a    101141f0     interop.obj
 0005:000001f8       __real@407f400000000000    101141f8     interop.obj
 0005:00000200       __real@410e848000000000    10114200     interop.obj
 0005:00000208       __real@4087700000000000    10114208     interop.obj
 0005:00000210       __real@4126e36000000000    10114210     interop.obj
 0005:00000218       __real@415312d000000000    10114218     interop.obj
 0005:00000220       __real@4000000000000000    10114220     interop.obj
 0005:00000228       __real@4048000000000000    10114228     interop.obj
 0005:00000230       __real@3fefffffc0000000    10114230     interop.obj
 0005:00000238       __real@3ff0000020000000    10114238     interop.obj
 0005:00000240       __xmm@000000000000000100000001000007d0 10114240     interop.obj
 0005:00000250       __xmm@41f00000000000000000000000000000 10114250     interop.obj
 0005:00000260       __real@3f847ae147ae147b    10114260     interop.obj
 0005:00000270       __xmm@80000000000000008000000000000000 10114270     interop.obj
 0005:00000280       __real@401c000000000000    10114280     interop.obj
 0005:00000288       __real@bfe0000000000000    10114288     interop.obj
 0005:00000290       __real@414b774000000000    10114290     interop.obj
 0005:00000298       __real@4076d00000000000    10114298     interop.obj
 0005:000002a0       __real@40ed4c0000000000    101142a0     interop.obj
 0005:000002a8       __real@403e000000000000    101142a8     interop.obj
 0005:000002b0       __real@3fd0000000000000    101142b0     interop.obj
 0005:000002b8       __real@3fb999999999999a    101142b8     interop.obj
 0005:000002c0       __real@54b249ad2594c37d    101142c0     interop.obj
 0005:000002c8       __real@4202a05f20000000    101142c8     interop.obj
 0005:000002d0       __real@3e45798ee2308c3a    101142d0     interop.obj
 0005:000002d8       __real@4197d78400000000    101142d8     interop.obj
 0005:000002e0       __xmm@30303030303030303030303030303030 101142e0     interop.obj
 0005:000002f0       __xmm@00000001000000010000000100000001 101142f0     interop.obj
 0005:00000300       __real@404dffdf3b645a1d    10114300     interop.obj
 0005:00000308       __real@546d42aea2879f2e    10114308     interop.obj
 0005:00000310       __real@4018000000000000    10114310     interop.obj
 0005:00000318       __real@bf50624dd2f1a9fc    10114318     interop.obj
 0005:00000320       __real@3eb0c6f7a0b5ed8d    10114320     interop.obj
 0005:00000328       __real@400199999999999a    10114328     interop.obj
 0005:00000330       __real@3fe8000000000000    10114330     interop.obj
 0005:00000338       __real@3ff3333333333333    10114338     interop.obj
 0005:00000340       __xmm@00000003000000020000000100000000 10114340     interop.obj
 0005:00000350       __xmm@00000028000000280000002800000028 10114350     interop.obj
 0005:00000360       __xmm@40000000000000004000000000000000 10114360     interop.obj

 entry point at        0001:000c9e64

 Static symbols

 0000:ffee5000       .debug$S                   10000000     kernel32:KERNEL32.dll
 0000:ffee5000       .debug$S                   10000000     System.Data.SQLite.exp
 0000:ffee5000       .debug$S                   10000000     kernel32:KERNEL32.dll
 0000:ffee5000       .debug$S                   10000000     kernel32:KERNEL32.dll
 0000:ffee5000       .debug$S                   10000000     ucrt:api-ms-win-crt-heap-l1-1-0.dll
 0000:ffee5000       .debug$S                   10000000     ucrt:api-ms-win-crt-heap-l1-1-0.dll
 0000:ffee5000       .debug$S                   10000000     ucrt:api-ms-win-crt-math-l1-1-0.dll
 0000:ffee5000       .debug$S                   10000000     ucrt:api-ms-win-crt-math-l1-1-0.dll
 0000:ffee5000       .debug$S                   10000000     ucrt:api-ms-win-crt-math-l1-1-0.dll
 0000:ffee5000       .debug$S                   10000000     ucrt:api-ms-win-crt-math-l1-1-0.dll
 0000:ffee5000       .debug$S                   10000000     ucrt:api-ms-win-crt-math-l1-1-0.dll
 0000:ffee5000       .debug$S                   10000000     ucrt:api-ms-win-crt-math-l1-1-0.dll
 0000:ffee5000       .debug$S                   10000000     ucrt:api-ms-win-crt-math-l1-1-0.dll
 0000:ffee5000       .debug$S                   10000000     ucrt:api-ms-win-crt-math-l1-1-0.dll
 0000:ffee5000       .debug$S                   10000000     ucrt:api-ms-win-crt-math-l1-1-0.dll
 0000:ffee5000       .debug$S                   10000000     ucrt:api-ms-win-crt-math-l1-1-0.dll
 0000:ffee5000       .debug$S                   10000000     ucrt:api-ms-win-crt-math-l1-1-0.dll
 0000:ffee5000       .debug$S                   10000000     ucrt:api-ms-win-crt-math-l1-1-0.dll
 0000:ffee5000       .debug$S                   10000000     ucrt:api-ms-win-crt-math-l1-1-0.dll
 0000:ffee5000       .debug$S                   10000000     ucrt:api-ms-win-crt-math-l1-1-0.dll
 0000:ffee5000       .debug$S                   10000000     ucrt:api-ms-win-crt-math-l1-1-0.dll
 0000:ffee5000       .debug$S                   10000000     ucrt:api-ms-win-crt-math-l1-1-0.dll
 0000:ffee5000       .debug$S                   10000000     ucrt:api-ms-win-crt-math-l1-1-0.dll
 0000:ffee5000       .debug$S                   10000000     ucrt:api-ms-win-crt-math-l1-1-0.dll
 0000:ffee5000       .debug$S                   10000000     ucrt:api-ms-win-crt-math-l1-1-0.dll
 0000:ffee5000       .debug$S                   10000000     ucrt:api-ms-win-crt-math-l1-1-0.dll
 0000:ffee5000       .debug$S                   10000000     ucrt:api-ms-win-crt-math-l1-1-0.dll
 0000:ffee5000       .debug$S                   10000000     ucrt:api-ms-win-crt-runtime-l1-1-0.dll
 0000:ffee5000       .debug$S                   10000000     ucrt:api-ms-win-crt-runtime-l1-1-0.dll
 0000:ffee5000       .debug$S                   10000000     ucrt:api-ms-win-crt-runtime-l1-1-0.dll
 0000:ffee5000       .debug$S                   10000000     ucrt:api-ms-win-crt-runtime-l1-1-0.dll
 0000:ffee5000       .debug$S                   10000000     ucrt:api-ms-win-crt-runtime-l1-1-0.dll
 0000:ffee5000       .debug$S                   10000000     ucrt:api-ms-win-crt-runtime-l1-1-0.dll
 0000:ffee5000       .debug$S                   10000000     ucrt:api-ms-win-crt-runtime-l1-1-0.dll
 0000:ffee5000       .debug$S                   10000000     ucrt:api-ms-win-crt-runtime-l1-1-0.dll
 0000:ffee5000       .debug$S                   10000000     ucrt:api-ms-win-crt-runtime-l1-1-0.dll
 0000:ffee5000       .debug$S                   10000000     ucrt:api-ms-win-crt-runtime-l1-1-0.dll
 0000:ffee5000       .debug$S                   10000000     ucrt:api-ms-win-crt-runtime-l1-1-0.dll
 0000:ffee5000       .debug$S                   10000000     ucrt:api-ms-win-crt-runtime-l1-1-0.dll
 0000:ffee5000       .debug$S                   10000000     ucrt:api-ms-win-crt-runtime-l1-1-0.dll
 0000:ffee5000       .debug$S                   10000000     ucrt:api-ms-win-crt-runtime-l1-1-0.dll
 0000:ffee5000       .debug$S                   10000000     ucrt:api-ms-win-crt-runtime-l1-1-0.dll
 0000:ffee5000       .debug$S                   10000000     ucrt:api-ms-win-crt-runtime-l1-1-0.dll
 0000:ffee5000       .debug$S                   10000000     ucrt:api-ms-win-crt-string-l1-1-0.dll
 0000:ffee5000       .debug$S                   10000000     ucrt:api-ms-win-crt-string-l1-1-0.dll
 0000:ffee5000       .debug$S                   10000000     ucrt:api-ms-win-crt-string-l1-1-0.dll
 0000:ffee5000       .debug$S                   10000000     ucrt:api-ms-win-crt-string-l1-1-0.dll
 0000:ffee5000       .debug$S                   10000000     ucrt:api-ms-win-crt-string-l1-1-0.dll
 0000:ffee5000       .debug$S                   10000000     ucrt:api-ms-win-crt-string-l1-1-0.dll
 0000:ffee5000       .debug$S                   10000000     ucrt:api-ms-win-crt-time-l1-1-0.dll
 0000:ffee5000       .debug$S                   10000000     ucrt:api-ms-win-crt-utility-l1-1-0.dll
 0000:ffee5000       .debug$S                   10000000     ucrt:api-ms-win-crt-utility-l1-1-0.dll
 0000:ffee5000       .debug$S                   10000000     vcruntime:VCRUNTIME140.dll
 0000:ffee5000       .debug$S                   10000000     vcruntime:VCRUNTIME140.dll
 0000:ffee5000       .debug$S                   10000000     vcruntime:VCRUNTIME140.dll
 0000:ffee5000       .debug$S                   10000000     vcruntime:VCRUNTIME140.dll
 0000:ffee5000       .debug$S                   10000000     vcruntime:VCRUNTIME140.dll
 0000:ffee5000       .debug$S                   10000000     kernel32:KERNEL32.dll
 0000:ffee5000       .debug$S                   10000000     kernel32:KERNEL32.dll
 0000:ffee5000       .debug$S                   10000000     kernel32:KERNEL32.dll
 0000:ffee5000       .debug$S                   10000000     kernel32:KERNEL32.dll
 0000:ffee5000       .debug$S                   10000000     kernel32:KERNEL32.dll
 0000:ffee5000       .debug$S                   10000000     kernel32:KERNEL32.dll
 0000:ffee5000       .debug$S                   10000000     kernel32:KERNEL32.dll
 0000:ffee5000       .debug$S                   10000000     mscoree:mscoree.dll
 0000:ffee5000       .debug$S                   10000000     advapi32:ADVAPI32.dll
 0000:ffee5000       .debug$S                   10000000     advapi32:ADVAPI32.dll
 0000:ffee5000       .debug$S                   10000000     advapi32:ADVAPI32.dll
 0000:ffee5000       .debug$S                   10000000     advapi32:ADVAPI32.dll
 0000:ffee5000       .debug$S                   10000000     advapi32:ADVAPI32.dll
 0000:ffee5000       .debug$S                   10000000     advapi32:ADVAPI32.dll
 0000:ffee5000       .debug$S                   10000000     advapi32:ADVAPI32.dll
 0000:ffee5000       .debug$S                   10000000     advapi32:ADVAPI32.dll
 0000:ffee5000       .debug$S                   10000000     advapi32:ADVAPI32.dll
 0000:ffee5000       .debug$S                   10000000     kernel32:KERNEL32.dll
 0000:ffee5000       .debug$S                   10000000     kernel32:KERNEL32.dll
 0000:ffee5000       .debug$S                   10000000     kernel32:KERNEL32.dll
 0000:ffee5000       .debug$S                   10000000     kernel32:KERNEL32.dll
 0000:ffee5000       .debug$S                   10000000     kernel32:KERNEL32.dll
 0000:ffee5000       .debug$S                   10000000     kernel32:KERNEL32.dll
 0000:ffee5000       .debug$S                   10000000     kernel32:KERNEL32.dll
 0000:ffee5000       .debug$S                   10000000     kernel32:KERNEL32.dll
 0000:ffee5000       .debug$S                   10000000     kernel32:KERNEL32.dll
 0000:ffee5000       .debug$S                   10000000     kernel32:KERNEL32.dll
 0000:ffee5000       .debug$S                   10000000     kernel32:KERNEL32.dll
 0000:ffee5000       .debug$S                   10000000     kernel32:KERNEL32.dll
 0000:ffee5000       .debug$S                   10000000     kernel32:KERNEL32.dll
 0000:ffee5000       .debug$S                   10000000     kernel32:KERNEL32.dll
 0000:ffee5000       .debug$S                   10000000     kernel32:KERNEL32.dll
 0000:ffee5000       .debug$S                   10000000     kernel32:KERNEL32.dll
 0000:ffee5000       .debug$S                   10000000     kernel32:KERNEL32.dll
 0000:ffee5000       .debug$S                   10000000     kernel32:KERNEL32.dll
 0000:ffee5000       .debug$S                   10000000     kernel32:KERNEL32.dll
 0000:ffee5000       .debug$S                   10000000     kernel32:KERNEL32.dll
 0000:ffee5000       .debug$S                   10000000     kernel32:KERNEL32.dll
 0000:ffee5000       .debug$S                   10000000     kernel32:KERNEL32.dll
 0000:ffee5000       .debug$S                   10000000     kernel32:KERNEL32.dll
 0000:ffee5000       .debug$S                   10000000     kernel32:KERNEL32.dll
 0000:ffee5000       .debug$S                   10000000     kernel32:KERNEL32.dll
 0000:ffee5000       .debug$S                   10000000     kernel32:KERNEL32.dll
 0000:ffee5000       .debug$S                   10000000     kernel32:KERNEL32.dll
 0000:ffee5000       .debug$S                   10000000     kernel32:KERNEL32.dll
 0000:ffee5000       .debug$S                   10000000     kernel32:KERNEL32.dll
 0000:ffee5000       .debug$S                   10000000     kernel32:KERNEL32.dll
 0000:ffee5000       .debug$S                   10000000     kernel32:KERNEL32.dll
 0000:ffee5000       .debug$S                   10000000     kernel32:KERNEL32.dll
 0000:ffee5000       .debug$S                   10000000     kernel32:KERNEL32.dll
 0000:ffee5000       .debug$S                   10000000     kernel32:KERNEL32.dll
 0000:ffee5000       .debug$S                   10000000     kernel32:KERNEL32.dll
 0000:ffee5000       .debug$S                   10000000     kernel32:KERNEL32.dll
 0000:ffee5000       .debug$S                   10000000     kernel32:KERNEL32.dll
 0000:ffee5000       .debug$S                   10000000     kernel32:KERNEL32.dll
 0000:ffee5000       .debug$S                   10000000     kernel32:KERNEL32.dll
 0000:ffee5000       .debug$S                   10000000     kernel32:KERNEL32.dll
 0000:ffee5000       .debug$S                   10000000     kernel32:KERNEL32.dll
 0000:ffee5000       .debug$S                   10000000     kernel32:KERNEL32.dll
 0000:ffee5000       .debug$S                   10000000     kernel32:KERNEL32.dll
 0000:ffee5000       .debug$S                   10000000     kernel32:KERNEL32.dll
 0000:ffee5000       .debug$S                   10000000     kernel32:KERNEL32.dll
 0000:ffee5000       .debug$S                   10000000     kernel32:KERNEL32.dll
 0000:ffee5000       .debug$S                   10000000     kernel32:KERNEL32.dll
 0000:ffee5000       .debug$S                   10000000     kernel32:KERNEL32.dll
 0000:ffee5000       .debug$S                   10000000     kernel32:KERNEL32.dll
 0000:ffee5000       .debug$S                   10000000     kernel32:KERNEL32.dll
 0000:ffee5000       .debug$S                   10000000     kernel32:KERNEL32.dll
 0000:ffee5000       .debug$S                   10000000     kernel32:KERNEL32.dll
 0000:ffee5000       .debug$S                   10000000     kernel32:KERNEL32.dll
 0000:ffee5000       .debug$S                   10000000     kernel32:KERNEL32.dll
 0000:ffee5000       .debug$S                   10000000     kernel32:KERNEL32.dll
 0000:ffee5000       .debug$S                   10000000     kernel32:KERNEL32.dll
 0000:ffee5000       .debug$S                   10000000     kernel32:KERNEL32.dll
 0000:ffee5000       .debug$S                   10000000     kernel32:KERNEL32.dll
 0000:ffee5000       .debug$S                   10000000     kernel32:KERNEL32.dll
 0000:ffee5000       .debug$S                   10000000     kernel32:KERNEL32.dll
 0000:ffee5000       .debug$S                   10000000     kernel32:KERNEL32.dll
 0000:ffee5000       .debug$S                   10000000     kernel32:KERNEL32.dll
 0000:ffee5000       .debug$S                   10000000     kernel32:KERNEL32.dll
 0000:ffee5000       .debug$S                   10000000     kernel32:KERNEL32.dll
 0000:ffee5000       .debug$S                   10000000     kernel32:KERNEL32.dll
 0000:ffee5000       .debug$S                   10000000     kernel32:KERNEL32.dll
 0000:ffee5000       .debug$S                   10000000     kernel32:KERNEL32.dll
 0000:ffee5000       .debug$S                   10000000     kernel32:KERNEL32.dll
 0001:00000000       GlobalVar1358              10001000     System.Data.SQLite.netmodule
 0001:00000068       GlobalVar1359              10001068     System.Data.SQLite.netmodule
 0001:000000b8       GlobalVar1360              100010b8     System.Data.SQLite.netmodule
 0001:00000108       GlobalVar1361              10001108     System.Data.SQLite.netmodule
 0001:00000494       ?dllmain_crt_dispatch@@YGHQAUHINSTANCE__@@KQAX@Z 10001494 f   MSVCRT:dll_dllmain.obj
 0001:000004e7       ?dllmain_crt_process_attach@@YAHQAUHINSTANCE__@@QAX@Z 100014e7 f   MSVCRT:dll_dllmain.obj
 0001:000005f9       ?dllmain_crt_process_detach@@YAH_N@Z 100015f9 f   MSVCRT:dll_dllmain.obj
 0001:00000676       ?dllmain_dispatch@@YAHQAUHINSTANCE__@@KQAX@Z 10001676 f   MSVCRT:dll_dllmain.obj
 0001:00000772       ?dllmain_raw@@YGHQAUHINSTANCE__@@KQAX@Z 10001772 f   MSVCRT:dll_dllmain.obj
 0001:000007bf       ?find_pe_section@@YAPAU_IMAGE_SECTION_HEADER@@QAEI@Z 100017bf f   MSVCRT:utility.obj
 0001:00000d70       $$000000                   10001d70     MSVCRT:_sehprolg4_.obj
 0001:00001d6a       __catch$?System.Data.SQLite.SQLite3.GetErrorString@@00010O118114$0 10002d6a f   * CIL library *:* CIL module *
 0001:00001deb       __catch$?System.Data.SQLite.SQLite3.IsReadOnly@@200102128174$0 10002deb f   * CIL library *:* CIL module *
 0001:00005638       __catch$?System.Data.SQLite.SQLiteCommand.Dispose@@20010102$0 10006638 f   * CIL library *:* CIL module *
 0001:0000566b       __catch$?System.Data.SQLite.SQLiteCommand.Dispose@@20010102$1 1000666b f   * CIL library *:* CIL module *
 0001:000056d8       __catch$?System.Data.SQLite.SQLiteCommand.GetFlags@@0001112M123M$0 100066d8 f   * CIL library *:* CIL module *
 0001:00005775       __catch$?System.Data.SQLite.SQLiteCommand.ClearDataReader@@200001$0 10006775 f   * CIL library *:* CIL module *
 0001:0000589a       __catch$?System.Data.SQLite.SQLiteCommand.BuildNextCommand@@2000128174$0 1000689a f   * CIL library *:* CIL module *
 0001:00005ec6       __catch$?System.Data.SQLite.SQLiteCommand.Execute@@00051M0O1180O411810N0O1N1M$0 10006ec6 f   * CIL library *:* CIL module *
 0001:00005ed0       __catch$?System.Data.SQLite.SQLiteCommand.Execute@@00051M0O1180O411810N0O1N1M$1 10006ed0 f   * CIL library *:* CIL module *
 0001:00005ede       __catch$?System.Data.SQLite.SQLiteCommand.Execute@@00051M0O1180O411810N0O1N1M$2 10006ede f   * CIL library *:* CIL module *
 0001:00005eea       __catch$?System.Data.SQLite.SQLiteCommand.Execute@@00051M0O1180O411810N0O1N1M$3 10006eea f   * CIL library *:* CIL module *
 0001:00005ef8       __catch$?System.Data.SQLite.SQLiteCommand.Execute@@00051M0O1180O411810N0O1N1M$4 10006ef8 f   * CIL library *:* CIL module *
 0001:0000741e       __catch$?System.Data.SQLite.SQLiteConnection.BackupDatabase@@20060112700O0O081280K408$0 1000841e f   * CIL library *:* CIL module *
 0001:00007452       __catch$?System.Data.SQLite.SQLiteConnection.BackupDatabase@@20060112700O0O081280K408$1 10008452 f   * CIL library *:* CIL module *
 0001:000082cf       __catch$?System.Data.SQLite.SQLiteConnection.TryParseEnum@@00031M1280L10O02$0 100092cf f   * CIL library *:* CIL module *
 0001:000087c2       __catch$?System.Data.SQLite.SQLiteConnection.Open@@200001$0 100097c2 f   * CIL library *:* CIL module *
 0001:0000900c       __catch$?System.Data.SQLite.SQLiteConnection.Open@@200001$1 1000a00c f   * CIL library *:* CIL module *
 0001:000090f8       __catch$?System.Data.SQLite.SQLiteConnection.Open@@200001$2 1000a0f8 f   * CIL library *:* CIL module *
 0001:00009107       __catch$?System.Data.SQLite.SQLiteConnection.Open@@200001$3 1000a107 f   * CIL library *:* CIL module *
 0001:0000aac9       __catch$?System.Data.SQLite.SQLiteConnection.Schema_Columns@@20031281550O0O0O$0 1000bac9 f   * CIL library *:* CIL module *
 0001:0000aae0       __catch$?System.Data.SQLite.SQLiteConnection.Schema_Columns@@20031281550O0O0O$1 1000bae0 f   * CIL library *:* CIL module *
 0001:0000aaee       __catch$?System.Data.SQLite.SQLiteConnection.Schema_Columns@@20031281550O0O0O$2 1000baee f   * CIL library *:* CIL module *
 0001:0000aafc       __catch$?System.Data.SQLite.SQLiteConnection.Schema_Columns@@20031281550O0O0O$3 1000bafc f   * CIL library *:* CIL module *
 0001:0000ab0a       __catch$?System.Data.SQLite.SQLiteConnection.Schema_Columns@@20031281550O0O0O$4 1000bb0a f   * CIL library *:* CIL module *
 0001:0000ab1a       __catch$?System.Data.SQLite.SQLiteConnection.Schema_Columns@@20031281550O0O0O$5 1000bb1a f   * CIL library *:* CIL module *
 0001:0000ab26       __catch$?System.Data.SQLite.SQLiteConnection.Schema_Columns@@20031281550O0O0O$6 1000bb26 f   * CIL library *:* CIL module *
 0001:0000afcf       __catch$?System.Data.SQLite.SQLiteConnection.Schema_Indexes@@20031281550O0O0O$0 1000bfcf f   * CIL library *:* CIL module *
 0001:0000afdd       __catch$?System.Data.SQLite.SQLiteConnection.Schema_Indexes@@20031281550O0O0O$1 1000bfdd f   * CIL library *:* CIL module *
 0001:0000afeb       __catch$?System.Data.SQLite.SQLiteConnection.Schema_Indexes@@20031281550O0O0O$2 1000bfeb f   * CIL library *:* CIL module *
 0001:0000b1ea       __catch$?System.Data.SQLite.SQLiteConnection.Schema_Indexes@@20031281550O0O0O$3 1000c1ea f   * CIL library *:* CIL module *
 0001:0000b1f8       __catch$?System.Data.SQLite.SQLiteConnection.Schema_Indexes@@20031281550O0O0O$4 1000c1f8 f   * CIL library *:* CIL module *
 0001:0000b2b7       __catch$?System.Data.SQLite.SQLiteConnection.Schema_Indexes@@20031281550O0O0O$5 1000c2b7 f   * CIL library *:* CIL module *
 0001:0000b2c5       __catch$?System.Data.SQLite.SQLiteConnection.Schema_Indexes@@20031281550O0O0O$6 1000c2c5 f   * CIL library *:* CIL module *
 0001:0000b2ea       __catch$?System.Data.SQLite.SQLiteConnection.Schema_Indexes@@20031281550O0O0O$7 1000c2ea f   * CIL library *:* CIL module *
 0001:0000b2f6       __catch$?System.Data.SQLite.SQLiteConnection.Schema_Indexes@@20031281550O0O0O$8 1000c2f6 f   * CIL library *:* CIL module *
 0001:0000b304       __catch$?System.Data.SQLite.SQLiteConnection.Schema_Indexes@@20031281550O0O0O$9 1000c304 f   * CIL library *:* CIL module *
 0001:0000b314       __catch$?System.Data.SQLite.SQLiteConnection.Schema_Indexes@@20031281550O0O0O$10 1000c314 f   * CIL library *:* CIL module *
 0001:0000b320       __catch$?System.Data.SQLite.SQLiteConnection.Schema_Indexes@@20031281550O0O0O$11 1000c320 f   * CIL library *:* CIL module *
 0001:0000c1d3       __catch$?System.Data.SQLite.SQLiteConnection.Schema_IndexColumns@@20041281550O0O0O0O$0 1000d1d3 f   * CIL library *:* CIL module *
 0001:0000c1e1       __catch$?System.Data.SQLite.SQLiteConnection.Schema_IndexColumns@@20041281550O0O0O0O$1 1000d1e1 f   * CIL library *:* CIL module *
 0001:0000c1ef       __catch$?System.Data.SQLite.SQLiteConnection.Schema_IndexColumns@@20041281550O0O0O0O$2 1000d1ef f   * CIL library *:* CIL module *
 0001:0000c4cf       __catch$?System.Data.SQLite.SQLiteConnection.Schema_IndexColumns@@20041281550O0O0O0O$3 1000d4cf f   * CIL library *:* CIL module *
 0001:0000c4dd       __catch$?System.Data.SQLite.SQLiteConnection.Schema_IndexColumns@@20041281550O0O0O0O$4 1000d4dd f   * CIL library *:* CIL module *
 0001:0000c4eb       __catch$?System.Data.SQLite.SQLiteConnection.Schema_IndexColumns@@20041281550O0O0O0O$5 1000d4eb f   * CIL library *:* CIL module *
 0001:0000c4fb       __catch$?System.Data.SQLite.SQLiteConnection.Schema_IndexColumns@@20041281550O0O0O0O$6 1000d4fb f   * CIL library *:* CIL module *
 0001:0000c507       __catch$?System.Data.SQLite.SQLiteConnection.Schema_IndexColumns@@20041281550O0O0O0O$7 1000d507 f   * CIL library *:* CIL module *
 0001:0000c520       __catch$?System.Data.SQLite.SQLiteConnection.Schema_IndexColumns@@20041281550O0O0O0O$8 1000d520 f   * CIL library *:* CIL module *
 0001:0000c52c       __catch$?System.Data.SQLite.SQLiteConnection.Schema_IndexColumns@@20041281550O0O0O0O$9 1000d52c f   * CIL library *:* CIL module *
 0001:0000d2ba       __catch$?System.Data.SQLite.SQLiteConnection.Schema_ForeignKeys@@20031281550O0O0O$0 1000e2ba f   * CIL library *:* CIL module *
 0001:0000d2c6       __catch$?System.Data.SQLite.SQLiteConnection.Schema_ForeignKeys@@20031281550O0O0O$1 1000e2c6 f   * CIL library *:* CIL module *
 0001:0000d2d4       __catch$?System.Data.SQLite.SQLiteConnection.Schema_ForeignKeys@@20031281550O0O0O$2 1000e2d4 f   * CIL library *:* CIL module *
 0001:0000d2e2       __catch$?System.Data.SQLite.SQLiteConnection.Schema_ForeignKeys@@20031281550O0O0O$3 1000e2e2 f   * CIL library *:* CIL module *
 0001:0000d2f2       __catch$?System.Data.SQLite.SQLiteConnection.Schema_ForeignKeys@@20031281550O0O0O$4 1000e2f2 f   * CIL library *:* CIL module *
 0001:0000d2fe       __catch$?System.Data.SQLite.SQLiteConnection.Schema_ForeignKeys@@20031281550O0O0O$5 1000e2fe f   * CIL library *:* CIL module *
 0001:0000d592       __catch$?System.Data.SQLite.SQLiteConnection.ProgressCallback@@20011180OM18$0 1000e592 f   * CIL library *:* CIL module *
 0001:0000d5c5       __catch$?System.Data.SQLite.SQLiteConnection.ProgressCallback@@20011180OM18$1 1000e5c5 f   * CIL library *:* CIL module *
 0001:0000d66e       __catch$?System.Data.SQLite.SQLiteConnection.AuthorizerCallback@@20061180P0181180O818181818$0 1000e66e f   * CIL library *:* CIL module *
 0001:0000d6a1       __catch$?System.Data.SQLite.SQLiteConnection.AuthorizerCallback@@20061180P0181180O818181818$1 1000e6a1 f   * CIL library *:* CIL module *
 0001:0000d729       __catch$?System.Data.SQLite.SQLiteConnection.UpdateCallback@@200501180818180K$0 1000e729 f   * CIL library *:* CIL module *
 0001:0000d75c       __catch$?System.Data.SQLite.SQLiteConnection.UpdateCallback@@200501180818180K$1 1000e75c f   * CIL library *:* CIL module *
 0001:0000d8e6       __catch$?System.Data.SQLite.SQLiteConnection.TraceCallback@@2002011818$0 1000e8e6 f   * CIL library *:* CIL module *
 0001:0000d919       __catch$?System.Data.SQLite.SQLiteConnection.TraceCallback@@2002011818$1 1000e919 f   * CIL library *:* CIL module *
 0001:0000da1a       __catch$?System.Data.SQLite.SQLiteConnection.CommitCallback@@20010818$0 1000ea1a f   * CIL library *:* CIL module *
 0001:0000da4d       __catch$?System.Data.SQLite.SQLiteConnection.CommitCallback@@20010818$1 1000ea4d f   * CIL library *:* CIL module *
 0001:0000dacb       __catch$?System.Data.SQLite.SQLiteConnection.RollbackCallback@@20010118$0 1000eacb f   * CIL library *:* CIL module *
 0001:0000dafe       __catch$?System.Data.SQLite.SQLiteConnection.RollbackCallback@@20010118$1 1000eafe f   * CIL library *:* CIL module *
 0001:0000e406       __catch$?System.Data.SQLite.SQLiteConnectionStringBuilder.Initialize@@2001010O$0 1000f406 f   * CIL library *:* CIL module *
 0001:0000f34d       __catch$?System.Data.SQLite.SQLiteConvert.computeYMD@@00021180K50K151175011180K5$0 1001034d f   * CIL library *:* CIL module *
 0001:0000f46e       __catch$?System.Data.SQLite.SQLiteConvert.computeHMS@@00021180K50K151175011180K5$0 1001046e f   * CIL library *:* CIL module *
 0001:0001084c       __catch$?System.Data.SQLite.SQLiteConvert.LooksLikeDateTime@@0002021280MM0O$0 1001184c f   * CIL library *:* CIL module *
 0001:00011905       __catch$?System.Data.SQLite.SQLiteDataReader.Close@@200001$0 10012905 f   * CIL library *:* CIL module *
 0001:00011915       __catch$?System.Data.SQLite.SQLiteDataReader.Close@@200001$1 10012915 f   * CIL library *:* CIL module *
 0001:00011940       __catch$?System.Data.SQLite.SQLiteDataReader.Close@@200001$2 10012940 f   * CIL library *:* CIL module *
 0001:00011972       __catch$?System.Data.SQLite.SQLiteDataReader.Close@@200001$3 10012972 f   * CIL library *:* CIL module *
 0001:00013c71       __catch$?System.Data.SQLite.SQLiteDataReader.GetConnection@@00011270128108$0 10014c71 f   * CIL library *:* CIL module *
 0001:000147f2       __catch$?System.Data.SQLite.SQLiteFunction.ScalarCallback@@200301180818$0 100157f2 f   * CIL library *:* CIL module *
 0001:00014825       __catch$?System.Data.SQLite.SQLiteFunction.ScalarCallback@@200301180818$1 10015825 f   * CIL library *:* CIL module *
 0001:00014885       __catch$?System.Data.SQLite.SQLiteFunction.CompareCallback@@2005081808180818$0 10015885 f   * CIL library *:* CIL module *
 0001:000148b8       __catch$?System.Data.SQLite.SQLiteFunction.CompareCallback@@2005081808180818$1 100158b8 f   * CIL library *:* CIL module *
 0001:0001493d       __catch$?System.Data.SQLite.SQLiteFunction.CompareCallback16@@2005081808180818$0 1001593d f   * CIL library *:* CIL module *
 0001:00014970       __catch$?System.Data.SQLite.SQLiteFunction.CompareCallback16@@2005081808180818$1 10015970 f   * CIL library *:* CIL module *
 0001:00014a4b       __catch$?System.Data.SQLite.SQLiteFunction.StepCallback@@200301180818$0 10015a4b f   * CIL library *:* CIL module *
 0001:00014a5c       __catch$?System.Data.SQLite.SQLiteFunction.StepCallback@@200301180818$1 10015a5c f   * CIL library *:* CIL module *
 0001:00014a8f       __catch$?System.Data.SQLite.SQLiteFunction.StepCallback@@200301180818$2 10015a8f f   * CIL library *:* CIL module *
 0001:00014b4c       __catch$?System.Data.SQLite.SQLiteFunction.FinalCallback@@20010118$0 10015b4c f   * CIL library *:* CIL module *
 0001:00014b5f       __catch$?System.Data.SQLite.SQLiteFunction.FinalCallback@@20010118$1 10015b5f f   * CIL library *:* CIL module *
 0001:00014b92       __catch$?System.Data.SQLite.SQLiteFunction.FinalCallback@@20010118$2 10015b92 f   * CIL library *:* CIL module *
 0001:00014c88       __catch$?System.Data.SQLite.SQLiteFunction..cctor@@000001$0 10015c88 f   * CIL library *:* CIL module *
 0001:00014d05       __catch$?System.Data.SQLite.SQLiteFunction..cctor@@000001$1 10015d05 f   * CIL library *:* CIL module *
 0001:000180c1       __catch$?System.Data.SQLite.SQLiteStatement.GetConnection@@00011270128174$0 100190c1 f   * CIL library *:* CIL module *
 0001:00018737       __catch$?System.Data.SQLite.SQLiteTransaction..ctor@@200201127002$0 10019737 f   * CIL library *:* CIL module *
 0001:00018743       __catch$?System.Data.SQLite.SQLiteTransaction..ctor@@200201127002$1 10019743 f   * CIL library *:* CIL module *
 0001:0001894f       __catch$?System.Data.SQLite.SQLiteTransaction.IssueRollback@@20010102$0 1001994f f   * CIL library *:* CIL module *
 0001:0001895b       __catch$?System.Data.SQLite.SQLiteTransaction.IssueRollback@@20010102$1 1001995b f   * CIL library *:* CIL module *
 0001:00018a93       __catch$?System.Data.SQLite.HelperMethods.IsMono@@000002$0 10019a93 f   * CIL library *:* CIL module *
 0001:00018a9f       __catch$?System.Data.SQLite.HelperMethods.IsMono@@000002$1 10019a9f f   * CIL library *:* CIL module *
 0001:00018daa       __catch$?System.Data.SQLite.UnsafeNativeMethods.GetSettingValueViaXmlConfigFile@@00040O0O0O0O02$0 10019daa f   * CIL library *:* CIL module *
 0001:00018dd3       __catch$?System.Data.SQLite.UnsafeNativeMethods.GetSettingValueViaXmlConfigFile@@00040O0O0O0O02$1 10019dd3 f   * CIL library *:* CIL module *
 0001:0001909b       __catch$?System.Data.SQLite.UnsafeNativeMethods.CheckAssemblyCodeBase@@00020212818N100O$0 1001a09b f   * CIL library *:* CIL module *
 0001:000190be       __catch$?System.Data.SQLite.UnsafeNativeMethods.CheckAssemblyCodeBase@@00020212818N100O$1 1001a0be f   * CIL library *:* CIL module *
 0001:00019151       __catch$?System.Data.SQLite.UnsafeNativeMethods.GetAssemblyDirectory@@00000O$0 1001a151 f   * CIL library *:* CIL module *
 0001:00019174       __catch$?System.Data.SQLite.UnsafeNativeMethods.GetAssemblyDirectory@@00000O$1 1001a174 f   * CIL library *:* CIL module *
 0001:0001924a       __catch$?System.Data.SQLite.SQLiteConnectionHandle.ReleaseHandle@@200002$0 1001a24a f   * CIL library *:* CIL module *
 0001:0001924f       __catch$?System.Data.SQLite.SQLiteConnectionHandle.ReleaseHandle@@200002$1 1001a24f f   * CIL library *:* CIL module *
 0001:00019350       __catch$?System.Data.SQLite.SQLiteStatementHandle.ReleaseHandle@@200002$0 1001a350 f   * CIL library *:* CIL module *
 0001:00019355       __catch$?System.Data.SQLite.SQLiteStatementHandle.ReleaseHandle@@200002$1 1001a355 f   * CIL library *:* CIL module *
 0001:00019444       __catch$?System.Data.SQLite.SQLiteBackupHandle.ReleaseHandle@@200002$0 1001a444 f   * CIL library *:* CIL module *
 0001:00019449       __catch$?System.Data.SQLite.SQLiteBackupHandle.ReleaseHandle@@200002$1 1001a449 f   * CIL library *:* CIL module *
 0001:00019538       __catch$?System.Data.SQLite.SQLiteBlobHandle.ReleaseHandle@@200002$0 1001a538 f   * CIL library *:* CIL module *
 0001:0001953d       __catch$?System.Data.SQLite.SQLiteBlobHandle.ReleaseHandle@@200002$1 1001a53d f   * CIL library *:* CIL module *
 0001:0001bdd1       __catch$?System.Data.SQLite.SQLiteModule.CreateOrConnect@@2007118114021818081810181018$0 1001cdd1 f   * CIL library *:* CIL module *
 0001:0001bddd       __catch$?System.Data.SQLite.SQLiteModule.CreateOrConnect@@2007118114021818081810181018$1 1001cddd f   * CIL library *:* CIL module *
 0001:0001be72       __catch$?System.Data.SQLite.SQLiteModule.DestroyOrDisconnect@@20021181140218$0 1001ce72 f   * CIL library *:* CIL module *
 0001:0001beb2       __catch$?System.Data.SQLite.SQLiteModule.DestroyOrDisconnect@@20021181140218$1 1001ceb2 f   * CIL library *:* CIL module *
 0001:0001beb9       __catch$?System.Data.SQLite.SQLiteModule.DestroyOrDisconnect@@20021181140218$2 1001ceb9 f   * CIL library *:* CIL module *
 0001:0001bf45       __catch$?System.Data.SQLite.SQLiteModule.SetTableError@@0005021281P41802020O$0 1001cf45 f   * CIL library *:* CIL module *
 0001:0001bfc7       __catch$?System.Data.SQLite.SQLiteModule.SetTableError@@0005021281P41802020O$1 1001cfc7 f   * CIL library *:* CIL module *
 0001:0001bff2       __catch$?System.Data.SQLite.SQLiteModule.SetTableError@@0005021281P41802020O$2 1001cff2 f   * CIL library *:* CIL module *
 0001:0001bff9       __catch$?System.Data.SQLite.SQLiteModule.SetTableError@@0005021281P41802020O$3 1001cff9 f   * CIL library *:* CIL module *
 0001:0001c782       __catch$?System.Data.SQLite.SQLiteModule.xBestIndex@@20021181141818$0 1001d782 f   * CIL library *:* CIL module *
 0001:0001c844       __catch$?System.Data.SQLite.SQLiteModule.xOpen@@2002118114181018$0 1001d844 f   * CIL library *:* CIL module *
 0001:0001c8c2       __catch$?System.Data.SQLite.SQLiteModule.xClose@@200111811418$0 1001d8c2 f   * CIL library *:* CIL module *
 0001:0001c8d5       __catch$?System.Data.SQLite.SQLiteModule.xClose@@200111811418$1 1001d8d5 f   * CIL library *:* CIL module *
 0001:0001c95d       __catch$?System.Data.SQLite.SQLiteModule.xFilter@@20051181141808180818$0 1001d95d f   * CIL library *:* CIL module *
 0001:0001c9c5       __catch$?System.Data.SQLite.SQLiteModule.xNext@@200111811418$0 1001d9c5 f   * CIL library *:* CIL module *
 0001:0001ca30       __catch$?System.Data.SQLite.SQLiteModule.xEof@@20010818$0 1001da30 f   * CIL library *:* CIL module *
 0001:0001caa1       __catch$?System.Data.SQLite.SQLiteModule.xColumn@@2003118114181808$0 1001daa1 f   * CIL library *:* CIL module *
 0001:0001cb07       __catch$?System.Data.SQLite.SQLiteModule.xRowId@@200211811418100K$0 1001db07 f   * CIL library *:* CIL module *
 0001:0001cb64       __catch$?System.Data.SQLite.SQLiteModule.xUpdate@@2004118114180818100K$0 1001db64 f   * CIL library *:* CIL module *
 0001:0001cbbb       __catch$?System.Data.SQLite.SQLiteModule.xBegin@@200111811418$0 1001dbbb f   * CIL library *:* CIL module *
 0001:0001cc0f       __catch$?System.Data.SQLite.SQLiteModule.xSync@@200111811418$0 1001dc0f f   * CIL library *:* CIL module *
 0001:0001cc63       __catch$?System.Data.SQLite.SQLiteModule.xCommit@@200111811418$0 1001dc63 f   * CIL library *:* CIL module *
 0001:0001ccb7       __catch$?System.Data.SQLite.SQLiteModule.xRollback@@200111811418$0 1001dcb7 f   * CIL library *:* CIL module *
 0001:0001cd56       __catch$?System.Data.SQLite.SQLiteModule.xFindFunction@@2005081808181012813M1018$0 1001dd56 f   * CIL library *:* CIL module *
 0001:0001cdb1       __catch$?System.Data.SQLite.SQLiteModule.xRename@@20021181141818$0 1001ddb1 f   * CIL library *:* CIL module *
 0001:0001ce08       __catch$?System.Data.SQLite.SQLiteModule.xSavepoint@@20021181141808$0 1001de08 f   * CIL library *:* CIL module *
 0001:0001ce60       __catch$?System.Data.SQLite.SQLiteModule.xRelease@@20021181141808$0 1001de60 f   * CIL library *:* CIL module *
 0001:0001ceb8       __catch$?System.Data.SQLite.SQLiteModule.xRollbackTo@@20021181141808$0 1001deb8 f   * CIL library *:* CIL module *
 0001:0001cfd8       __catch$?System.Data.SQLite.SQLiteModule.Dispose@@20010102$0 1001dfd8 f   * CIL library *:* CIL module *
 0001:0001d006       __catch$?System.Data.SQLite.SQLiteModule.Dispose@@20010102$1 1001e006 f   * CIL library *:* CIL module *
 0001:0001e730       _totypeCompare2pow63       1001f730 f   interop.obj
 0001:0001e770       _totypeIsdigit             1001f770 f   interop.obj
 0001:0001e780       _totypeIsspace             1001f780 f   interop.obj
 0001:0001e7b0       _rePeek                    1001f7b0 f   interop.obj
 0001:0001e7d0       _re_hex                    1001f7d0 f   interop.obj
 0001:0001e820       _re_space_char             1001f820 f   interop.obj
 0001:0001e850       _re_digit_char             1001f850 f   interop.obj
 0001:0001e860       _re_word_char              1001f860 f   interop.obj
 0001:0001e890       _re_next_char              1001f890 f   interop.obj
 0001:0001ea00       _re_add_state              1001fa00 f   interop.obj
 0001:0001ea30       _doubleCmp                 1001fa30 f   interop.obj
 0001:0001ea70       _sameValue                 1001fa70 f   interop.obj
 0001:0001ea90       _isInfinity                1001fa90 f   interop.obj
 0001:0001ead0       _jsonEachBestIndex         1001fad0 f   interop.obj
 0001:0001eb90       _jsonEachRowid             1001fb90 f   interop.obj
 0001:0001ebb0       _jsonEachEof               1001fbb0 f   interop.obj
 0001:0001ebd0       _jsonLabelCompare          1001fbd0 f   interop.obj
 0001:0001ec30       _jsonNodeSize              1001fc30 f   interop.obj
 0001:0001ec40       _jsonZero                  1001fc40 f   interop.obj
 0001:0001ec70       _fts5VocabRowidMethod      1001fc70 f   interop.obj
 0001:0001ec90       _fts5VocabEofMethod        1001fc90 f   interop.obj
 0001:0001eca0       _fts5VocabBestIndexMethod  1001fca0 f   interop.obj
 0001:0001eda0       _sqlite3Fts5GetVarintLen   1001fda0 f   interop.obj
 0001:0001edd0       _fts5PutVarint64           1001fdd0 f   interop.obj
 0001:0001eee0       _sqlite3Fts5GetVarint      1001fee0 f   interop.obj
 0001:0001f060       _sqlite3Fts5GetVarint32    10020060 f   interop.obj
 0001:0001f0e0       _sqlite3Fts5UnicodeIsdiacritic 100200e0 f   interop.obj
 0001:0001f120       _fts5_remove_diacritic     10020120 f   interop.obj
 0001:0001f3c0       _sqlite3Fts5UnicodeIsalnum 100203c0 f   interop.obj
 0001:0001f460       _fts5PorterStep1A          10020460 f   interop.obj
 0001:0001f4b0       _fts5PorterStep1B2         100204b0 f   interop.obj
 0001:0001f570       _fts5PorterIsVowel         10020570 f   interop.obj
 0001:0001f5a0       _fts5UnicodeIsException    100205a0 f   interop.obj
 0001:0001f5f0       _asciiFold                 100205f0 f   interop.obj
 0001:0001f710       _fts5AsciiAddExceptions    10020710 f   interop.obj
 0001:0001f740       _fts5StorageDecodeSizeArray 10020740 f   interop.obj
 0001:0001f790       _fts5CursorFromCsrid       10020790 f   interop.obj
 0001:0001f7c0       _fts5ApiInvoke             100207c0 f   interop.obj
 0001:0001f7f0       _fts5ApiPhraseNextColumn   100207f0 f   interop.obj
 0001:0001f870       _fts5ApiPhraseNext         10020870 f   interop.obj
 0001:0001f8e0       _fts5ApiGetAuxdata         100208e0 f   interop.obj
 0001:0001f920       _fts5ColumnSizeCb          10020920 f   interop.obj
 0001:0001f940       _fts5ApiColumnCount        10020940 f   interop.obj
 0001:0001f950       _fts5ApiUserData           10020950 f   interop.obj
 0001:0001f960       _fts5CommitMethod          10020960 f   interop.obj
 0001:0001f970       _fts5EofMethod             10020970 f   interop.obj
 0001:0001f980       _fts5TripCursors           10020980 f   interop.obj
 0001:0001f9b0       _fts5CsrNewrow             100209b0 f   interop.obj
 0001:0001f9c0       _fts5StmtType              100209c0 f   interop.obj
 0001:0001f9e0       _fts5IsContentless         100209e0 f   interop.obj
 0001:0001f9f0       _fts5DecodeRowid           100209f0 f   interop.obj
 0001:0001fa40       _sqlite3Fts5IndexEntryCksum 10020a40 f   interop.obj
 0001:0001fae0       _sqlite3Fts5IndexReads     10020ae0 f   interop.obj
 0001:0001faf0       _fts5IndexCharlen          10020af0 f   interop.obj
 0001:0001fb30       _sqlite3Fts5IndexCharlenToBytelen 10020b30 f   interop.obj
 0001:0001fb80       _fts5NextRowid             10020b80 f   interop.obj
 0001:0001fbd0       _fts5BufferSwap            10020bd0 f   interop.obj
 0001:0001fbf0       _fts5DoclistIterNext       10020bf0 f   interop.obj
 0001:0001fc70       _fts5PoslistPrefix         10020c70 f   interop.obj
 0001:0001fcc0       _fts5IndexReturn           10020cc0 f   interop.obj
 0001:0001fcd0       _fts5DlidxExtractFirstRowid 10020cd0 f   interop.obj
 0001:0001fd00       _fts5PrefixCompress        10020d00 f   interop.obj
 0001:0001fd30       _fts5AllocateSegid         10020d30 f   interop.obj
 0001:0001fe50       _fts5MultiIterTerm         10020e50 f   interop.obj
 0001:0001fe70       _fts5MultiIterRowid        10020e70 f   interop.obj
 0001:0001fe90       _fts5MultiIterEof          10020e90 f   interop.obj
 0001:0001feb0       _fts5IterSetOutputs_None   10020eb0 f   interop.obj
 0001:0001fed0       _fts5IndexExtractCol       10020ed0 f   interop.obj
 0001:0001ff60       _fts5IndexColsetTest       10020f60 f   interop.obj
 0001:0001ff90       _fts5PoslistCallback       10020f90 f   interop.obj
 0001:0001ffc0       _fts5IterSetOutputs_Noop   10020fc0 f   interop.obj
 0001:0001ffd0       _fts5MultiIterSetEof       10020fd0 f   interop.obj
 0001:00020000       _fts5MultiIterAdvanceRowid 10021000 f   interop.obj
 0001:00020160       _fts5MultiIterIsEmpty      10021160 f   interop.obj
 0001:00020190       _fts5SegIterLoadNPos       10021190 f   interop.obj
 0001:00020240       _fts5GetPoslistSize        10021240 f   interop.obj
 0001:00020290       _fts5DlidxIterPgno         10021290 f   interop.obj
 0001:000202a0       _fts5DlidxIterRowid        100212a0 f   interop.obj
 0001:000202b0       _fts5DlidxLvlPrev          100212b0 f   interop.obj
 0001:00020380       _fts5DlidxIterEof          10021380 f   interop.obj
 0001:000203a0       _fts5DlidxLvlNext          100213a0 f   interop.obj
 0001:00020450       _fts5SegmentSize           10021450 f   interop.obj
 0001:00020460       _fts5StructureRef          10021460 f   interop.obj
 0001:00020470       _fts5LeafFirstTermOff      10021470 f   interop.obj
 0001:00020490       _fts5BufferCompare         10021490 f   interop.obj
 0001:00020510       _fts5GetU16                10021510 f   interop.obj
 0001:00020530       _fts5PutU16                10021530 f   interop.obj
 0001:00020540       _sqlite3Fts5HashScanEof    10021540 f   interop.obj
 0001:00020550       _sqlite3Fts5HashScanNext   10021550 f   interop.obj
 0001:00020560       _fts5HashEntryMerge        10021560 f   interop.obj
 0001:00020600       _fts5HashKey2              10021600 f   interop.obj
 0001:00020650       _fts5HashKey               10021650 f   interop.obj
 0001:00020690       _fts5ExprClearPoslists     10021690 f   interop.obj
 0001:000206e0       _fts5ExprColsetTest        100216e0 f   interop.obj
 0001:00020710       _sqlite3Fts5ExprPoslist    10021710 f   interop.obj
 0001:00020760       _sqlite3Fts5ExprPhraseSize 10021760 f   interop.obj
 0001:00020780       _sqlite3Fts5ExprPhraseCount 10021780 f   interop.obj
 0001:00020790       _sqlite3Fts5ParseFinished  10021790 f   interop.obj
 0001:000207a0       _sqlite3Fts5ExprRowid      100217a0 f   interop.obj
 0001:000207b0       _sqlite3Fts5ExprEof        100217b0 f   interop.obj
 0001:000207c0       _fts5ExprNodeTest_TERM     100217c0 f   interop.obj
 0001:00020800       _fts5ExprNodeZeroPoslist   10021800 f   interop.obj
 0001:00020860       _fts5ExprSetEof            10021860 f   interop.obj
 0001:000208a0       _fts5RowidCmp              100218a0 f   interop.obj
 0001:00020900       _fts5ExprSynonymRowid      10021900 f   interop.obj
 0001:00020990       _fts5ExprIsspace           10021990 f   interop.obj
 0001:000209b0       _sqlite3Fts5Tokenize       100219b0 f   interop.obj
 0001:000209e0       _fts5Dequote               100219e0 f   interop.obj
 0001:00020a40       _fts5_isdigit              10021a40 f   interop.obj
 0001:00020a50       _fts5_isopenquote          10021a50 f   interop.obj
 0001:00020a70       _fts5_iswhitespace         10021a70 f   interop.obj
 0001:00020a80       _sqlite3Fts5IsBareword     10021a80 f   interop.obj
 0001:00020bb0       _sqlite3Fts5PoslistNext64  10021bb0 f   interop.obj
 0001:00020c80       _sqlite3Fts5BufferZero     10021c80 f   interop.obj
 0001:00020c90       _sqlite3Fts5Get32          10021c90 f   interop.obj
 0001:00020cb0       _sqlite3Fts5Put32          10021cb0 f   interop.obj
 0001:00020cd0       _fts5CountCb               10021cd0 f   interop.obj
 0001:00020cf0       _fts5CInstIterNext         10021cf0 f   interop.obj
 0001:00020d90       _fts5yy_accept             10021d90 f   interop.obj
 0001:00020da0       _fts5yy_find_reduce_action 10021da0 f   interop.obj
 0001:00020dc0       _fts5yy_find_shift_action  10021dc0 f   interop.obj
 0001:00020e00       _sqlite3Fts5ParserAlloc    10021e00 f   interop.obj
 0001:00020ff8       $LN18                      10021ff8     * CIL library *:* CIL module *
 0001:00021030       _sqlite3pager_get_codecarg 10022030 f   interop.obj
 0001:00021160       _soundex                   10022160 f   interop.obj
 0001:00021210       _medianIterate             10022210 f   interop.obj
 0001:000212d0       _modeIterate               100222d0 f   interop.obj
 0001:00021380       _rad2deg                   10022380 f   interop.obj
 0001:000213a0       _deg2rad                   100223a0 f   interop.obj
 0001:000213c0       _coth                      100223c0 f   interop.obj
 0001:000213f0       _cot                       100223f0 f   interop.obj
 0001:00021410       _sqlite3ReadUtf8           10022410 f   interop.obj
 0001:00021478       $LN12                      10022478     * CIL library *:* CIL module *
 0001:00021490       _statRowid                 10022490 f   interop.obj
 0001:000214b0       _statEof                   100224b0 f   interop.obj
 0001:000214c0       _getLocalPayload           100224c0 f   interop.obj
 0001:00021540       _statBestIndex             10022540 f   interop.obj
 0001:000215f0       _SortByDimension           100225f0 f   interop.obj
 0001:00021760       _SortByDistance            10022760 f   interop.obj
 0001:00021830       _cellOverlap               10022830 f   interop.obj
 0001:00021950       _cellContains              10022950 f   interop.obj
 0001:000219d0       _cellUnion                 100229d0 f   interop.obj
 0001:00021a90       _cellMargin                10022a90 f   interop.obj
 0001:00021af0       _cellArea                  10022af0 f   interop.obj
 0001:00021b50       _rtreeSearchPointFirst     10022b50 f   interop.obj
 0001:00021b70       _rtreeSearchPointCompare   10022b70 f   interop.obj
 0001:00021ba0       _rtreeLeafConstraint       10022ba0 f   interop.obj
 0001:00021c7c       $LN18                      10022c7c     * CIL library *:* CIL module *
 0001:00021c90       _rtreeNonleafConstraint    10022c90 f   interop.obj
 0001:00021d70       _rtreeEof                  10022d70 f   interop.obj
 0001:00021d80       _rtreeReference            10022d80 f   interop.obj
 0001:00021d90       _nodeHash                  10022d90 f   interop.obj
 0001:00021db0       _nodeZero                  10022db0 f   interop.obj
 0001:00021de0       _nodeReference             10022de0 f   interop.obj
 0001:00021df0       _writeInt64                10022df0 f   interop.obj
 0001:00021e60       _writeCoord                10022e60 f   interop.obj
 0001:00021e90       _writeInt16                10022e90 f   interop.obj
 0001:00021ea0       _readInt64                 10022ea0 f   interop.obj
 0001:00021f20       _readCoord                 10022f20 f   interop.obj
 0001:00021f50       _readInt16                 10022f50 f   interop.obj
 0001:00021f60       _sqlite3FtsUnicodeIsdiacritic 10022f60 f   interop.obj
 0001:00021fa0       _remove_diacritic          10022fa0 f   interop.obj
 0001:00022240       _sqlite3FtsUnicodeIsalnum  10023240 f   interop.obj
 0001:000222e0       _unicodeIsException        100232e0 f   interop.obj
 0001:00022330       _fts3MatchinfoLcsCb        10023330 f   interop.obj
 0001:00022350       _fts3MatchinfoSize         10023350 f   interop.obj
 0001:0002239c       $LN12                      1002339c     * CIL library *:* CIL module *
 0001:000223b0       $LN10                      100233b0     * CIL library *:* CIL module *
 0001:000223d0       _fts3ColumnlistCount       100233d0 f   interop.obj
 0001:00022410       _fts3ExprPhraseCountCb     10023410 f   interop.obj
 0001:00022430       _fts3ExprLoadDoclistsCb    10023430 f   interop.obj
 0001:00022450       _fts3ExprIterate2          10023450 f   interop.obj
 0001:000224b0       _fts3MIBufferSetGlobal     100234b0 f   interop.obj
 0001:000224e0       _fts3ChecksumEntry         100234e0 f   interop.obj
 0001:000225a0       _fts3Getint                100235a0 f   interop.obj
 0001:000225d0       _fts3TermCmp               100235d0 f   interop.obj
 0001:00022650       _sqlite3Fts3MsrIncrRestart 10023650 f   interop.obj
 0001:000226b0       _fts3PrefixCompress        100236b0 f   interop.obj
 0001:000226e0       _fts3SegReaderSort         100236e0 f   interop.obj
 0001:00022750       _fts3SegReaderTermCmp      10023750 f   interop.obj
 0001:000227f0       _fts3SegReaderDoclistCmpRev 100237f0 f   interop.obj
 0001:00022850       _fts3SegReaderDoclistCmp   10023850 f   interop.obj
 0001:000228b0       _fts3SegReaderCmp          100238b0 f   interop.obj
 0001:000229d0       _fts3CompareElemByTerm     100239d0 f   interop.obj
 0001:00022a60       _getAbsoluteLevel          10023a60 f   interop.obj
 0001:00022a90       _fts3tokRowidMethod        10023a90 f   interop.obj
 0001:00022ab0       _fts3tokEofMethod          10023ab0 f   interop.obj
 0001:00022ac0       _fts3tokBestIndexMethod    10023ac0 f   interop.obj
 0001:00022b30       _sqlite3Fts3SimpleTokenizerModule 10023b30 f   interop.obj
 0001:00022b40       _fts3_isalnum              10023b40 f   interop.obj
 0001:00022b70       _simpleDelim               10023b70 f   interop.obj
 0001:00022b90       _sqlite3Fts3IsIdChar       10023b90 f   interop.obj
 0001:00022bb0       _sqlite3Fts3PorterTokenizerModule 10023bb0 f   interop.obj
 0001:00022bc0       _copy_stemmer              10023bc0 f   interop.obj
 0001:00022c60       _stem                      10023c60 f   interop.obj
 0001:00022cc0       _isVowel                   10023cc0 f   interop.obj
 0001:00022cf0       _isConsonant               10023cf0 f   interop.obj
 0001:00022d20       _fts3HashInsertElement     10023d20 f   interop.obj
 0001:00022d90       _fts3BinCompare            10023d90 f   interop.obj
 0001:00022e00       _fts3BinHash               10023e00 f   interop.obj
 0001:00022e30       _fts3StrCompare            10023e30 f   interop.obj
 0001:00022e60       _fts3StrHash               10023e60 f   interop.obj
 0001:00022eb0       _sqlite3Fts3HashInit       10023eb0 f   interop.obj
 0001:00022ee0       _fts3ExprCheckDepth        10023ee0 f   interop.obj
 0001:00022f20       _opPrecedence              10023f20 f   interop.obj
 0001:00022f40       _sqlite3Fts3OpenTokenizer  10023f40 f   interop.obj
 0001:00022fd0       _fts3isspace               10023fd0 f   interop.obj
 0001:00023000       _fts3auxRowidMethod        10024000 f   interop.obj
 0001:00023020       _fts3auxEofMethod          10024020 f   interop.obj
 0001:00023030       _fts3auxBestIndexMethod    10024030 f   interop.obj
 0001:000231a0       _fts3ReleaseMethod         100241a0 f   interop.obj
 0001:000231b0       _fts3ReversePoslist        100241b0 f   interop.obj
 0001:00023220       _fts3CommitMethod          10024220 f   interop.obj
 0001:00023230       _fts3RowidMethod           10024230 f   interop.obj
 0001:00023250       _fts3EofMethod             10024250 f   interop.obj
 0001:00023260       _fts3ColumnlistCopy        10024260 f   interop.obj
 0001:000232d0       _fts3PoslistCopy           100242d0 f   interop.obj
 0001:00023340       _fts3GobbleInt             10024340 f   interop.obj
 0001:000233a0       _sqlite3Fts3Dequote        100243a0 f   interop.obj
 0001:00023420       _sqlite3Fts3VarintLen      10024420 f   interop.obj
 0001:00023450       _sqlite3Fts3GetVarint32    10024450 f   interop.obj
 0001:000234d0       _sqlite3Fts3GetVarint      100244d0 f   interop.obj
 0001:000235e0       _sqlite3Fts3PutVarint      100245e0 f   interop.obj
 0001:00023660       _sqlite3TempInMemory       10024660 f   interop.obj
 0001:00023670       _sqlite3InvokeBusyHandler  10024670 f   interop.obj
 0001:000236b0       _sqlite3ErrStr             100246b0 f   interop.obj
 0001:000236d0       _allSpaces                 100246d0 f   interop.obj
 0001:00023730       _sqlite3IsIdChar           10024730 f   interop.obj
 0001:00023750       _keywordCode               10024750 f   interop.obj
 0001:00023810       _yy_accept                 10024810 f   interop.obj
 0001:00023820       _yy_find_reduce_action     10024820 f   interop.obj
 0001:00023840       _yy_find_shift_action      10024840 f   interop.obj
 0001:000238c0       _sqlite3ParserAlloc        100248c0 f   interop.obj
 0001:000238d0       _spanSet                   100248d0 f   interop.obj
 0001:000238f0       _disableLookaside          100248f0 f   interop.obj
 0001:00023900       _sqlite3WhereIsSorted      10024900 f   interop.obj
 0001:00023910       _columnsInIndex            10024910 f   interop.obj
 0001:00023990       _whereLoopFindLesser       10024990 f   interop.obj
 0001:00023a80       _whereLoopCheaperProperSubset 10024a80 f   interop.obj
 0001:00023b20       _whereLoopInit             10024b20 f   interop.obj
 0001:00023b40       _whereRangeAdjust          10024b40 f   interop.obj
 0001:00023b70       _indexColumnNotNull        10024b70 f   interop.obj
 0001:00023ba0       _createMask                10024ba0 f   interop.obj
 0001:00023bb0       _sqlite3WhereGetMask       10024bb0 f   interop.obj
 0001:00023bf0       _whereOrInsert             10024bf0 f   interop.obj
 0001:00023d00       _whereOrMove               10024d00 f   interop.obj
 0001:00023d20       _sqlite3WhereOkOnePass     10024d20 f   interop.obj
 0001:00023d30       _sqlite3WhereBreakLabel    10024d30 f   interop.obj
 0001:00023d40       _sqlite3WhereContinueLabel 10024d40 f   interop.obj
 0001:00023d50       _sqlite3WhereOrderedInnerLoop 10024d50 f   interop.obj
 0001:00023d60       _sqlite3WhereIsOrdered     10024d60 f   interop.obj
 0001:00023d70       _sqlite3WhereIsDistinct    10024d70 f   interop.obj
 0001:00023d80       _sqlite3WhereOutputRowCount 10024d80 f   interop.obj
 0001:00023d90       _sqlite3WhereExprListUsage 10024d90 f   interop.obj
 0001:00023e00       _sqlite3WhereClauseInit    10024e00 f   interop.obj
 0001:00023e20       _exprSelectUsage           10024e20 f   interop.obj
 0001:00023f10       _whereNthSubterm           10024f10 f   interop.obj
 0001:00023f40       _markTermAsChild           10024f40 f   interop.obj
 0001:00023f80       _transferJoinMarkings      10024f80 f   interop.obj
 0001:00023fa0       _operatorMask              10024fa0 f   interop.obj
 0001:00023fd0       _allowedOp                 10024fd0 f   interop.obj
 0001:00024000       _disableTerm               10025000 f   interop.obj
 0001:00024080       _explainIndexColumnName    10025080 f   interop.obj
 0001:000240b0       _sqlite3VtabSavepoint      100250b0 f   interop.obj
 0001:00024140       _sqlite3VtabArgExtend      10025140 f   interop.obj
 0001:00024170       _vtabDisconnectAll         10025170 f   interop.obj
 0001:000241c0       _sqlite3GetVTable          100251c0 f   interop.obj
 0001:000241e0       _sqlite3VtabLock           100251e0 f   interop.obj
 0001:000241f0       _sqlite3ExprWalkNoop       100251f0 f   interop.obj
 0001:00024200       _sqlite3WithPush           10025200 f   interop.obj
 0001:00024230       _isSimpleCount             10025230 f   interop.obj
 0001:00024290       _substExprList             10025290 f   interop.obj
 0001:000242e0       _multiSelectValues         100252e0 f   interop.obj
 0001:00024340       _selectOpName              10025340 f   interop.obj
 0001:00024370       _sqlite3KeyInfoRef         10025370 f   interop.obj
 0001:00024380       _setJoinExpr               10025380 f   interop.obj
 0001:000243f0       _findRightmost             100253f0 f   interop.obj
 0001:00024410       _sqlite3SelectDestInit     10025410 f   interop.obj
 0001:00024470       _sqlite3SchemaToIndex      10025470 f   interop.obj
 0001:000244a0       _sqlite3JournalModename    100254a0 f   interop.obj
 0001:000244b0       _actionName                100254b0 f   interop.obj
 0001:000244e0       $LN11                      100254e0     * CIL library *:* CIL module *
 0001:000244f0       _checkConstraintExprNode   100254f0 f   interop.obj
 0001:00024530       _isSetNullAction           10025530 f   interop.obj
 0001:00024570       _fkChildIsModified         10025570 f   interop.obj
 0001:000245d0       _sqlite3SkipAccumulatorLoad 100255d0 f   interop.obj
 0001:000245e0       _sqlite3GetFuncCollSeq     100255e0 f   interop.obj
 0001:00024600       _matchQuality              10025600 f   interop.obj
 0001:00024670       _sqlite3MayAbort           10025670 f   interop.obj
 0001:00024680       _sqlite3MultiWrite         10025680 f   interop.obj
 0001:00024690       _sqlite3SrcListShiftJoinType 10025690 f   interop.obj
 0001:000246d0       _sqlite3SrcListAssignCursors 100256d0 f   interop.obj
 0001:00024730       _sqlite3DefaultRowEst      10025730 f   interop.obj
 0001:000247e0       _sqlite3DeferForeignKey    100257e0 f   interop.obj
 0001:00024800       _sqlite3RootPageMoved      10025800 f   interop.obj
 0001:00024860       _hasColumn                 10025860 f   interop.obj
 0001:00024890       _identLength               10025890 f   interop.obj
 0001:000248c0       _sqlite3StringToId         100258c0 f   interop.obj
 0001:000248e0       _sqlite3AddNotNull         100258e0 f   interop.obj
 0001:00024910       _sqlite3ColumnOfIndex      10025910 f   interop.obj
 0001:00024940       _sqlite3PrimaryKeyIndex    10025940 f   interop.obj
 0001:00024960       _sqlite3CommitInternalChanges 10025960 f   interop.obj
 0001:00024970       _sqlite3AuthContextPop     10025970 f   interop.obj
 0001:00024990       _sqlite3AuthContextPush    10025990 f   interop.obj
 0001:000249b0       _sqlite3FixExprList        100259b0 f   interop.obj
 0001:00024a00       _sqlite3FixInit            10025a00 f   interop.obj
 0001:00024a40       _initAvgEq                 10025a40 f   interop.obj
 0001:00024bd0       _sampleIsBetterPost        10025bd0 f   interop.obj
 0001:00024c40       _sqlite3ClearTempRegCache  10025c40 f   interop.obj
 0001:00024c50       _sqlite3GetTempRange       10025c50 f   interop.obj
 0001:00024c80       _sqlite3ReleaseTempReg     10025c80 f   interop.obj
 0001:00024cc0       _sqlite3GetTempReg         10025cc0 f   interop.obj
 0001:00024ce0       _analyzeAggregatesInSelect 10025ce0 f   interop.obj
 0001:00024cf0       _exprSrcCount              10025cf0 f   interop.obj
 0001:00024d50       _exprIdxCover              10025d50 f   interop.obj
 0001:00024dc0       _sqlite3ExprListCompare    10025dc0 f   interop.obj
 0001:00024e50       _exprToRegister            10025e50 f   interop.obj
 0001:00024e70       _sqlite3ExprCachePinRegister 10025e70 f   interop.obj
 0001:00024f10       _sqlite3ExprCachePush      10025f10 f   interop.obj
 0001:00024f20       _sqlite3ExprCacheStore     10025f20 f   interop.obj
 0001:00025070       _cacheEntryClear           10026070 f   interop.obj
 0001:000250a0       _isCandidateForInOpt       100260a0 f   interop.obj
 0001:00025100       _sqlite3ExprNeedsNoAffinityChange 10026100 f   interop.obj
 0001:00025164       $LN40                      10026164     * CIL library *:* CIL module *
 0001:0002517c       $LN31                      1002617c     * CIL library *:* CIL module *
 0001:000251c0       _sqlite3ExprCanBeNull      100261c0 f   interop.obj
 0001:00025220       $LN23                      10026220     * CIL library *:* CIL module *
 0001:0002522c       $LN20                      1002622c     * CIL library *:* CIL module *
 0001:00025270       _sqlite3ExprIsInteger      10026270 f   interop.obj
 0001:000252e0       _selectNodeIsConstant      100262e0 f   interop.obj
 0001:00025300       _exprNodeIsConstant        10026300 f   interop.obj
 0001:00025378       $LN22                      10026378     * CIL library *:* CIL module *
 0001:00025388       $LN18                      10026388     * CIL library *:* CIL module *
 0001:000253f0       _sqlite3ExprListFlags      100263f0 f   interop.obj
 0001:00025410       _sqlite3ExprListSetSortOrder 10026410 f   interop.obj
 0001:00025430       _dupedExprStructSize       10026430 f   interop.obj
 0001:00025450       _exprStructSize            10026450 f   interop.obj
 0001:00025470       _exprAlwaysFalse           10026470 f   interop.obj
 0001:000254a0       _exprAlwaysTrue            100264a0 f   interop.obj
 0001:000254d0       _heightOfExpr              100264d0 f   interop.obj
 0001:000254e0       _sqlite3ExprSkipCollate    100264e0 f   interop.obj
 0001:00025510       _incrAggDepth              10026510 f   interop.obj
 0001:00025530       _sqlite3WalkExprList       10026530 f   interop.obj
 0001:00025570       _sqlite3JournalSize        10026570 f   interop.obj
 0001:00025580       _sqlite3JournalIsInMemory  10026580 f   interop.obj
 0001:00025590       _memjrnlFileSize           10026590 f   interop.obj
 0001:000255b0       _memjrnlSync               100265b0 f   interop.obj
 0001:000255c0       _memjrnlRead               100265c0 f   interop.obj
 0001:000256d0       _vdbeSorterRowkey          100266d0 f   interop.obj
 0001:00025720       _vdbeSorterTreeDepth       10026720 f   interop.obj
 0001:00025750       _vdbeMergeEngineCompare    10026750 f   interop.obj
 0001:00025810       _vdbeIncrMergerSetThreads  10026810 f   interop.obj
 0001:00025830       _vdbeMergeEngineStep       10026830 f   interop.obj
 0001:000259c0       _vdbeSorterMerge           100269c0 f   interop.obj
 0001:00025af0       _sqlite3VdbeParameterIndex 10026af0 f   interop.obj
 0001:00025bb0       _columnNullValue           10026bb0 f   interop.obj
 0001:00025cf0       _sqlite3VdbeSetVarmask     10026cf0 f   interop.obj
 0001:00025d20       _sqlite3VdbeDb             10026d20 f   interop.obj
 0001:00025d30       _sqlite3ExpirePreparedStatements 10026d30 f   interop.obj
 0001:00025d50       _sqlite3VdbeCountChanges   10026d50 f   interop.obj
 0001:00025d60       _sqlite3VdbeSetChanges     10026d60 f   interop.obj
 0001:00025d70       _vdbeRecordDecodeInt       10026d70 f   interop.obj
 0001:00025eb4       $LN12                      10026eb4     * CIL library *:* CIL module *
 0001:00025ed0       _sqlite3IntFloatCompare    10026ed0 f   interop.obj
 0001:00025f70       _sqlite3BlobCompare        10026f70 f   interop.obj
 0001:00025ff0       _sqlite3VdbeSerialPut      10026ff0 f   interop.obj
 0001:00026050       _sqlite3VdbeOneByteSerialTypeLen 10027050 f   interop.obj
 0001:00026060       _sqlite3VdbeSerialTypeLen  10027060 f   interop.obj
 0001:00026080       _sqlite3VdbeSerialType     10027080 f   interop.obj
 0001:000261e0       _sqlite3VdbeResetStepResult 100271e0 f   interop.obj
 0001:000261f0       _sqlite3VdbeRewind         100271f0 f   interop.obj
 0001:00026240       _allocSpace                10027240 f   interop.obj
 0001:00026270       _sqlite3VdbeGetOp          10027270 f   interop.obj
 0001:000262a0       _sqlite3VdbeLinkSubProgram 100272a0 f   interop.obj
 0001:000262b0       _sqlite3VdbeChangeP5       100272b0 f   interop.obj
 0001:000262d0       _sqlite3VdbeChangeP3       100272d0 f   interop.obj
 0001:00026300       _sqlite3VdbeChangeP2       10027300 f   interop.obj
 0001:00026340       _sqlite3VdbeChangeP1       10027340 f   interop.obj
 0001:00026380       _sqlite3VdbeChangeOpcode   10027380 f   interop.obj
 0001:000263c0       _sqlite3VdbeCurrentAddr    100273c0 f   interop.obj
 0001:000263d0       _sqlite3VdbeReusable       100273d0 f   interop.obj
 0001:000263e0       _sqlite3VdbeRunOnlyOnce    100273e0 f   interop.obj
 0001:000263f0       _sqlite3VdbeResolveLabel   100273f0 f   interop.obj
 0001:00026420       _sqlite3VdbeSwap           10027420 f   interop.obj
 0001:000264a0       _sqlite3VdbeMemTooBig      100274a0 f   interop.obj
 0001:000264d0       _sqlite3VdbeMemInit        100274d0 f   interop.obj
 0001:000264f0       _doubleToInt64             100274f0 f   interop.obj
 0001:00026550       _sqlite3BackupRestart      10027550 f   interop.obj
 0001:00026570       _isFatalError              10027570 f   interop.obj
 0001:00026590       _sqlite3BtreeConnectionCount 10027590 f   interop.obj
 0001:000265a0       _sqlite3BtreeSharable      100275a0 f   interop.obj
 0001:000265b0       _sqlite3HeaderSizeBtree    100275b0 f   interop.obj
 0001:000265c0       _sqlite3BtreeIsReadonly    100275c0 f   interop.obj
 0001:000265d0       _sqlite3BtreeCursorHasHint 100275d0 f   interop.obj
 0001:000265e0       _sqlite3BtreeIncrblobCursor 100275e0 f   interop.obj
 0001:000265f0       _sqlite3BtreeIsInBackup    100275f0 f   interop.obj
 0001:00026600       _sqlite3BtreeIsInReadTrans 10027600 f   interop.obj
 0001:00026610       _sqlite3BtreeIsInTrans     10027610 f   interop.obj
 0001:00026630       _btreeHeapPull             10027630 f   interop.obj
 0001:00026690       _btreeHeapInsert           10027690 f   interop.obj
 0001:000266c0       _setPageReferenced         100276c0 f   interop.obj
 0001:000266e0       _getPageReferenced         100276e0 f   interop.obj
 0001:00026700       _sqlite3BtreePager         10027700 f   interop.obj
 0001:00026710       _computeCellSize           10027710 f   interop.obj
 0001:00026740       _populateCellCache         10027740 f   interop.obj
 0001:000267a0       _sqlite3BtreeEof           100277a0 f   interop.obj
 0001:000267b0       _fetchPayload              100277b0 f   interop.obj
 0001:000267e0       _sqlite3BtreeCursorZero    100277e0 f   interop.obj
 0001:000267f0       _sqlite3BtreeCursorSize    100277f0 f   interop.obj
 0001:00026800       _sqlite3BtreeGetReserveNoMutex 10027800 f   interop.obj
 0001:00026810       _sqlite3BtreeGetPageSize   10027810 f   interop.obj
 0001:00026820       _btreeInvokeBusyHandler    10027820 f   interop.obj
 0001:00026840       _btreePagecount            10027840 f   interop.obj
 0001:00026850       _cellSizePtrNoPayload      10027850 f   interop.obj
 0001:00026870       _cellSizePtr               10027870 f   interop.obj
 0001:00026920       _btreeParseCell            10027920 f   interop.obj
 0001:00026950       _btreeParseCellAdjustSizeForOverflow 10027950 f   interop.obj
 0001:000269b0       _ptrmapPageno              100279b0 f   interop.obj
 0001:00026a00       _sqlite3BtreeCursorHintFlags 10027a00 f   interop.obj
 0001:00026a10       _sqlite3BtreeCursorHasMoved 10027a10 f   interop.obj
 0001:00026a20       _invalidateIncrblobCursors 10027a20 f   interop.obj
 0001:00026a70       _invalidateAllOverflowCache 10027a70 f   interop.obj
 0001:00026a90       _downgradeAllSharedCacheTableLocks 10027a90 f   interop.obj
 0001:00026ac0       _querySharedCacheTableLock 10027ac0 f   interop.obj
 0001:00026b30       _sqlite3WalFile            10027b30 f   interop.obj
 0001:00026b40       _sqlite3WalHeapMemory      10027b40 f   interop.obj
 0001:00026b60       _sqlite3WalCallback        10027b60 f   interop.obj
 0001:00026b80       _sqlite3WalSavepoint       10027b80 f   interop.obj
 0001:00026ba0       _sqlite3WalDbsize          10027ba0 f   interop.obj
 0001:00026bc0       _walPagesize               10027bc0 f   interop.obj
 0001:00026be0       _walMerge                  10027be0 f   interop.obj
 0001:00026cb0       _walIteratorNext           10027cb0 f   interop.obj
 0001:00026d50       _sqlite3WalLimit           10027d50 f   interop.obj
 0001:00026d70       _walFramePage              10027d70 f   interop.obj
 0001:00026d80       _walNextHash               10027d80 f   interop.obj
 0001:00026d90       _walHash                   10027d90 f   interop.obj
 0001:00026da0       _walChecksumBytes          10027da0 f   interop.obj
 0001:00026e60       _walIndexHdr               10027e60 f   interop.obj
 0001:00026e70       _walCkptInfo               10027e70 f   interop.obj
 0001:00026e80       _sqlite3PagerWalSupported  10027e80 f   interop.obj
 0001:00026eb0       _sqlite3PagerWalCallback   10027eb0 f   interop.obj
 0001:00026ed0       _sqlite3PagerBackupPtr     10027ed0 f   interop.obj
 0001:00026ee0       _sqlite3PagerJournalSizeLimit 10027ee0 f   interop.obj
 0001:00026f30       _sqlite3PagerOkToChangeJournalMode 10027f30 f   interop.obj
 0001:00026f60       _sqlite3PagerGetJournalMode 10027f60 f   interop.obj
 0001:00026f70       _sqlite3PagerLockingMode   10027f70 f   interop.obj
 0001:00026fa0       _sqlite3PagerGetExtra      10027fa0 f   interop.obj
 0001:00026fb0       _sqlite3PagerGetData       10027fb0 f   interop.obj
 0001:00026fc0       _sqlite3PagerCodec         10027fc0 f   interop.obj
 0001:00026ff0       _sqlite3PagerGetCodec      10027ff0 f   interop.obj
 0001:00027000       _sqlite3PagerJournalname   10028000 f   interop.obj
 0001:00027010       _sqlite3PagerJrnlFile      10028010 f   interop.obj
 0001:00027030       _sqlite3PagerFile          10028030 f   interop.obj
 0001:00027040       _sqlite3PagerVfs           10028040 f   interop.obj
 0001:00027050       _sqlite3PagerFilename      10028050 f   interop.obj
 0001:00027070       _sqlite3PagerIsMemdb       10028070 f   interop.obj
 0001:00027080       _sqlite3PagerCacheStat     10028080 f   interop.obj
 0001:000270b0       _sqlite3PagerIsreadonly    100280b0 f   interop.obj
 0001:000270c0       _sqlite3PagerDontWrite     100280c0 f   interop.obj
 0001:000270f0       _sqlite3PagerTruncateImage 100280f0 f   interop.obj
 0001:00027100       _sqlite3PagerPagecount     10028100 f   interop.obj
 0001:00027110       _sqlite3PagerMaxPageCount  10028110 f   interop.obj
 0001:00027130       _sqlite3PagerTempSpace     10028130 f   interop.obj
 0001:00027140       _sqlite3PagerSetFlags      10028140 f   interop.obj
 0001:000271d0       _pagerReportSize           100281d0 f   interop.obj
 0001:00027200       _pager_cksum               10028200 f   interop.obj
 0001:00027270       _pager_error               10028270 f   interop.obj
 0001:00027290       _sqlite3PagerDataVersion   10028290 f   interop.obj
 0001:000272a0       _journalHdrOffset          100282a0 f   interop.obj
 0001:00027300       _pagerUseWal               10028300 f   interop.obj
 0001:00027310       _rowSetNDeepTree           10028310 f   interop.obj
 0001:00027370       _rowSetTreeToList          10028370 f   interop.obj
 0001:000273b0       _rowSetEntryMerge          100283b0 f   interop.obj
 0001:00027410       _sqlite3RowSetInit         10028410 f   interop.obj
 0001:00027460       _sqlite3Pcache1Mutex       10028460 f   interop.obj
 0001:00027470       _sqlite3HeaderSizePcache1  10028470 f   interop.obj
 0001:00027480       _pcache1Shutdown           10028480 f   interop.obj
 0001:000274a0       _pcache1PinPage            100284a0 f   interop.obj
 0001:000274d0       _sqlite3PCacheBufferSetup  100284d0 f   interop.obj
 0001:00027560       _sqlite3HeaderSizePcache   10028560 f   interop.obj
 0001:00027570       _sqlite3PcacheShrink       10028570 f   interop.obj
 0001:00027580       _sqlite3PcachePagecount    10028580 f   interop.obj
 0001:00027590       _sqlite3PcachePageRefcount 10028590 f   interop.obj
 0001:000275a0       _sqlite3PcacheRefCount     100285a0 f   interop.obj
 0001:000275b0       _pcacheMergeDirtyList      100285b0 f   interop.obj
 0001:00027600       _sqlite3PcacheClose        10028600 f   interop.obj
 0001:00027610       _sqlite3PcacheClearSyncFlags 10028610 f   interop.obj
 0001:00027640       _sqlite3PcacheClearWritable 10028640 f   interop.obj
 0001:00027670       _sqlite3PcacheRef          10028670 f   interop.obj
 0001:00027680       _pcacheFetchFinishWithInit 10028680 f   interop.obj
 0001:00027700       _sqlite3PcacheFetchStress  10028700 f   interop.obj
 0001:000277a0       _sqlite3PcacheFetch        100287a0 f   interop.obj
 0001:000277c0       _sqlite3PcacheSize         100287c0 f   interop.obj
 0001:000277d0       _sqlite3PcacheShutdown     100287d0 f   interop.obj
 0001:000277f0       _numberOfCachePages        100287f0 f   interop.obj
 0001:00027820       _pcacheUnpin               10028820 f   interop.obj
 0001:00027840       _pcacheManageDirtyList     10028840 f   interop.obj
 0001:000278d0       _sqlite3BitvecSize         100288d0 f   interop.obj
 0001:000278e0       _sqlite3BitvecClear        100288e0 f   interop.obj
 0001:000279b0       _sqlite3BitvecTestNotNull  100289b0 f   interop.obj
 0001:00027a50       _winCurrentTimeInt64       10028a50 f   interop.obj
 0001:00027aa0       _xorMemory                 10028aa0 f   interop.obj
 0001:00027af0       _winDlClose                10028af0 f   interop.obj
 0001:00027b00       _winDlSym                  10028b00 f   interop.obj
 0001:00027b20       _winIsDriveLetterAndColon  10028b20 f   interop.obj
 0001:00027b40       _winDeviceCharacteristics  10028b40 f   interop.obj
 0001:00027b60       _winSectorSize             10028b60 f   interop.obj
 0001:00027b70       _winModeBit                10028b70 f   interop.obj
 0001:00027ba0       _winNolockUnlock           10028ba0 f   interop.obj
 0001:00027bb0       _winNolockCheckReservedLock 10028bb0 f   interop.obj
 0001:00027bc0       _winNolockLock             10028bc0 f   interop.obj
 0001:00027bd0       _winUnlockFile             10028bd0 f   interop.obj
 0001:00027c10       _winLockFile               10028c10 f   interop.obj
 0001:00027c50       _winMemRoundup             10028c50 f   interop.obj
 0001:00027c70       _sqlite3Win32Wait          10028c70 f   interop.obj
 0001:00027ca0       _winNextSystemCall         10028ca0 f   interop.obj
 0001:00027d30       _winGetSystemCall          10028d30 f   interop.obj
 0001:00027da0       _winSetSystemCall          10028da0 f   interop.obj
 0001:00027ea0       _sqlite3OpcodeName         10028ea0 f   interop.obj
 0001:00027eb0       _insertElement             10028eb0 f   interop.obj
 0001:00027f20       _strHash                   10028f20 f   interop.obj
 0001:00027f50       _sqlite3HashInit           10028f50 f   interop.obj
 0001:00027f70       _sqlite3LogEstToInt        10028f70 f   interop.obj
 0001:00027fe0       _sqlite3LogEst             10028fe0 f   interop.obj
 0001:00028090       _sqlite3LogEstAdd          10029090 f   interop.obj
 0001:000280f0       _sqlite3AbsInt32           100290f0 f   interop.obj
 0001:00028110       _sqlite3AddInt64           10029110 f   interop.obj
 0001:000281b0       _sqlite3HexToInt           100291b0 f   interop.obj
 0001:000281d0       _sqlite3Put4byte           100291d0 f   interop.obj
 0001:000281e0       _sqlite3Get4byte           100291e0 f   interop.obj
 0001:000281f0       _sqlite3VarintLen          100291f0 f   interop.obj
 0001:00028230       _sqlite3GetVarint          10029230 f   interop.obj
 0001:000283b0       _putVarint64               100293b0 f   interop.obj
 0001:000284c0       _sqlite3GetInt32           100294c0 f   interop.obj
 0001:00028640       _compare2pow63             10029640 f   interop.obj
 0001:00028690       _sqlite3AtoF               10029690 f   interop.obj
 0001:00028c70       _sqlite3StrICmp            10029c70 f   interop.obj
 0001:00028cf0       _sqlite3Dequote            10029cf0 f   interop.obj
 0001:00028d50       _sqlite3ColumnType         10029d50 f   interop.obj
 0001:00028d70       _sqlite3Strlen30           10029d70 f   interop.obj
 0001:00028da0       _sqlite3IsNaN              10029da0 f   interop.obj
 0001:00028de0       _sqlite3FaultSim           10029de0 f   interop.obj
 0001:00028e00       _sqlite3Utf16ByteLen       10029e00 f   interop.obj
 0001:00028e40       _sqlite3Utf8CharLen        10029e40 f   interop.obj
 0001:00028e80       _sqlite3Utf8Read           10029e80 f   interop.obj
 0001:00028ef0       _sqlite3ThreadProc@4       10029ef0 f   interop.obj
 0001:00028f20       _sqlite3PrngRestoreState   10029f20 f   interop.obj
 0001:00028f40       _sqlite3PrngSaveState      10029f40 f   interop.obj
 0001:00028f60       _sqlite3StrAccumInit       10029f60 f   interop.obj
 0001:00028f90       _setStrAccumError          10029f90 f   interop.obj
 0001:00028fa0       _et_getdigit               10029fa0 f   interop.obj
 0001:00028fe0       _sqlite3OomClear           10029fe0 f   interop.obj
 0001:00029010       _sqlite3OomFault           1002a010 f   interop.obj
 0001:00029060       _sqlite3MallocSize         1002a060 f   interop.obj
 0001:00029070       _isLookaside               1002a070 f   interop.obj
 0001:00029090       _sqlite3MallocEnd          1002a090 f   interop.obj
 0001:000290c0       _sqlite3HeapNearlyFull     1002a0c0 f   interop.obj
 0001:000290e0       _sqlite3MallocMutex        1002a0e0 f   interop.obj
 0001:000290f0       _winMutexLeave             1002a0f0 f   interop.obj
 0001:00029100       _winMutexTry               1002a100 f   interop.obj
 0001:00029140       _winMutexEnter             1002a140 f   interop.obj
 0001:00029150       _winMutexEnd               1002a150 f   interop.obj
 0001:000291a0       _winMutexInit              1002a1a0 f   interop.obj
 0001:00029200       _sqlite3MemoryBarrier      1002a200 f   interop.obj
 0001:00029210       _noopMutexLeave            1002a210 f   interop.obj
 0001:00029220       _noopMutexTry              1002a220 f   interop.obj
 0001:00029230       _noopMutexEnter            1002a230 f   interop.obj
 0001:00029240       _noopMutexFree             1002a240 f   interop.obj
 0001:00029250       _noopMutexAlloc            1002a250 f   interop.obj
 0001:00029260       _noopMutexEnd              1002a260 f   interop.obj
 0001:00029270       _noopMutexInit             1002a270 f   interop.obj
 0001:00029300       _sqlite3MutexAlloc         1002a300 f   interop.obj
 0001:00029320       _sqlite3MutexEnd           1002a320 f   interop.obj
 0001:00029330       _sqlite3EndBenignMalloc    1002a330 f   interop.obj
 0001:00029340       _sqlite3BeginBenignMalloc  1002a340 f   interop.obj
 0001:00029350       _sqlite3BenignMallocHooks  1002a350 f   interop.obj
 0001:00029360       _vfsUnlink                 1002a360 f   interop.obj
 0001:00029440       _sqlite3OsCurrentTimeInt64 1002a440 f   interop.obj
 0001:000294a0       _sqlite3OsGetLastError     1002a4a0 f   interop.obj
 0001:000294c0       _sqlite3OsSleep            1002a4c0 f   interop.obj
 0001:000294d0       _sqlite3OsRandomness       1002a4d0 f   interop.obj
 0001:000294f0       _sqlite3OsDlClose          1002a4f0 f   interop.obj
 0001:00029500       _sqlite3OsDlSym            1002a500 f   interop.obj
 0001:00029520       _sqlite3OsDlError          1002a520 f   interop.obj
 0001:00029540       _sqlite3OsDlOpen           1002a540 f   interop.obj
 0001:00029550       _sqlite3OsFullPathname     1002a550 f   interop.obj
 0001:00029570       _sqlite3OsAccess           1002a570 f   interop.obj
 0001:00029590       _sqlite3OsDelete           1002a590 f   interop.obj
 0001:000295b0       _sqlite3OsOpen             1002a5b0 f   interop.obj
 0001:000295d0       _sqlite3OsUnfetch          1002a5d0 f   interop.obj
 0001:000295f0       _sqlite3OsFetch            1002a5f0 f   interop.obj
 0001:00029610       _sqlite3OsShmMap           1002a610 f   interop.obj
 0001:00029630       _sqlite3OsShmUnmap         1002a630 f   interop.obj
 0001:00029640       _sqlite3OsShmBarrier       1002a640 f   interop.obj
 0001:00029650       _sqlite3OsShmLock          1002a650 f   interop.obj
 0001:00029670       _sqlite3OsDeviceCharacteristics 1002a670 f   interop.obj
 0001:00029680       _sqlite3OsSectorSize       1002a680 f   interop.obj
 0001:000296a0       _sqlite3OsFileControlHint  1002a6a0 f   interop.obj
 0001:000296c0       _sqlite3OsFileControl      1002a6c0 f   interop.obj
 0001:000296e0       _sqlite3OsCheckReservedLock 1002a6e0 f   interop.obj
 0001:000296f0       _sqlite3OsUnlock           1002a6f0 f   interop.obj
 0001:00029700       _sqlite3OsLock             1002a700 f   interop.obj
 0001:00029710       _sqlite3OsFileSize         1002a710 f   interop.obj
 0001:00029720       _sqlite3OsSync             1002a720 f   interop.obj
 0001:00029730       _sqlite3OsTruncate         1002a730 f   interop.obj
 0001:00029750       _sqlite3OsWrite            1002a750 f   interop.obj
 0001:00029770       _sqlite3OsRead             1002a770 f   interop.obj
 0001:00029790       _sqlite3OsClose            1002a790 f   interop.obj
 0001:000297b0       _clearYMD_HMS_TZ           1002a7b0 f   interop.obj
 0001:000297c0       _computeYMD                1002a7c0 f   interop.obj
 0001:000298e0       _computeJD                 1002a8e0 f   interop.obj
 0001:00029a10       _getDigits                 1002aa10 f   interop.obj
 0001:00029ad0       _localtime_s               1002aad0 f   interop.obj
 0001:00029ae0       _sqlite3StatusHighwater    1002aae0 f   interop.obj
 0001:00029b00       _sqlite3StatusDown         1002ab00 f   interop.obj
 0001:00029b10       _sqlite3StatusUp           1002ab10 f   interop.obj
 0001:00029b30       _sqlite3StatusValue        1002ab30 f   interop.obj
 0001:00029b60       _totypeAtoF                1002ab60 f   interop.obj
 0001:0002a150       _totypeAtoi64              1002b150 f   interop.obj
 0001:0002a2c0       _re_esc_char               1002b2c0 f   interop.obj
 0001:0002a3d0       _re_next_char_nocase       1002b3d0 f   interop.obj
 0001:0002a3f0       _jsonEachNext              1002b3f0 f   interop.obj
 0001:0002a4e0       _jsonParseFillInParentage  1002b4e0 f   interop.obj
 0001:0002a5b0       _jsonInit                  1002b5b0 f   interop.obj
 0001:0002a5e0       _sqlite3Fts5PutVarint      1002b5e0 f   interop.obj
 0001:0002a650       _sqlite3Fts5UnicodeFold    1002b650 f   interop.obj
 0001:0002a720       _fts5Porter_Vowel          1002b720 f   interop.obj
 0001:0002a760       _fts5Porter_Ostar          1002b760 f   interop.obj
 0001:0002a7d0       _fts5PorterGobbleVC        1002b7d0 f   interop.obj
 0001:0002a860       _fts5UnicodeIsAlnum        1002b860 f   interop.obj
 0001:0002a880       _fts5LocateTokenizer       1002b880 f   interop.obj
 0001:0002a8c0       _sqlite3Fts5IndexFromCsrid 1002b8c0 f   interop.obj
 0001:0002a8f0       _fts5ApiPhraseSize         1002b8f0 f   interop.obj
 0001:0002a920       _fts5ApiPhraseCount        1002b920 f   interop.obj
 0001:0002a940       _fts5ApiTokenize           1002b940 f   interop.obj
 0001:0002a980       _fts5CursorRowid           1002b980 f   interop.obj
 0001:0002a9a0       _fts5FindAuxiliary         1002b9a0 f   interop.obj
 0001:0002a9e0       _fts5SetUniqueFlag         1002b9e0 f   interop.obj
 0001:0002a9f0       _sqlite3Fts5IterTerm       1002b9f0 f   interop.obj
 0001:0002aa10       _fts5DoclistIterInit       1002ba10 f   interop.obj
 0001:0002aa30       _fts5PoslistFilterCallback 1002ba30 f   interop.obj
 0001:0002abf0       _fts5PoslistOffsetsCallback 1002bbf0 f   interop.obj
 0001:0002ac90       _fts5MultiIterDoCompare    1002bc90 f   interop.obj
 0001:0002ad90       _fts5DlidxIterFirst        1002bd90 f   interop.obj
 0001:0002adc0       _fts5HashAddPoslistSize    1002bdc0 f   interop.obj
 0001:0002aea0       _fts5ExprCheckPoslists     1002bea0 f   interop.obj
 0001:0002afb8       $LN46                      1002bfb8     * CIL library *:* CIL module *
 0001:0002afc8       $LN44                      1002bfc8     * CIL library *:* CIL module *
 0001:0002afe0       _sqlite3Fts5ExprNext       1002bfe0 f   interop.obj
 0001:0002b060       _fts5ExprNodeTest_AND      1002c060 f   interop.obj
 0001:0002b180       _fts5NodeCompare           1002c180 f   interop.obj
 0001:0002b200       _fts5LookaheadReaderNext   1002c200 f   interop.obj
 0001:0002b260       _fts5ConfigSetEnum         1002c260 f   interop.obj
 0001:0002b2e0       _sqlite3Fts5Dequote        1002c2e0 f   interop.obj
 0001:0002b300       _fts5ConfigSkipLiteral     1002c300 f   interop.obj
 0001:0002b3e8       $LN95                      1002c3e8     * CIL library *:* CIL module *
 0001:0002b3f8       $LN84                      1002c3f8     * CIL library *:* CIL module *
 0001:0002b450       _fts5ConfigSkipBareword    1002c450 f   interop.obj
 0001:0002b480       _fts5ConfigSkipWhitespace  1002c480 f   interop.obj
 0001:0002b4a0       _sqlite3Fts5PoslistSafeAppend 1002c4a0 f   interop.obj
 0001:0002b530       _sqlite3Fts5PoslistReaderNext 1002c530 f   interop.obj
 0001:0002b560       _fts5CInstIterInit         1002c560 f   interop.obj
 0001:0002b9d0       __substr                   1002c9d0 f   interop.obj
 0001:0002bb00       _statSizeAndOffset         1002cb00 f   interop.obj
 0001:0002bba0       _cellGrowth                1002cba0 f   interop.obj
 0001:0002bc10       _setEstimatedRows          1002cc10 f   interop.obj
 0001:0002bc30       _rtreeCallbackConstraint   1002cc30 f   interop.obj
 0001:0002bda0       _nodeGetCoord              1002cda0 f   interop.obj
 0001:0002bdc0       _nodeGetRowid              1002cdc0 f   interop.obj
 0001:0002bde0       _nodeDeleteCell            1002cde0 f   interop.obj
 0001:0002be50       _nodeOverwriteCell         1002ce50 f   interop.obj
 0001:0002bed0       _nodeHashDelete            1002ced0 f   interop.obj
 0001:0002bf20       _nodeHashInsert            1002cf20 f   interop.obj
 0001:0002bf50       _nodeHashLookup            1002cf50 f   interop.obj
 0001:0002bf90       _sqlite3FtsUnicodeFold     1002cf90 f   interop.obj
 0001:0002c070       _unicodeIsAlnum            1002d070 f   interop.obj
 0001:0002c090       _fts3LcsIteratorAdvance    1002d090 f   interop.obj
 0001:0002c0f0       _fts3ExprLHits             1002d0f0 f   interop.obj
 0001:0002c1d0       _fts3SnippetShift          1002d1d0 f   interop.obj
 0001:0002c350       _fts3ExprIterate           1002d350 f   interop.obj
 0001:0002c370       _fts3GetDeltaPosition      1002d370 f   interop.obj
 0001:0002c3b0       _fts3IncrmergeHintPop      1002d3b0 f   interop.obj
 0001:0002c440       _fts3StartNode             1002d440 f   interop.obj
 0001:0002c460       _fts3DecodeIntArray        1002d460 f   interop.obj
 0001:0002c4a0       _fts3EncodeIntArray        1002d4a0 f   interop.obj
 0001:0002c4e0       _fts3ColumnFilter          1002d4e0 f   interop.obj
 0001:0002c5c0       _fts3TreeFinishNode        1002d5c0 f   interop.obj
 0001:0002c620       _sqlite3Fts3NextToken      1002d620 f   interop.obj
 0001:0002c6c0       $LN55                      1002d6c0     * CIL library *:* CIL module *
 0001:0002c6d0       $LN48                      1002d6d0     * CIL library *:* CIL module *
 0001:0002c740       _star_oh                   1002d740 f   interop.obj
 0001:0002c780       _doubleConsonant           1002d780 f   interop.obj
 0001:0002c7a0       _hasVowel                  1002d7a0 f   interop.obj
 0001:0002c7d0       _m_gt_1                    1002d7d0 f   interop.obj
 0001:0002c860       _m_eq_1                    1002d860 f   interop.obj
 0001:0002c8f0       _m_gt_0                    1002d8f0 f   interop.obj
 0001:0002c940       _ftsCompareFunction        1002d940 f   interop.obj
 0001:0002c960       _ftsHashFunction           1002d960 f   interop.obj
 0001:0002c980       _insertBinaryOperator      1002d980 f   interop.obj
 0001:0002ca00       _fts3EvalUpdateCounts      1002da00 f   interop.obj
 0001:0002caf0       _fts3EvalDlPhraseNext      1002daf0 f   interop.obj
 0001:0002cba0       _sqlite3Fts3DoclistNext    1002dba0 f   interop.obj
 0001:0002cc50       _fts3DoclistCountDocids    1002dc50 f   interop.obj
 0001:0002cca0       _sqlite3Fts3FirstFilter    1002dca0 f   interop.obj
 0001:0002cd80       _fts3PutDeltaVarint3       1002dd80 f   interop.obj
 0001:0002cdf0       _fts3GetDeltaVarint3       1002ddf0 f   interop.obj
 0001:0002ce30       _fts3PutColNumber          1002de30 f   interop.obj
 0001:0002ce70       _fts3PutDeltaVarint        1002de70 f   interop.obj
 0001:0002ceb0       _fts3SetUniqueFlag         1002deb0 f   interop.obj
 0001:0002cec0       _fts3SetEstimatedRows      1002dec0 f   interop.obj
 0001:0002ced0       _fts3GetReverseVarint      1002ded0 f   interop.obj
 0001:0002cf10       _fts3GetDeltaVarint        1002df10 f   interop.obj
 0001:0002cf40       _sqlite3DbNameToBtree      1002df40 f   interop.obj
 0001:0002d0d0       _sqliteDefaultBusyCallback 1002e0d0 f   interop.obj
 0001:0002d140       _connectionIsBusy          1002e140 f   interop.obj
 0001:0002d180       _nocaseCollatingFunc       1002e180 f   interop.obj
 0001:0002d1b0       _binCollFunc               1002e1b0 f   interop.obj
 0001:0002d280       _sqlite3GetToken           1002e280 f   interop.obj
 0001:0002d83c       $LN246                     1002e83c     * CIL library *:* CIL module *
 0001:0002d8b0       _sqlite3KeywordCode        1002e8b0 f   interop.obj
 0001:0002d8d0       _whereLoopOutputAdjust     1002e8d0 f   interop.obj
 0001:0002da00       _whereLoopAdjustCost       1002ea00 f   interop.obj
 0001:0002da70       _translateColumnToCopy     1002ea70 f   interop.obj
 0001:0002db10       _estLog                    1002eb10 f   interop.obj
 0001:0002db30       _sqlite3WhereExprUsage     1002eb30 f   interop.obj
 0001:0002dc20       _isMatchOfColumn           1002ec20 f   interop.obj
 0001:0002dce0       _whereLikeOptimizationStringFixup 1002ece0 f   interop.obj
 0001:0002dd30       _addToVTrans               1002ed30 f   interop.obj
 0001:0002dd50       _sqlite3TriggerList        1002ed50 f   interop.obj
 0001:0002ddc0       _selectPopWith             1002edc0 f   interop.obj
 0001:0002ddf0       _searchWith                1002edf0 f   interop.obj
 0001:0002de60       _minMaxQuery               1002ee60 f   interop.obj
 0001:0002ded0       _substSelect               1002eed0 f   interop.obj
 0001:0002e0c0       _columnTypeImpl            1002f0c0 f   interop.obj
 0001:0002e2d0       _columnIndex               1002f2d0 f   interop.obj
 0001:0002e330       _getTempStore              1002f330 f   interop.obj
 0001:0002e380       _getLockingMode            1002f380 f   interop.obj
 0001:0002e490       _fkParentIsModified        1002f490 f   interop.obj
 0001:0002e540       _patternCompare            1002f540 f   interop.obj
 0001:0002e890       _functionSearch            1002f890 f   interop.obj
 0001:0002e8c0       _collationMatch            1002f8c0 f   interop.obj
 0001:0002e910       _sqlite3IdListIndex        1002f910 f   interop.obj
 0001:0002e950       _estimateIndexWidth        1002f950 f   interop.obj
 0001:0002e9d0       _estimateTableWidth        1002f9d0 f   interop.obj
 0001:0002ea50       _identPut                  1002fa50 f   interop.obj
 0001:0002eb10       _sqlite3AffinityType       1002fb10 f   interop.obj
 0001:0002ec50       _sqlite3FindDbName         1002fc50 f   interop.obj
 0001:0002ec90       _sampleIsBetter            1002fc90 f   interop.obj
 0001:0002ece0       _sqlite3FunctionUsesThisSrc 1002fce0 f   interop.obj
 0001:0002ed40       _sqlite3ExprCompare        1002fd40 f   interop.obj
 0001:0002ef10       _sqlite3ExprCacheClear     1002ff10 f   interop.obj
 0001:0002ef40       _sqlite3ExprCachePop       1002ff40 f   interop.obj
 0001:0002ef80       _sqlite3ExprCacheRemove    1002ff80 f   interop.obj
 0001:0002efd0       _sqlite3IsRowid            1002ffd0 f   interop.obj
 0001:0002f010       _dupedExprNodeSize         10030010 f   interop.obj
 0001:0002f070       _heightOfExprList          10030070 f   interop.obj
 0001:0002f0a0       _sqlite3ExprAffinity       100300a0 f   interop.obj
 0001:0002f120       _resolveAsName             10030120 f   interop.obj
 0001:0002f170       _exprProbability           10030170 f   interop.obj
 0001:0002f1e0       _sqlite3MatchSpanName      100301e0 f   interop.obj
 0001:0002f280       _nameInUsingClause         10030280 f   interop.obj
 0001:0002f2c0       _sqlite3WalkSelectFrom     100302c0 f   interop.obj
 0001:0002f310       _sqlite3WalkSelectExpr     10030310 f   interop.obj
 0001:0002f3a0       _sqlite3JournalOpen        100303a0 f   interop.obj
 0001:0002f410       _vdbePmaWriteBlob          10030410 f   interop.obj
 0001:0002f4e0       _vdbeSorterExtendFile      100304e0 f   interop.obj
 0001:0002f560       _vdbeSorterMapFile         10030560 f   interop.obj
 0001:0002f590       _findNextHostParameter     10030590 f   interop.obj
 0001:0002f620       _sqlite3StmtCurrentTime    10030620 f   interop.obj
 0001:0002f680       _invokeProfileCallback     10030680 f   interop.obj
 0001:0002f720       _serialGet                 10030720 f   interop.obj
 0001:0002f820       _sqlite3VdbeUsesBtree      10030820 f   interop.obj
 0001:0002f840       _sqlite3VdbeJumpHere       10030840 f   interop.obj
 0001:0002f880       _sqlite3VdbeIntegerAffinity 10030880 f   interop.obj
 0001:0002f920       _sqlite3VdbeRealValue      10030920 f   interop.obj
 0001:0002f980       _attachBackupObject        10030980 f   interop.obj
 0001:0002f9a0       _backupTruncateFile        100309a0 f   interop.obj
 0001:0002f9e0       _sqlite3BtreeGetJournalname 100309e0 f   interop.obj
 0001:0002f9f0       _sqlite3BtreeGetFilename   100309f0 f   interop.obj
 0001:0002fa10       _cachedCellSize            10030a10 f   interop.obj
 0001:0002fa30       _sqlite3BtreePayloadFetch  10030a30 f   interop.obj
 0001:0002fa40       _getCellInfo               10030a40 f   interop.obj
 0001:0002fa70       _finalDbSize               10030a70 f   interop.obj
 0001:0002faf0       _removeFromSharingList     10030af0 f   interop.obj
 0001:0002fb80       _sqlite3BtreeLastPage      10030b80 f   interop.obj
 0001:0002fb90       _btreePageFromDbPage       10030b90 f   interop.obj
 0001:0002fbd0       _btreeParseCellPtrIndex    10030bd0 f   interop.obj
 0001:0002fc60       _btreeParseCellPtr         10030c60 f   interop.obj
 0001:0002fd80       _btreeParseCellPtrNoPayload 10030d80 f   interop.obj
 0001:0002fdc0       _unlockBtreeMutex          10030dc0 f   interop.obj
 0001:0002fde0       _lockBtreeMutex            10030de0 f   interop.obj
 0001:0002fe10       _walWriteToLog             10030e10 f   interop.obj
 0001:0002fed0       _sqlite3WalReadFrame       10030ed0 f   interop.obj
 0001:0002ff20       _walMergesort              10030f20 f   interop.obj
 0001:00030040       _walFramePgno              10031040 f   interop.obj
 0001:00030070       _walUnlockExclusive        10031070 f   interop.obj
 0001:00030090       _walLockExclusive          10031090 f   interop.obj
 0001:000300c0       _walUnlockShared           100310c0 f   interop.obj
 0001:000300e0       _walLockShared             100310e0 f   interop.obj
 0001:00030100       _walDecodeFrame            10031100 f   interop.obj
 0001:000301a0       _walEncodeFrame            100311a0 f   interop.obj
 0001:00030220       _walShmBarrier             10031220 f   interop.obj
 0001:00030240       _sqlite3PagerSetCodec      10031240 f   interop.obj
 0001:000302b0       _sqlite3PagerPageRefcount  100312b0 f   interop.obj
 0001:000302c0       _sqlite3PagerMemUsed       100312c0 f   interop.obj
 0001:00030310       _sqlite3PagerSync          10031310 f   interop.obj
 0001:00030360       _databaseIsUnmoved         10031360 f   interop.obj
 0001:000303b0       _openSubJournal            100313b0 f   interop.obj
 0001:000303f0       _sqlite3PagerRef           100313f0 f   interop.obj
 0001:00030400       _pagerReleaseMapPage       10031400 f   interop.obj
 0001:00030450       _pagerSyncHotJournal       10031450 f   interop.obj
 0001:00030490       _sqlite3PagerReadFileheader 10031490 f   interop.obj
 0001:000304e0       _sqlite3PagerSetBusyhandler 100314e0 f   interop.obj
 0001:00030500       _pagerOpentemp             10031500 f   interop.obj
 0001:00030530       _sqlite3PagerShrink        10031530 f   interop.obj
 0001:00030550       _pagerFixMaplimit          10031550 f   interop.obj
 0001:000305b0       _pagerPagecount            100315b0 f   interop.obj
 0001:00030640       _pager_write_changecounter 10031640 f   interop.obj
 0001:00030670       _readDbPage                10031670 f   interop.obj
 0001:00030730       _sqlite3SectorSize         10031730 f   interop.obj
 0001:00030760       _pager_truncate            10031760 f   interop.obj
 0001:00030870       _sqlite3PagerAlignReserve  10031870 f   interop.obj
 0001:000308b0       _zeroJournalHdr            100318b0 f   interop.obj
 0001:00030980       _pagerLockDb               10031980 f   interop.obj
 0001:000309d0       _pagerUnlockDb             100319d0 f   interop.obj
 0001:00030a10       _write32bits               10031a10 f   interop.obj
 0001:00030a40       _read32bits                10031a40 f   interop.obj
 0001:00030a70       _subjRequiresPage          10031a70 f   interop.obj
 0001:00030ad0       _rowSetListToTree          10031ad0 f   interop.obj
 0001:00030b30       _rowSetEntrySort           10031b30 f   interop.obj
 0001:00030c00       _pcache1Rekey              10031c00 f   interop.obj
 0001:00030c80       _pcache1Pagecount          10031c80 f   interop.obj
 0001:00030cc0       _pcache1Init               10031cc0 f   interop.obj
 0001:00030d60       _pcache1UnderMemoryPressure 10031d60 f   interop.obj
 0001:00030d90       _pcache1MemSize            10031d90 f   interop.obj
 0001:00030dc0       _sqlite3PCachePercentDirty 10031dc0 f   interop.obj
 0001:00030e40       _sqlite3PcacheSetSpillsize 10031e40 f   interop.obj
 0001:00030ea0       _sqlite3PcacheSetCachesize 10031ea0 f   interop.obj
 0001:00030ee0       _pcacheSortDirtyList       10031ee0 f   interop.obj
 0001:00030fb0       _sqlite3PcacheMove         10031fb0 f   interop.obj
 0001:00030ff0       _sqlite3PcacheMakeClean    10031ff0 f   interop.obj
 0001:00031040       _sqlite3PcacheMakeDirty    10032040 f   interop.obj
 0001:00031070       _sqlite3PcacheDrop         10032070 f   interop.obj
 0001:000310a0       _sqlite3PcacheRelease      100320a0 f   interop.obj
 0001:000310e0       _sqlite3PcacheFetchFinish  100320e0 f   interop.obj
 0001:000310f0       _sqlite3PcacheSetPageSize  100320f0 f   interop.obj
 0001:00031180       _sqlite3PcacheOpen         10032180 f   interop.obj
 0001:000311e0       _sqlite3BitvecTest         100321e0 f   interop.obj
 0001:000311f0       _winCurrentTime            100321f0 f   interop.obj
 0001:00031240       _winSleep                  10032240 f   interop.obj
 0001:00031270       _winRandomness             10032270 f   interop.obj
 0001:00031350       _winIsVerbatimPathname     10032350 f   interop.obj
 0001:00031370       _winMakeEndInDirSep        10032370 f   interop.obj
 0001:000313c0       _winShmSystemLock          100323c0 f   interop.obj
 0001:00031420       _winShmLeaveMutex          10032420 f   interop.obj
 0001:00031450       _winShmEnterMutex          10032450 f   interop.obj
 0001:00031480       _winCheckReservedLock      10032480 f   interop.obj
 0001:000314f0       _winRetryIoerr             100324f0 f   interop.obj
 0001:00031560       _findElementWithHash       10032560 f   interop.obj
 0001:000315c0       _sqlite3LogEstFromDouble   100325c0 f   interop.obj
 0001:00031630       _sqlite3MulInt64           10032630 f   interop.obj
 0001:00031770       _sqlite3SubInt64           10032770 f   interop.obj
 0001:00031850       _sqlite3GetVarint32        10032850 f   interop.obj
 0001:000318d0       _sqlite3PutVarint          100328d0 f   interop.obj
 0001:00031930       _sqlite3Atoi               10032930 f   interop.obj
 0001:00031960       _sqlite3Atoi64             10032960 f   interop.obj
 0001:00031b50       _sqlite3TokenInit          10032b50 f   interop.obj
 0001:00031b80       _sqlite3SystemError        10032b80 f   interop.obj
 0001:00031de0       _sqlite3DbMallocSize       10032de0 f   interop.obj
 0001:00031e10       _sqlite3ScratchFree        10032e10 f   interop.obj
 0001:00031ee0       _sqlite3NoopMutex          10032ee0 f   interop.obj
 0001:00031f40       _sqlite3OsCloseFree        10032f40 f   interop.obj
 0001:00031f70       _osLocaltime               10032f70 f   interop.obj
 0001:00031f90       _computeHMS                10032f90 f   interop.obj
 0001:00032040       _setDateTimeToCurrent      10033040 f   interop.obj
 0001:00032070       _parseTimezone             10033070 f   interop.obj
 0001:00032180       _jsonEachDisconnect        10033180 f   interop.obj
 0001:000321a0       _jsonParseReset            100331a0 f   interop.obj
 0001:000321e0       _jsonReset                 100331e0 f   interop.obj
 0001:00032220       _fts5VocabDestroyMethod    10033220 f   interop.obj
 0001:00032240       _fts5VocabDisconnectMethod 10033240 f   interop.obj
 0001:00032260       _fts5Porter_MEq1           10033260 f   interop.obj
 0001:000322a0       _fts5Porter_MGt1           100332a0 f   interop.obj
 0001:000322e0       _fts5Porter_MGt0           100332e0 f   interop.obj
 0001:00032300       _fts5PorterDelete          10033300 f   interop.obj
 0001:00032330       _fts5UnicodeDelete         10033330 f   interop.obj
 0001:00032360       _fts5AsciiDelete           10033360 f   interop.obj
 0001:00032370       _fts5ModuleDestroy         10033370 f   interop.obj
 0001:000323e0       _fts5FindTokenizer         100333e0 f   interop.obj
 0001:00032430       _fts5ApiRowid              10033430 f   interop.obj
 0001:00032460       _fts5BestIndexMethod       10033460 f   interop.obj
 0001:000326e0       _fts5MultiIterAdvanced     100336e0 f   interop.obj
 0001:00032750       _fts5StructureRelease      10033750 f   interop.obj
 0001:00032790       _fts5IndexPrepareStmt      10033790 f   interop.obj
 0001:000327f0       _fts5DataRelease           100337f0 f   interop.obj
 0001:00032800       _sqlite3Fts5HashScanEntry  10033800 f   interop.obj
 0001:00032870       _sqlite3Fts5HashQuery      10033870 f   interop.obj
 0001:00032960       _sqlite3Fts5HashClear      10033960 f   interop.obj
 0001:000329c0       _sqlite3Fts5HashFree       100339c0 f   interop.obj
 0001:000329e0       _sqlite3Fts5ExprCheckPoslists 100339e0 f   interop.obj
 0001:00032a00       _fts5ExprAddChildren       10033a00 f   interop.obj
 0001:00032a50       _fts5ExprNodeTest_NOT      10033a50 f   interop.obj
 0001:00032b10       _fts5ExprNodeNext_AND      10033b10 f   interop.obj
 0001:00032b50       _fts5ExprNodeTest_OR       10033b50 f   interop.obj
 0001:00032bd0       _fts5LookaheadReaderInit   10033bd0 f   interop.obj
 0001:00032c00       _fts5ParseFree             10033c00 f   interop.obj
 0001:00032c10       _fts5ConfigSkipArgs        10033c10 f   interop.obj
 0001:00032c60       _sqlite3Fts5ConfigFree     10033c60 f   interop.obj
 0001:00032d00       _sqlite3Fts5TermsetFree    10033d00 f   interop.obj
 0001:00032d40       _sqlite3Fts5PoslistReaderInit 10033d40 f   interop.obj
 0001:00032d70       _sqlite3Fts5BufferFree     10033d70 f   interop.obj
 0001:00032d90       _vtshimAuxDestructor       10033d90 f   interop.obj
 0001:00032dd0       _vtshimDestroy             10033dd0 f   interop.obj
 0001:00032e20       _vtshimDisconnect          10033e20 f   interop.obj
 0001:00032e70       _sqlite3CodecFree          10033e70 f   interop.obj
 0001:00032ee0       _statDisconnect            10033ee0 f   interop.obj
 0001:00032f00       _rtreeFreeCallback         10033f00 f   interop.obj
 0001:00032f30       _nodeRowidIndex            10033f30 f   interop.obj
 0001:00032fa0       _freeCursorConstraints     10033fa0 f   interop.obj
 0001:00033010       _nodeGetCell               10034010 f   interop.obj
 0001:00033090       _nodeInsertCell            10034090 f   interop.obj
 0001:00033100       _unicodeClose              10034100 f   interop.obj
 0001:00033120       _unicodeDestroy            10034120 f   interop.obj
 0001:00033150       _fts3ExprLHitGather        10034150 f   interop.obj
 0001:000331a0       _fts3SnippetDetails        100341a0 f   interop.obj
 0001:00033340       _fts3SnippetAdvance        10034340 f   interop.obj
 0001:000333a0       _fts3ExprPhraseCount       100343a0 f   interop.obj
 0001:000333d0       _fts3ExprLoadDoclists      100343d0 f   interop.obj
 0001:00033430       _sqlite3Fts3MIBufferFree   10034430 f   interop.obj
 0001:00033450       _fts3MIBufferFree          10034450 f   interop.obj
 0001:00033490       _nodeReaderRelease         10034490 f   interop.obj
 0001:000334a0       _fts3NodeFree              100344a0 f   interop.obj
 0001:000334e0       _fts3PendingListDelete     100344e0 f   interop.obj
 0001:000334f0       _fts3tokResetCursor        100344f0 f   interop.obj
 0001:00033550       _fts3tokDisconnectMethod   10034550 f   interop.obj
 0001:00033570       _simpleClose               10034570 f   interop.obj
 0001:00033590       _simpleDestroy             10034590 f   interop.obj
 0001:000335b0       _porter_stemmer            100345b0 f   interop.obj
 0001:00033e60       $LN619                     10034e60     * CIL library *:* CIL module *
 0001:00033e84       $LN599                     10034e84     * CIL library *:* CIL module *
 0001:00033e98       $LN620                     10034e98     * CIL library *:* CIL module *
 0001:00033eac       $LN600                     10034eac     * CIL library *:* CIL module *
 0001:00033ebc       $LN621                     10034ebc     * CIL library *:* CIL module *
 0001:00033eec       $LN601                     10034eec     * CIL library *:* CIL module *
 0001:00033f10       _porterClose               10034f10 f   interop.obj
 0001:00033f30       _porterDestroy             10034f30 f   interop.obj
 0001:00033f50       _fts3FindElementByHash     10034f50 f   interop.obj
 0001:00033fc0       _fts3HashFree              10034fc0 f   interop.obj
 0001:00033fd0       _fts3EvalInvalidatePoslist 10034fd0 f   interop.obj
 0001:00034000       _sqlite3Fts3DoclistPrev    10035000 f   interop.obj
 0001:00034160       _fts3PoslistPhraseMerge    10035160 f   interop.obj
 0001:000344e0       _fts3ReadNextPos           100354e0 f   interop.obj
 0001:00034530       _fts3BestIndexMethod       10035530 f   interop.obj
 0001:00034710       $LN50                      10035710     * CIL library *:* CIL module *
 0001:0003471c       $LN44                      1003571c     * CIL library *:* CIL module *
 0001:00034740       _whereSortingCost          10035740 f   interop.obj
 0001:000347b0       _indexMightHelpWithOrderBy 100357b0 f   interop.obj
 0001:000348c0       _exprMightBeIndexed        100358c0 f   interop.obj
 0001:000349c0       _checkColumnOverlap        100359c0 f   interop.obj
 0001:00034aa0       _tableAndColumnIndex       10035aa0 f   interop.obj
 0001:00034b40       _getAutoVacuum             10035b40 f   interop.obj
 0001:00034bc0       _getSafetyLevel            10035bc0 f   interop.obj
 0001:00034c70       _xferCompatibleIndex       10035c70 f   interop.obj
 0001:00034d90       _sqlite3ResolvePartIdxLabel 10035d90 f   interop.obj
 0001:00034dd0       _sqlite3InsertBuiltinFuncs 10035dd0 f   interop.obj
 0001:00034e90       _decodeIntArray            10035e90 f   interop.obj
 0001:00034fe0       _sqlite3ReleaseTempRange   10035fe0 f   interop.obj
 0001:00035010       _sqlite3ExprImpliesExpr    10036010 f   interop.obj
 0001:00035090       _sqlite3ExprCacheAffinityChange 10036090 f   interop.obj
 0001:000350a0       _dupedExprSize             100360a0 f   interop.obj
 0001:000350f0       _heightOfSelect            100360f0 f   interop.obj
 0001:00035170       _sqlite3CompareAffinity    10036170 f   interop.obj
 0001:000351a0       _sqlite3WalkSelect         100361a0 f   interop.obj
 0001:00035220       _walkExpr                  10036220 f   interop.obj
 0001:000352a0       _sqlite3MemJournalOpen     100362a0 f   interop.obj
 0001:000352c0       _memjrnlFreeChunks         100362c0 f   interop.obj
 0001:000352f0       _vdbePmaWriteVarint        100362f0 f   interop.obj
 0001:00035330       _vdbePmaWriterFinish       10036330 f   interop.obj
 0001:000353c0       _computeNumericType        100363c0 f   interop.obj
 0001:00035410       _applyNumericAffinity      10036410 f   interop.obj
 0001:000354c0       _sqlite3VdbeSerialGet      100364c0 f   interop.obj
 0001:00035650       $LN15                      10036650     * CIL library *:* CIL module *
 0001:00035680       _sqlite3VdbeMemNumerify    10036680 f   interop.obj
 0001:00035700       _sqlite3VdbeMemRealify     10036700 f   interop.obj
 0001:00035730       _sqlite3VdbeIntValue       10036730 f   interop.obj
 0001:000357e0       _sqlite3BtreePayloadSize   100367e0 f   interop.obj
 0001:000357f0       _sqlite3BtreeIntegerKey    100367f0 f   interop.obj
 0001:00035800       _sqlite3BtreeClearCursor   10036800 f   interop.obj
 0001:00035820       _btreeGetHasContent        10036820 f   interop.obj
 0001:00035840       _clearAllSharedCacheTableLocks 10036840 f   interop.obj
 0001:000358b0       _sqlite3BtreeLeave         100368b0 f   interop.obj
 0001:000358d0       _btreeLockCarefully        100368d0 f   interop.obj
 0001:00035940       _sqlite3BtreeEnter         10036940 f   interop.obj
 0001:00035960       _sqlite3WalExclusiveMode   10036960 f   interop.obj
 0001:000359d0       _walWriteOneFrame          100369d0 f   interop.obj
 0001:00035a70       _sqlite3WalEndWriteTransaction 10036a70 f   interop.obj
 0001:00035ab0       _sqlite3WalBeginWriteTransaction 10036ab0 f   interop.obj
 0001:00035b40       _sqlite3WalEndReadTransaction 10036b40 f   interop.obj
 0001:00035b80       _walIndexTryHdr            10036b80 f   interop.obj
 0001:00035ce0       _walBusyLock               10036ce0 f   interop.obj
 0001:00035d30       _walIteratorFree           10036d30 f   interop.obj
 0001:00035d40       _walIndexClose             10036d40 f   interop.obj
 0001:00035d90       _walIndexWriteHdr          10036d90 f   interop.obj
 0001:00035e10       _pagerExclusiveLock        10036e10 f   interop.obj
 0001:00035e40       _sqlite3PagerRekey         10036e40 f   interop.obj
 0001:00035e60       _sqlite3PagerUnrefNotNull  10036e60 f   interop.obj
 0001:00035ea0       _sqlite3PagerLookup        10036ea0 f   interop.obj
 0001:00035ef0       _hasHotJournal             10036ef0 f   interop.obj
 0001:00036090       _pagerFreeMapHdrs          10037090 f   interop.obj
 0001:000360c0       _pager_wait_on_lock        100370c0 f   interop.obj
 0001:00036100       _sqlite3PagerSetMmapLimit  10037100 f   interop.obj
 0001:00036120       _sqlite3PagerSetSpillsize  10037120 f   interop.obj
 0001:00036130       _sqlite3PagerSetCachesize  10037130 f   interop.obj
 0001:00036140       _setSectorSize             10037140 f   interop.obj
 0001:00036180       _pagerFlushOnCommit        10037180 f   interop.obj
 0001:000361c0       _writeMasterJournal        100371c0 f   interop.obj
 0001:00036380       _writeJournalHdr           10037380 f   interop.obj
 0001:000364b0       _readMasterJournal         100374b0 f   interop.obj
 0001:00036650       _pcache1Free               10037650 f   interop.obj
 0001:00036710       _sqlite3PcacheDirtyList    10037710 f   interop.obj
 0001:00036730       _sqlite3PcacheTruncate     10037730 f   interop.obj
 0001:000367a0       _sqlite3PcacheCleanAll     100377a0 f   interop.obj
 0001:000367c0       _sqlite3BitvecDestroy      100377c0 f   interop.obj
 0001:00036800       _winIsDir                  10037800 f   interop.obj
 0001:00036890       _winShmBarrier             10037890 f   interop.obj
 0001:000368a0       _winShmLock                100378a0 f   interop.obj
 0001:00036a20       _winGetReadLock            10037a20 f   interop.obj
 0001:00036a60       _sqlite3HashFind           10037a60 f   interop.obj
 0001:00036a90       _sqlite3HashClear          10037a90 f   interop.obj
 0001:00036ae0       _sqlite3DecOrHexToI64      10037ae0 f   interop.obj
 0001:00036bf0       _sqlite3ThreadJoin         10037bf0 f   interop.obj
 0001:00036c60       _getDoubleArg              10037c60 f   interop.obj
 0001:00036c90       _measureAllocationSize     10037c90 f   interop.obj
 0001:00036cd0       _computeYMD_HMS            10037cd0 f   interop.obj
 0001:00036ce0       _parseHhMmSs               10037ce0 f   interop.obj
 0001:00036e00       _jsonEachCursorReset       10037e00 f   interop.obj
 0001:00036e50       _fts5PorterStep1B          10037e50 f   interop.obj
 0001:00036f20       _fts5PorterStep3           10037f20 f   interop.obj
 0001:000370e0       $LN185                     100380e0     * CIL library *:* CIL module *
 0001:000370fc       $LN180                     100380fc     * CIL library *:* CIL module *
 0001:00037120       _fts5PorterStep2           10038120 f   interop.obj
 0001:00037758       $LN536                     10038758     * CIL library *:* CIL module *
 0001:0003777c       $LN530                     1003877c     * CIL library *:* CIL module *
 0001:00037790       _fts5Porter_MGt1_and_S_or_T 10038790 f   interop.obj
 0001:000377b0       _fts5IndexDiscardData      100387b0 f   interop.obj
 0001:000377d0       _fts5MultiIterNext2        100387d0 f   interop.obj
 0001:00037880       _fts5DlidxIterFree         10038880 f   interop.obj
 0001:000378c0       _fts5StructureInvalidate   100388c0 f   interop.obj
 0001:000378e0       _fts5ExprNodeNext_NOT      100388e0 f   interop.obj
 0001:00037920       _fts5ExprNodeNext_OR       10038920 f   interop.obj
 0001:000379f0       _rtreeValueUp              100389f0 f   interop.obj
 0001:00037a40       _rtreeValueDown            10038a40 f   interop.obj
 0001:00037a90       _nodeParentIndex           10038a90 f   interop.obj
 0001:00037ac0       _fts3SnippetNextCandidate  10038ac0 f   interop.obj
 0001:00037c60       _sqlite3Fts3FreeDeferredTokens 10038c60 f   interop.obj
 0001:00037ca0       _sqlite3Fts3FreeDeferredDoclists 10038ca0 f   interop.obj
 0001:00037cd0       _fts3SegWriterFree         10038cd0 f   interop.obj
 0001:00037d00       _fts3tokNextMethod         10038d00 f   interop.obj
 0001:00037d50       _fts3tokCloseMethod        10038d50 f   interop.obj
 0001:00037d70       _sqlite3Fts3HashFindElem   10038d70 f   interop.obj
 0001:00037dc0       _sqlite3Fts3HashClear      10038dc0 f   interop.obj
 0001:00037e30       _hashDestroy               10038e30 f   interop.obj
 0001:00037e50       _fts3PoslistMerge          10038e50 f   interop.obj
 0001:00038090       _whereUsablePartialIndex   10039090 f   interop.obj
 0001:00038140       _sqlite3TriggerColmask     10039140 f   interop.obj
 0001:000381b0       _sqlite3TriggersExist      100391b0 f   interop.obj
 0001:00038210       _tableOfTrigger            10039210 f   interop.obj
 0001:00038240       _sqlite3GetBoolean         10039240 f   interop.obj
 0001:00038260       _sqlite3FkReferences       10039260 f   interop.obj
 0001:00038290       _sqlite3FindIndex          10039290 f   interop.obj
 0001:00038310       _sqlite3FindTable          10039310 f   interop.obj
 0001:000383a0       _findIndexOrPrimaryKey     100393a0 f   interop.obj
 0001:00038400       _sqlite3SelectExprHeight   10039400 f   interop.obj
 0001:00038420       _exprSetHeight             10039420 f   interop.obj
 0001:000384b0       _binaryCompareP5           100394b0 f   interop.obj
 0001:000384d0       _comparisonAffinity        100394d0 f   interop.obj
 0001:00038520       _sqlite3WalkExpr           10039520 f   interop.obj
 0001:00038530       _memjrnlClose              10039530 f   interop.obj
 0001:00038560       _memjrnlTruncate           10039560 f   interop.obj
 0001:000385d0       _memjrnlCreateFile         100395d0 f   interop.obj
 0001:00038760       _vdbeSorterJoinThread      10039760 f   interop.obj
 0001:000387a0       _numericType               100397a0 f   interop.obj
 0001:00038800       _doWalCallbacks            10039800 f   interop.obj
 0001:000388e0       _sqlite3VdbeRecordUnpack   100398e0 f   interop.obj
 0001:000389f0       _vdbeLeave                 100399f0 f   interop.obj
 0001:00038a50       _sqlite3VdbeEnter          10039a50 f   interop.obj
 0001:00038ab0       _sqlite3VdbeMemIntegerify  10039ab0 f   interop.obj
 0001:00038ae0       _sqlite3BtreeSchemaLocked  10039ae0 f   interop.obj
 0001:00038b20       _sqlite3BtreeGetMeta       10039b20 f   interop.obj
 0001:00038b80       _sqlite3BtreeGetAutoVacuum 10039b80 f   interop.obj
 0001:00038bc0       _sqlite3BtreeSetAutoVacuum 10039bc0 f   interop.obj
 0001:00038c30       _sqlite3BtreeSecureDelete  10039c30 f   interop.obj
 0001:00038c90       _sqlite3BtreeMaxPageCount  10039c90 f   interop.obj
 0001:00038cd0       _sqlite3BtreeGetOptimalReserve 10039cd0 f   interop.obj
 0001:00038d10       _sqlite3BtreeSetPagerFlags 10039d10 f   interop.obj
 0001:00038d50       _sqlite3BtreeSetMmapLimit  10039d50 f   interop.obj
 0001:00038da0       _sqlite3BtreeSetSpillSize  10039da0 f   interop.obj
 0001:00038de0       _sqlite3BtreeSetCacheSize  10039de0 f   interop.obj
 0001:00038e20       _releasePageNotNull        10039e20 f   interop.obj
 0001:00038e30       _btreePageLookup           10039e30 f   interop.obj
 0001:00038e70       _btreeClearHasContent      10039e70 f   interop.obj
 0001:00038e90       _sqlite3BtreeLeaveCursor   10039e90 f   interop.obj
 0001:00038eb0       _sqlite3BtreeEnterCursor   10039eb0 f   interop.obj
 0001:00038ec0       _sqlite3BtreeLeaveAll      10039ec0 f   interop.obj
 0001:00038f00       _sqlite3BtreeEnterAll      10039f00 f   interop.obj
 0001:00038f30       _walRestartHdr             10039f30 f   interop.obj
 0001:00038f90       _sqlite3PagerExclusiveLock 10039f90 f   interop.obj
 0001:00038fd0       _sqlite3PagerBegin         10039fd0 f   interop.obj
 0001:000390c0       _sqlite3PagerUnref         1003a0c0 f   interop.obj
 0001:000390d0       _syncJournal               1003a0d0 f   interop.obj
 0001:000392a0       _releaseAllSavepoints      1003a2a0 f   interop.obj
 0001:00039320       _sqlite3PageFree           1003a320 f   interop.obj
 0001:00039330       _pcache1FreePage           1003a330 f   interop.obj
 0001:00039360       _sqlite3PcacheClear        1003a360 f   interop.obj
 0001:00039370       _removeElementGivenHash    1003a370 f   interop.obj
 0001:000393d0       _getIntArg                 1003a3d0 f   interop.obj
 0001:00039400       _sqlite3DbFree             1003a400 f   interop.obj
 0001:00039450       _parseYyyyMmDd             1003a450 f   interop.obj
 0001:00039510       _jsonEachClose             1003a510 f   interop.obj
 0001:00039530       _fts5PorterStep4           1003a530 f   interop.obj
 0001:00039784       $LN714                     1003a784     * CIL library *:* CIL module *
 0001:000397b8       $LN704                     1003a7b8     * CIL library *:* CIL module *
 0001:000397e0       _fts5GetRowidLimit         1003a7e0 f   interop.obj
 0001:00039810       _fts5SegIterClear          1003a810 f   interop.obj
 0001:00039980       _statClearPage             1003a980 f   interop.obj
 0001:000399f0       _fixBoundingBox            1003a9f0 f   interop.obj
 0001:00039ae0       _AdjustTree                1003aae0 f   interop.obj
 0001:00039ba0       _sqlite3Fts3PendingTermsClear 1003aba0 f   interop.obj
 0001:00039c20       _sqlite3Fts3HashFind       1003ac20 f   interop.obj
 0001:00039c40       _fts3RemoveElementByHash   1003ac40 f   interop.obj
 0001:00039cc0       _fts3RollbackToMethod      1003acc0 f   interop.obj
 0001:00039cd0       _fts3RollbackMethod        1003acd0 f   interop.obj
 0001:00039ce0       _fts3DocidRange            1003ace0 f   interop.obj
 0001:00039d10       _fts3PoslistNearMerge      1003ad10 f   interop.obj
 0001:00039e00       _functionDestroy           1003ae00 f   interop.obj
 0001:00039e30       _sqlite3CloseSavepoints    1003ae30 f   interop.obj
 0001:00039e80       _whereLoopClearUnion       1003ae80 f   interop.obj
 0001:00039ee0       _whereAndInfoDelete        1003aee0 f   interop.obj
 0001:00039f00       _whereOrInfoDelete         1003af00 f   interop.obj
 0001:00039f20       _sqlite3VtabClear          1003af20 f   interop.obj
 0001:00039f70       _sqlite3VtabUnlock         1003af70 f   interop.obj
 0001:00039fa0       _transferParseError        1003afa0 f   interop.obj
 0001:00039fd0       _sqlite3KeyInfoUnref       1003afd0 f   interop.obj
 0001:00039ff0       _setAllPagerFlags          1003aff0 f   interop.obj
 0001:0003a030       _sqlite3CloseExtensions    1003b030 f   interop.obj
 0001:0003a070       _checkConstraintUnchanged  1003b070 f   interop.obj
 0001:0003a0c0       _sqlite3FkRequired         1003b0c0 f   interop.obj
 0001:0003a180       _sqlite3IdListDelete       1003b180 f   interop.obj
 0001:0003a1c0       _sqlite3DeleteColumnNames  1003b1c0 f   interop.obj
 0001:0003a230       _sqlite3CollapseDatabaseArray 1003b230 f   interop.obj
 0001:0003a2d0       _sqlite3DeleteIndexSamples 1003b2d0 f   interop.obj
 0001:0003a340       _sampleSetRowidInt64       1003b340 f   interop.obj
 0001:0003a370       _sampleClear               1003b370 f   interop.obj
 0001:0003a390       _sqlite3ExprCoveredByIndex 1003b390 f   interop.obj
 0001:0003a3e0       _exprIsConst               1003b3e0 f   interop.obj
 0001:0003a430       _exprListDeleteNN          1003b430 f   interop.obj
 0001:0003a4a0       _sqlite3IndexAffinityOk    1003b4a0 f   interop.obj
 0001:0003a4d0       _incrAggFunctionDepth      1003b4d0 f   interop.obj
 0001:0003a510       _vdbeIncrFree              1003b510 f   interop.obj
 0001:0003a590       _vdbeSorterJoinAll         1003b590 f   interop.obj
 0001:0003a5d0       _vdbeSorterRecordFree      1003b5d0 f   interop.obj
 0001:0003a600       _vdbePmaReaderClear        1003b600 f   interop.obj
 0001:0003a660       _sqlite3VdbeDeleteAuxData  1003b660 f   interop.obj
 0001:0003a6d0       _Cleanup                   1003b6d0 f   interop.obj
 0001:0003a6f0       _sqlite3VdbeLeave          1003b6f0 f   interop.obj
 0001:0003a700       _freeP4Mem                 1003b700 f   interop.obj
 0001:0003a720       _freeEphemeralFunction     1003b720 f   interop.obj
 0001:0003a730       _sqlite3VdbeMemFinalize    1003b730 f   interop.obj
 0001:0003a7d0       _moveToParent              1003b7d0 f   interop.obj
 0001:0003a800       _unlockBtreeIfUnused       1003b800 f   interop.obj
 0001:0003a820       _freeTempSpace             1003b820 f   interop.obj
 0001:0003a840       _releasePage               1003b840 f   interop.obj
 0001:0003a850       _btreeReleaseAllCursorPages 1003b850 f   interop.obj
 0001:0003a890       _pager_end_transaction     1003b890 f   interop.obj
 0001:0003aac0       _pager_reset               1003bac0 f   interop.obj
 0001:0003aaf0       _sqlite3RowSetClear        1003baf0 f   interop.obj
 0001:0003ab40       _pcache1TruncateUnsafe     1003bb40 f   interop.obj
 0001:0003abe0       _pcache1RemoveFromHash     1003bbe0 f   interop.obj
 0001:0003ac20       _sqlite3StrAccumReset      1003bc20 f   interop.obj
 0001:0003ac40       _parseDateOrTime           1003bc40 f   interop.obj
 0001:0003ad10       _fts5PorterCb              1003bd10 f   interop.obj
 0001:0003aea0       _fts5MultiIterFree         1003bea0 f   interop.obj
 0001:0003aef0       _fts3EvalNearTrim          1003bef0 f   interop.obj
 0001:0003af70       _whereLoopClear            1003bf70 f   interop.obj
 0001:0003afb0       _termCanDriveIndex         1003bfb0 f   interop.obj
 0001:0003b030       _callFinaliser             1003c030 f   interop.obj
 0001:0003b0b0       _sqlite3VtabCallDestroy    1003c0b0 f   interop.obj
 0001:0003b130       _sqlite3VtabUnlockList     1003c130 f   interop.obj
 0001:0003b170       _sqlite3VtabDisconnect     1003c170 f   interop.obj
 0001:0003b1a0       _sqliteViewResetAll        1003c1a0 f   interop.obj
 0001:0003b210       _stat4Destructor           1003c210 f   interop.obj
 0001:0003b2c0       _sqlite3ExprIsConstantOrFunction 1003c2c0 f   interop.obj
 0001:0003b320       _sqlite3ExprIsTableConstant 1003c320 f   interop.obj
 0001:0003b370       _sqlite3ExprIsConstantNotJoin 1003c370 f   interop.obj
 0001:0003b3c0       _sqlite3ExprIsConstant     1003c3c0 f   interop.obj
 0001:0003b410       _sqlite3ExprListDelete     1003c410 f   interop.obj
 0001:0003b420       _vdbeMergeEngineFree       1003c420 f   interop.obj
 0001:0003b470       _vdbeSortSubtaskCleanup    1003c470 f   interop.obj
 0001:0003b500       _freeP4FuncCtx             1003c500 f   interop.obj
 0001:0003b520       _vdbeMemClearExternAndSetNull 1003c520 f   interop.obj
 0001:0003b590       _sqlite3BtreeCloseCursor   1003c590 f   interop.obj
 0001:0003b650       _btreeEndTransaction       1003c650 f   interop.obj
 0001:0003b6b0       _sqlite3PagerClearCache    1003c6b0 f   interop.obj
 0001:0003b6c0       _sqlite3PagerCommitPhaseTwo 1003c6c0 f   interop.obj
 0001:0003b710       _pager_unlock              1003c710 f   interop.obj
 0001:0003b820       _sqlite3RowSetNext         1003c820 f   interop.obj
 0001:0003b880       _sqlite3PcacheReleaseMemory 1003c880 f   interop.obj
 0001:0003b910       _pcache1Truncate           1003c910 f   interop.obj
 0001:0003b960       _pcache1Unpin              1003c960 f   interop.obj
 0001:0003b9d0       _pcache1EnforceMaxPage     1003c9d0 f   interop.obj
 0001:0003ba40       _fts5PorterTokenize        1003ca40 f   interop.obj
 0001:0003ba80       _disconnectAllVtab         1003ca80 f   interop.obj
 0001:0003bb50       _whereLoopDelete           1003cb50 f   interop.obj
 0001:0003bb70       _sqlite3VtabCommit         1003cb70 f   interop.obj
 0001:0003bb80       _sqlite3VtabRollback       1003cb80 f   interop.obj
 0001:0003bb90       _sqlite3ParserReset        1003cb90 f   interop.obj
 0001:0003bbd0       _fkTriggerDelete           1003cbd0 f   interop.obj
 0001:0003bc30       _sqlite3WithDelete         1003cc30 f   interop.obj
 0001:0003bca0       _sqlite3SrcListFuncArgs    1003cca0 f   interop.obj
 0001:0003bcd0       _freeIndex                 1003ccd0 f   interop.obj
 0001:0003bd40       _sqlite3InRhsIsConstant    1003cd40 f   interop.obj
 0001:0003bd60       _sqlite3VdbeSorterReset    1003cd60 f   interop.obj
 0001:0003be20       _vdbeClrCopy               1003ce20 f   interop.obj
 0001:0003be50       _sqlite3VdbeMemSetNull     1003ce50 f   interop.obj
 0001:0003be70       _vdbeMemClear              1003ce70 f   interop.obj
 0001:0003beb0       _sqlite3BtreeCommitPhaseTwo 1003ceb0 f   interop.obj
 0001:0003bf40       _pcache1Destroy            1003cf40 f   interop.obj
 0001:0003bfc0       _pcache1Shrink             1003cfc0 f   interop.obj
 0001:0003c010       _pcache1Cachesize          1003d010 f   interop.obj
 0001:0003c080       _sqlite3MallocAlarm        1003d080 f   interop.obj
 0001:0003c0d0       _sqlite3VdbeSorterClose    1003d0d0 f   interop.obj
 0001:0003c110       _out2PrereleaseWithClear   1003d110 f   interop.obj
 0001:0003c1c0       _sqlite3VdbeMemShallowCopy 1003d1c0 f   interop.obj
 0001:0003c210       _sqlite3VdbeMemSetDouble   1003d210 f   interop.obj
 0001:0003c270       _vdbeReleaseAndSetInt64    1003d270 f   interop.obj
 0001:0003c2b0       _sqlite3ValueSetNull       1003d2b0 f   interop.obj
 0001:0003c2d0       _sqlite3VdbeMemRelease     1003d2d0 f   interop.obj
 0001:0003c2f0       _sqlite3ErrorFinish        1003d2f0 f   interop.obj
 0001:0003c340       _mallocWithAlarm           1003d340 f   interop.obj
 0001:0003c430       _jsonOom                   1003d430 f   interop.obj
 0001:0003c450       _out2Prerelease            1003d450 f   interop.obj
 0001:0003c530       _releaseMemArray           1003d530 f   interop.obj
 0001:0003c5c0       _sqlite3ValueFree          1003d5c0 f   interop.obj
 0001:0003c5f0       _sqlite3Stat4ProbeFree     1003d5f0 f   interop.obj
 0001:0003c670       _sqlite3VdbeMemMove        1003d670 f   interop.obj
 0001:0003c6c0       _sqlite3VdbeMemSetInt64    1003d6c0 f   interop.obj
 0001:0003c700       _sqlite3VdbeMemSetZeroBlob 1003d700 f   interop.obj
 0001:0003c750       _sqlite3Error              1003d750 f   interop.obj
 0001:0003c770       _apiOomError               1003d770 f   interop.obj
 0001:0003c7a0       _sqlite3Malloc             1003d7a0 f   interop.obj
 0001:0003c850       _atn2Func                  1003d850 f   interop.obj
 0001:0003c8f0       _piFunc                    1003d8f0 f   interop.obj
 0001:0003c910       _setupLookaside            1003d910 f   interop.obj
 0001:0003ca60       _vdbePmaWriterInit         1003da60 f   interop.obj
 0001:0003cae0       _vdbePmaReaderSeek         1003dae0 f   interop.obj
 0001:0003cc40       _sqlite3TransferBindings   1003dc40 f   interop.obj
 0001:0003cd00       _columnMem                 1003dd00 f   interop.obj
 0001:0003ce50       _freeP4                    1003de50 f   interop.obj
 0001:0003cf04       $LN189                     1003df04     * CIL library *:* CIL module *
 0001:0003cf24       $LN187                     1003df24     * CIL library *:* CIL module *
 0001:0003cf40       _pcache1Alloc              1003df40 f   interop.obj
 0001:0003d030       _pcache1InitBulk           1003e030 f   interop.obj
 0001:0003d100       _rehash                    1003e100 f   interop.obj
 0001:0003d1e0       _sqlite3ThreadCreate       1003e1e0 f   interop.obj
 0001:0003d290       _sqlite3ApiExit            1003e290 f   interop.obj
 0001:0003d2b0       _dbMallocRawFinish         1003e2b0 f   interop.obj
 0001:0003d2e0       _sqlite3MallocZero         1003e2e0 f   interop.obj
 0001:0003d310       _sqlite3Realloc            1003e310 f   interop.obj
 0001:0003d480       _sqlite3ScratchMalloc      1003e480 f   interop.obj
 0001:0003d580       _sqlite3OsOpenMalloc       1003e580 f   interop.obj
 0001:0003d650       _floorFunc                 1003e650 f   interop.obj
 0001:0003d700       _ceilFunc                  1003e700 f   interop.obj
 0001:0003d7b0       _signFunc                  1003e7b0 f   interop.obj
 0001:0003d8b0       _squareFunc                1003e8b0 f   interop.obj
 0001:0003d960       _statOpen                  1003e960 f   interop.obj
 0001:0003d9c0       _rtreeMatchArgFree         1003e9c0 f   interop.obj
 0001:0003daa0       _randomFunc                1003eaa0 f   interop.obj
 0001:0003db20       _analysisLoader            1003eb20 f   interop.obj
 0001:0003dc80       _vdbeIncrMergerNew         1003ec80 f   interop.obj
 0001:0003dd10       _vdbeIncrPopulate          1003ed10 f   interop.obj
 0001:0003de90       _vdbeSorterOpenTempFile    1003ee90 f   interop.obj
 0001:0003dfb0       _vdbeMergeEngineNew        1003efb0 f   interop.obj
 0001:0003e040       _vdbeSorterCreateThread    1003f040 f   interop.obj
 0001:0003e060       _vdbePmaReadBlob           1003f060 f   interop.obj
 0001:0003e220       _columnMallocFailure       1003f220 f   interop.obj
 0001:0003e260       _sqlite3VdbeChangeToNoop   1003f260 f   interop.obj
 0001:0003e2b0       _vdbeFreeOpArray           1003f2b0 f   interop.obj
 0001:0003e320       _setSharedCacheTableLock   1003f320 f   interop.obj
 0001:0003e390       _sqlite3WalOpen            1003f390 f   interop.obj
 0001:0003e4b0       _pagerOpenWal              1003f4b0 f   interop.obj
 0001:0003e520       _pagerAcquireMapPage       1003f520 f   interop.obj
 0001:0003e600       _pager_delmaster           1003f600 f   interop.obj
 0001:0003e850       _pcache1ResizeHash         1003f850 f   interop.obj
 0001:0003e960       _sqlite3PageMalloc         1003f960 f   interop.obj
 0001:0003e970       _pcache1AllocPage          1003f970 f   interop.obj
 0001:0003ea40       _sqlite3BitvecCreate       1003fa40 f   interop.obj
 0001:0003ea80       _winUnicodeToMbcs          1003fa80 f   interop.obj
 0001:0003eb10       _winMbcsToUnicode          1003fb10 f   interop.obj
 0001:0003eba0       _winUnicodeToUtf8          1003fba0 f   interop.obj
 0001:0003ec30       _winUtf8ToUnicode          1003fc30 f   interop.obj
 0001:0003ecb0       _sqlite3HashInsert         1003fcb0 f   interop.obj
 0001:0003ed90       _sqlite3DbMallocRawNN      1003fd90 f   interop.obj
 0001:0003ee20       _sqlite3DbMallocRaw        1003fe20 f   interop.obj
 0001:0003ee50       _sqlite3DbMallocZero       1003fe50 f   interop.obj
 0001:0003eec0       _jsonGrow                  1003fec0 f   interop.obj
 0001:0003efa0       _fts3TokenizerEnabled      1003ffa0 f   interop.obj
 0001:0003efd0       _whereLoopResize           1003ffd0 f   interop.obj
 0001:0003f050       _sqlite3VtabMakeWritable   10040050 f   interop.obj
 0001:0003f0f0       _triggerStepAllocate       100400f0 f   interop.obj
 0001:0003f140       _sqlite3KeyInfoAlloc       10040140 f   interop.obj
 0001:0003f1d0       _autoIncBegin              100401d0 f   interop.obj
 0001:0003f250       _sqlite3IndexAffinityStr   10040250 f   interop.obj
 0001:0003f320       _sqlite3FkDelete           10040320 f   interop.obj
 0001:0003f3b0       _sqlite3FindFunction       100403b0 f   interop.obj
 0001:0003f580       _findCollSeqEntry          10040580 f   interop.obj
 0001:0003f660       _sqlite3AllocateIndexObject 10040660 f   interop.obj
 0001:0003f6e0       _resizeIndexObject         100406e0 f   interop.obj
 0001:0003f770       _deleteTable               10040770 f   interop.obj
 0001:0003f830       _sqlite3UnlinkAndDeleteIndex 10040830 f   interop.obj
 0001:0003f8c0       _sampleSetRowid            100408c0 f   interop.obj
 0001:0003f920       _sqlite3ExprAlloc          10040920 f   interop.obj
 0001:0003fa10       _sqlite3ExprAddCollateToken 10040a10 f   interop.obj
 0001:0003fa50       _sqlite3CreateColumnExpr   10040a50 f   interop.obj
 0001:0003fae0       _vdbeSorterAddToTree       10040ae0 f   interop.obj
 0001:0003fbf0       _vdbeIncrPopulateThread    10040bf0 f   interop.obj
 0001:0003fc10       _sqlite3VdbeSorterInit     10040c10 f   interop.obj
 0001:0003fdd0       _vdbePmaReadVarint         10040dd0 f   interop.obj
 0001:00040080       _sqlite3VdbeAllocUnpackedRecord 10041080 f   interop.obj
 0001:00040100       _sqlite3VdbeClearObject    10041100 f   interop.obj
 0001:000401c0       _sqlite3VdbeSetNumCols     100411c0 f   interop.obj
 0001:00040240       _sqlite3VdbeDeletePriorOpcode 10041240 f   interop.obj
 0001:00040270       _sqlite3VdbeCreate         10041270 f   interop.obj
 0001:000402c0       _sqlite3ValueNew           100412c0 f   interop.obj
 0001:000402f0       _sqlite3VdbeMemSetRowSet   100412f0 f   interop.obj
 0001:00040380       _sqlite3BtreeLockTable     10041380 f   interop.obj
 0001:000403f0       _sqlite3BtreeSchema        100413f0 f   interop.obj
 0001:00040440       _allocateTempSpace         10041440 f   interop.obj
 0001:00040470       _walIndexPage              10041470 f   interop.obj
 0001:000405a0       _sqlite3PagerOpenWal       100415a0 f   interop.obj
 0001:00040600       _pagerOpenSavepoint        10041600 f   interop.obj
 0001:000406f0       _pager_open_journal        100416f0 f   interop.obj
 0001:00040800       _sqlite3PagerSetPagesize   10041800 f   interop.obj
 0001:00040930       _pagerOpenWalIfPresent     10041930 f   interop.obj
 0001:000409c0       _readJournalHdr            100419c0 f   interop.obj
 0001:00040bf0       _rowSetEntryAlloc          10041bf0 f   interop.obj
 0001:00040c40       _pcache1FetchStage2        10041c40 f   interop.obj
 0001:00040d80       _pcache1Create             10041d80 f   interop.obj
 0001:00040e70       _sqlite3BitvecSet          10041e70 f   interop.obj
 0001:00040fd0       _winUtf8ToMbcs             10041fd0 f   interop.obj
 0001:00041010       _winMbcsToUtf8             10042010 f   interop.obj
 0001:00041050       _sqlite3HexToBlob          10042050 f   interop.obj
 0001:000410e0       _sqlite3StrAccumFinish     100420e0 f   interop.obj
 0001:00041160       _sqlite3DbStrNDup          10042160 f   interop.obj
 0001:000411b0       _sqlite3DbStrDup           100421b0 f   interop.obj
 0001:00041210       _dbReallocFinish           10042210 f   interop.obj
 0001:000412c0       _sqlite3DbRealloc          100422c0 f   interop.obj
 0001:00041320       _jsonAppendString          10042320 f   interop.obj
 0001:000414e0       _jsonAppendChar            100424e0 f   interop.obj
 0001:00041520       _jsonAppendRaw             10042520 f   interop.obj
 0001:00041570       _fts5RowidMethod           10042570 f   interop.obj
 0001:00041610       $LN101                     10042610     * CIL library *:* CIL module *
 0001:000416b0       _langidFromSelect          100426b0 f   interop.obj
 0001:000416f0       _whereLoopXfer             100426f0 f   interop.obj
 0001:00041790       _sqlite3IndexColumnAffinity 10042790 f   interop.obj
 0001:000417c0       _sqlite3VtabOverloadFunction 100427c0 f   interop.obj
 0001:00041940       _growVTrans                10042940 f   interop.obj
 0001:000419b0       _addModuleArgument         100429b0 f   interop.obj
 0001:00041a10       _sqlite3IsLikeFunction     10042a10 f   interop.obj
 0001:00041a70       _setLikeOptFlag            10042a70 f   interop.obj
 0001:00041a90       _sqlite3FindCollSeq        10042a90 f   interop.obj
 0001:00041ad0       _synthCollSeq              10042ad0 f   interop.obj
 0001:00041b50       _sqlite3SrcListEnlarge     10042b50 f   interop.obj
 0001:00041c80       _sqlite3ArrayAllocate      10042c80 f   interop.obj
 0001:00041d00       _sqlite3NameFromToken      10042d00 f   interop.obj
 0001:00041d60       _sqlite3DeleteTable        10042d60 f   interop.obj
 0001:00041d90       _sampleCopy                10042d90 f   interop.obj
 0001:00041e40       _addAggInfoFunc            10042e40 f   interop.obj
 0001:00041e70       _addAggInfoColumn          10042e70 f   interop.obj
 0001:00041ea0       _sqlite3ExprListSetSpan    10042ea0 f   interop.obj
 0001:00041f20       _sqlite3ExprListSetName    10042f20 f   interop.obj
 0001:00041fa0       _sqlite3IdListDup          10042fa0 f   interop.obj
 0001:00042040       _sqlite3ExprListDup        10043040 f   interop.obj
 0001:00042150       _withDup                   10043150 f   interop.obj
 0001:00042210       _sqlite3Expr               10043210 f   interop.obj
 0001:00042260       _sqlite3ExprAddCollateString 10043260 f   interop.obj
 0001:000422c0       _vdbeIncrBgPopulate        100432c0 f   interop.obj
 0001:000422e0       _vdbeSortAllocUnpacked     100432e0 f   interop.obj
 0001:00042340       _sqlite3VtabImportErrmsg   10043340 f   interop.obj
 0001:00042380       _sqlite3VdbeDelete         10043380 f   interop.obj
 0001:000423d0       _vdbeChangeP4Full          100433d0 f   interop.obj
 0001:000424b0       _growOpArray               100434b0 f   interop.obj
 0001:00042540       _sqlite3VdbeSetSql         10043540 f   interop.obj
 0001:000425b0       _backupOnePage             100435b0 f   interop.obj
 0001:00042790       _btreeCursor               10043790 f   interop.obj
 0001:00042830       _sqlite3BtreeSetPageSize   10043830 f   interop.obj
 0001:000428f0       _btreeSetHasContent        100438f0 f   interop.obj
 0001:00042aa0       _walHashGet                10043aa0 f   interop.obj
 0001:00042af0       _sqlite3PagerOpenSavepoint 10043af0 f   interop.obj
 0001:00042b10       _addToSavepointBitvecs     10043b10 f   interop.obj
 0001:00042d00       _sqlite3RowSetTest         10043d00 f   interop.obj
 0001:00042e20       _sqlite3RowSetInsert       10043e20 f   interop.obj
 0001:00042e80       _pcache1FetchNoMutex       10043e80 f   interop.obj
 0001:00042ed0       _sqlite3BitvecBuiltinTest  10043ed0 f   interop.obj
 0001:000430f0       _winConvertFromUtf8Filename 100440f0 f   interop.obj
 0001:000431a0       _sqlite3StrAccumEnlarge    100441a0 f   interop.obj
 0001:000432f0       _sqlite3SetString          100442f0 f   interop.obj
 0001:00043320       _sqlite3DbReallocOrFree    10044320 f   interop.obj
 0001:00043350       _jsonAppendSeparator       10044350 f   interop.obj
 0001:00043380       _jsonPrintf                10044380 f   interop.obj
 0001:000433f0       _whereLoopInsert           100443f0 f   interop.obj
 0001:00043510       _sqlite3VtabEponymousTableClear 10044510 f   interop.obj
 0001:00043550       _sqlite3VtabBegin          10044550 f   interop.obj
 0001:00043620       _sqlite3VtabSync           10044620 f   interop.obj
 0001:00043690       _addArgumentToVtab         10044690 f   interop.obj
 0001:00043710       _exprTableColumn           10044710 f   interop.obj
 0001:00043760       _exprTableRegister         10044760 f   interop.obj
 0001:00043800       _sqlite3SrcListIndexedBy   10044800 f   interop.obj
 0001:00043850       _sqlite3SrcListDelete      10044850 f   interop.obj
 0001:00043940       _sqlite3SrcListAppend      10044940 f   interop.obj
 0001:000439f0       _sqlite3IdListAppend       100449f0 f   interop.obj
 0001:00043a60       _sqlite3FindDb             10044a60 f   interop.obj
 0001:00043a90       _sqlite3UnlinkAndDeleteTable 10044a90 f   interop.obj
 0001:00043ae0       _sqlite3TableLock          10044ae0 f   interop.obj
 0001:00043be0       _sampleInsert              10044be0 f   interop.obj
 0001:00043db0       _analyzeAggregate          10044db0 f   interop.obj
 0001:00044030       _sqlite3SrcListDup         10045030 f   interop.obj
 0001:000441b0       _vdbeIncrSwap              100451b0 f   interop.obj
 0001:00044230       _vdbePmaReaderNext         10045230 f   interop.obj
 0001:000442d0       _sqlite3VdbeChangeP4       100452d0 f   interop.obj
 0001:00044360       _sqlite3VdbeAddOpList      10045360 f   interop.obj
 0001:00044410       _sqlite3VdbeMakeLabel      10045410 f   interop.obj
 0001:00044480       _growOp3                   10045480 f   interop.obj
 0001:000444c0       _sqlite3VdbeMemGrow        100454c0 f   interop.obj
 0001:00044620       _backupUpdate              10045620 f   interop.obj
 0001:000446a0       _setDestPgsz               100456a0 f   interop.obj
 0001:000446c0       _sqlite3BtreeBeginStmt     100456c0 f   interop.obj
 0001:00044710       _walIteratorInit           10045710 f   interop.obj
 0001:000448f0       _walCleanupHash            100458f0 f   interop.obj
 0001:000449a0       _pagerAddPageToRollbackJournal 100459a0 f   interop.obj
 0001:00044c80       _subjournalPage            10045c80 f   interop.obj
 0001:00044d60       _pcache1FetchWithMutex     10045d60 f   interop.obj
 0001:00044db0       _winDlOpen                 10045db0 f   interop.obj
 0001:00044e00       _enlargeAndAppend          10045e00 f   interop.obj
 0001:00044e40       _sqlite3AppendChar         10045e40 f   interop.obj
 0001:00044e90       _jsonEachComputePath       10045e90 f   interop.obj
 0001:00044f30       _sqlite3VtabArgInit        10045f30 f   interop.obj
 0001:00044f50       _targetSrcList             10045f50 f   interop.obj
 0001:00044fe0       _clearSelect               10045fe0 f   interop.obj
 0001:000450a0       _createTableStmt           100460a0 f   interop.obj
 0001:000452c0       _samplePushPrevious        100462c0 f   interop.obj
 0001:00045380       _sqlite3ExprAnalyzeAggregates 10046380 f   interop.obj
 0001:000453c0       _sqlite3SelectDup          100463c0 f   interop.obj
 0001:00045520       _exprDup                   10046520 f   interop.obj
 0001:00045780       _sqlite3VdbeSorterNext     10046780 f   interop.obj
 0001:00045810       _vdbePmaReaderIncrMergeInit 10046810 f   interop.obj
 0001:00045920       _vdbePmaReaderInit         10046920 f   interop.obj
 0001:00045990       _sqlite3VdbeAddOp3         10046990 f   interop.obj
 0001:00045a00       _vdbeMemAddTerminator      10046a00 f   interop.obj
 0001:00045a40       _sqlite3VdbeMemExpandBlob  10046a40 f   interop.obj
 0001:00045aa0       _sqlite3VdbeMemMakeWriteable 10046aa0 f   interop.obj
 0001:00045b10       _sqlite3VdbeMemClearAndResize 10046b10 f   interop.obj
 0001:00045b20       _sqlite3BackupUpdate       10046b20 f   interop.obj
 0001:00045b40       _sqlite3WalSavepointUndo   10046b40 f   interop.obj
 0001:00045b80       _sqlite3WalUndo            10046b80 f   interop.obj
 0001:00045c00       _walCheckpoint             10046c00 f   interop.obj
 0001:00045fd0       _subjournalPageIfRequired  10046fd0 f   interop.obj
 0001:00045ff0       _pager_write_pagelist      10046ff0 f   interop.obj
 0001:00046170       _pager_playback_one_page   10047170 f   interop.obj
 0001:000466c0       _pcache1Fetch              100476c0 f   interop.obj
 0001:000466f0       _winGetLastErrorMsg        100476f0 f   interop.obj
 0001:000467a0       _sqlite3VdbeMemHandleBom   100477a0 f   interop.obj
 0001:00046820       _sqlite3VdbeMemTranslate   10047820 f   interop.obj
 0001:00046d00       _sqlite3StrAccumAppend     10047d00 f   interop.obj
 0001:00046d40       _codeDeferredSeek          10047d40 f   interop.obj
 0001:00046e10       _codeOffset                10047e10 f   interop.obj
 0001:00046e30       _sqlite3SelectDelete       10047e30 f   interop.obj
 0001:00046e50       _sqlite3ChangeCookie       10047e50 f   interop.obj
 0001:00046e80       _sqlite3ExprAnalyzeAggList 10047e80 f   interop.obj
 0001:00046ec0       _sqlite3ExprCodeMove       10047ec0 f   interop.obj
 0001:00046ef0       _sqlite3ExprDup            10047ef0 f   interop.obj
 0001:00046f20       _sqlite3ExprDeleteNN       10047f20 f   interop.obj
 0001:00046fb0       _sqlite3VdbeSorterRowkey   10047fb0 f   interop.obj
 0001:00047030       _vdbeMergeEngineLevel0     10048030 f   interop.obj
 0001:00047100       _vdbePmaReaderBgIncrInit   10048100 f   interop.obj
 0001:00047130       _createAggContext          10048130 f   interop.obj
 0001:000471c0       _sqlite3VdbeAddOp4Int      100481c0 f   interop.obj
 0001:000471f0       _sqlite3VdbeAddOp4         100481f0 f   interop.obj
 0001:00047220       _sqlite3VdbeLoadString     10048220 f   interop.obj
 0001:00047260       _sqlite3VdbeGoto           10048260 f   interop.obj
 0001:00047280       _sqlite3VdbeAddOp2         10048280 f   interop.obj
 0001:000472a0       _sqlite3VdbeAddOp1         100482a0 f   interop.obj
 0001:000472c0       _sqlite3VdbeAddOp0         100482c0 f   interop.obj
 0001:000472d0       _sqlite3VdbeMemSetStr      100482d0 f   interop.obj
 0001:000474f0       _sqlite3VdbeMemCopy        100484f0 f   interop.obj
 0001:00047560       _sqlite3VdbeMemNulTerminate 10048560 f   interop.obj
 0001:00047580       _sqlite3VdbeChangeEncoding 10048580 f   interop.obj
 0001:000475a0       _pager_write               100485a0 f   interop.obj
 0001:00047630       _winGetLastError           10048630 f   interop.obj
 0001:00047660       _winDlError                10048660 f   interop.obj
 0001:00047680       _sqlite3Utf16to8           10048680 f   interop.obj
 0001:00047700       _sqlite3StrAccumAppendAll  10048700 f   interop.obj
 0001:00047740       _codeEqualityTerm          10048740 f   interop.obj
 0001:00047930       _codeApplyAffinity         10048930 f   interop.obj
 0001:000479b0       _explainAppendTerm         100489b0 f   interop.obj
 0001:00047a20       _sqlite3TriggerInsertStep  10048a20 f   interop.obj
 0001:00047a90       _sqlite3TriggerSelectStep  10048a90 f   interop.obj
 0001:00047ae0       _finalizeAggFunctions      10048ae0 f   interop.obj
 0001:00047b50       _generateOutputSubroutine  10048b50 f   interop.obj
 0001:00047e8c       $LN141                     10048e8c     * CIL library *:* CIL module *
 0001:00047ea0       _allocVdbe                 10048ea0 f   interop.obj
 0001:00047ef0       _codeDistinct              10048ef0 f   interop.obj
 0001:00047f70       _autoIncStep               10048f70 f   interop.obj
 0001:00047fa0       _sqlite3TableAffinity      10048fa0 f   interop.obj
 0001:00048080       _callStatGet               10049080 f   interop.obj
 0001:000480f0       _sqlite3SetHasNullFlag     100490f0 f   interop.obj
 0001:00048160       _sqlite3ExprDelete         10049160 f   interop.obj
 0001:00048180       _sqlite3ExprAttachSubtrees 10049180 f   interop.obj
 0001:000481f0       _resolveAlias              100491f0 f   interop.obj
 0001:000482c0       _vdbeSorterMergeTreeBuild  100492c0 f   interop.obj
 0001:000484a0       _vdbePmaReaderIncrInit     100494a0 f   interop.obj
 0001:000484d0       _vdbeMergeEngineInit       100494d0 f   interop.obj
 0001:000486c0       _invokeValueDestructor     100496c0 f   interop.obj
 0001:00048710       _setResultStrOrError       10049710 f   interop.obj
 0001:00048750       _sqlite3VdbeSetColName     10049750 f   interop.obj
 0001:00048790       _sqlite3VdbeEndCoroutine   10049790 f   interop.obj
 0001:000487c0       _sqlite3VdbeAddParseSchemaOp 100497c0 f   interop.obj
 0001:00048830       _sqlite3VdbeAddOp4Dup8     10049830 f   interop.obj
 0001:00048890       _sqlite3VdbeMultiLoad      10049890 f   interop.obj
 0001:00048910       _sqlite3ValueSetStr        10049910 f   interop.obj
 0001:00048930       _sqlite3VdbeMemStringify   10049930 f   interop.obj
 0001:00048a10       _localtimeOffset           10049a10 f   interop.obj
 0001:00048bc0       _percentFinal              10049bc0 f   interop.obj
 0001:00048cd0       _fts5ExprFold              10049cd0 f   interop.obj
 0001:00048d60       _fts5ExprIsAlnum           10049d60 f   interop.obj
 0001:00048db0       _varianceFinalize          10049db0 f   interop.obj
 0001:00048e20       _stdevFinalize             10049e20 f   interop.obj
 0001:00048ea0       __medianFinalize           10049ea0 f   interop.obj
 0001:00048fb0       _modeFinalize              10049fb0 f   interop.obj
 0001:00049080       _modeStep                  1004a080 f   interop.obj
 0001:000491b0       _varianceStep              1004a1b0 f   interop.obj
 0001:00049250       _powerFunc                 1004a250 f   interop.obj
 0001:00049340       _deg2radFunc               1004a340 f   interop.obj
 0001:00049410       _rad2degFunc               1004a410 f   interop.obj
 0001:000494e0       _expFunc                   1004a4e0 f   interop.obj
 0001:000495a0       _log10Func                 1004a5a0 f   interop.obj
 0001:00049660       _logFunc                   1004a660 f   interop.obj
 0001:00049720       _cothFunc                  1004a720 f   interop.obj
 0001:00049800       _tanhFunc                  1004a800 f   interop.obj
 0001:000498d0       _coshFunc                  1004a8d0 f   interop.obj
 0001:000499a0       _sinhFunc                  1004a9a0 f   interop.obj
 0001:00049a70       _cotFunc                   1004aa70 f   interop.obj
 0001:00049b40       _tanFunc                   1004ab40 f   interop.obj
 0001:00049c00       _cosFunc                   1004ac00 f   interop.obj
 0001:00049cc0       _sinFunc                   1004acc0 f   interop.obj
 0001:00049d80       _atanhFunc                 1004ad80 f   interop.obj
 0001:00049e60       _asinhFunc                 1004ae60 f   interop.obj
 0001:00049f40       _acoshFunc                 1004af40 f   interop.obj
 0001:0004a020       _atanFunc                  1004b020 f   interop.obj
 0001:0004a0e0       _asinFunc                  1004b0e0 f   interop.obj
 0001:0004a1a0       _acosFunc                  1004b1a0 f   interop.obj
 0001:0004a260       _sqrtFunc                  1004b260 f   interop.obj
 0001:0004a320       _binaryToUnaryIfNull       1004b320 f   interop.obj
 0001:0004a360       _sqlite3WhereClauseClear   1004b360 f   interop.obj
 0001:0004a3e0       _whereClauseInsert         1004b3e0 f   interop.obj
 0001:0004a540       _codeAllEqualityTerms      1004b540 f   interop.obj
 0001:0004a790       _sqlite3TriggerDeleteStep  1004b790 f   interop.obj
 0001:0004a7f0       _sqlite3TriggerUpdateStep  1004b7f0 f   interop.obj
 0001:0004a870       _sqlite3DeleteTriggerStep  1004b870 f   interop.obj
 0001:0004a8e0       _substExpr                 1004b8e0 f   interop.obj
 0001:0004aa10       _sqlite3GetVdbe            1004ba10 f   interop.obj
 0001:0004aa20       _generateColumnTypes       1004ba20 f   interop.obj
 0001:0004ab40       _setAllColumnNames         1004bb40 f   interop.obj
 0001:0004aba0       _sqlite3CompleteInsertion  1004bba0 f   interop.obj
 0001:0004ad50       _readsTable                1004bd50 f   interop.obj
 0001:0004ae20       _minMaxFinalize            1004be20 f   interop.obj
 0001:0004ae80       _countFinalize             1004be80 f   interop.obj
 0001:0004af00       _countStep                 1004bf00 f   interop.obj
 0001:0004af50       _totalFinalize             1004bf50 f   interop.obj
 0001:0004afa0       _avgFinalize               1004bfa0 f   interop.obj
 0001:0004b000       _sumFinalize               1004c000 f   interop.obj
 0001:0004b0c0       _sumStep                   1004c0c0 f   interop.obj
 0001:0004b1f0       _zeroblobFunc              1004c1f0 f   interop.obj
 0001:0004b260       _contextMalloc             1004c260 f   interop.obj
 0001:0004b2d0       _absFunc                   1004c2d0 f   interop.obj
 0001:0004b3d0       _sqlite3HaltConstraint     1004c3d0 f   interop.obj
 0001:0004b450       _sqlite3OpenMasterTable    1004c450 f   interop.obj
 0001:0004b4c0       _codeTableLocks            1004c4c0 f   interop.obj
 0001:0004b550       _loadAnalysis              1004c550 f   interop.obj
 0001:0004b580       _sqlite3ExprIfFalseDup     1004c580 f   interop.obj
 0001:0004b5e0       _sqlite3ExprCodeCopy       1004c5e0 f   interop.obj
 0001:0004b630       _codeReal                  1004c630 f   interop.obj
 0001:0004b6f0       _sqlite3CodeOnce           1004c6f0 f   interop.obj
 0001:0004b720       _sqlite3ExprListAppend     1004c720 f   interop.obj
 0001:0004b7e0       _sqlite3ExprAnd            1004c7e0 f   interop.obj
 0001:0004b8c0       _applyAffinity             1004c8c0 f   interop.obj
 0001:0004bb90       _sqlite3VdbeTransferError  1004cb90 f   interop.obj
 0001:0004bc40       _recordFunc                1004cc40 f   interop.obj
 0001:0004bd50       _valueToText               1004cd50 f   interop.obj
 0001:0004bdf0       _parseModifier             1004cdf0 f   interop.obj
 0001:0004c690       $LN296                     1004d690     * CIL library *:* CIL module *
 0001:0004c6a8       $LN236                     1004d6a8     * CIL library *:* CIL module *
 0001:0004c700       _jsonObjectFinal           1004d700 f   interop.obj
 0001:0004c7e0       _jsonArrayFinal            1004d7e0 f   interop.obj
 0001:0004c8f0       _jsonResult                1004d8f0 f   interop.obj
 0001:0004c950       _fts5VocabColumnMethod     1004d950 f   interop.obj
 0001:0004ca40       _fts5SourceIdFunc          1004da40 f   interop.obj
 0001:0004ca80       _fts5Fts5Func              1004da80 f   interop.obj
 0001:0004cac0       _upper_quartileFinalize    1004dac0 f   interop.obj
 0001:0004cb30       _lower_quartileFinalize    1004db30 f   interop.obj
 0001:0004cb80       _medianFinalize            1004db80 f   interop.obj
 0001:0004cbd0       _statColumn                1004dbd0 f   interop.obj
 0001:0004cda4       $LN226                     1004dda4     * CIL library *:* CIL module *
 0001:0004cdd0       _fts3tokColumnMethod       1004ddd0 f   interop.obj
 0001:0004ce84       $LN48                      1004de84     * CIL library *:* CIL module *
 0001:0004cea0       _fts3auxColumnMethod       1004dea0 f   interop.obj
 0001:0004cfa4       $LN57                      1004dfa4     * CIL library *:* CIL module *
 0001:0004cfc0       _yy_destructor             1004dfc0 f   interop.obj
 0001:0004d080       $LN283                     1004e080     * CIL library *:* CIL module *
 0001:0004d0a4       $LN280                     1004e0a4     * CIL library *:* CIL module *
 0001:0004d100       _whereInfoFree             1004e100 f   interop.obj
 0001:0004d1a0       _sqlite3WhereSplit         1004e1a0 f   interop.obj
 0001:0004d210       _whereCombineDisjuncts     1004e210 f   interop.obj
 0001:0004d320       _sqlite3Vacuum             1004e320 f   interop.obj
 0001:0004d360       _sqlite3DeleteTrigger      1004e360 f   interop.obj
 0001:0004d3c0       _pushDownWhereTerms        1004e3c0 f   interop.obj
 0001:0004d490       _computeLimitRegisters     1004e490 f   interop.obj
 0001:0004d5d0       _generateSortTail          1004e5d0 f   interop.obj
 0001:0004d9c0       _sqlite3SelectNew          1004e9c0 f   interop.obj
 0001:0004dae0       _setOneColumnName          1004eae0 f   interop.obj
 0001:0004db00       _groupConcatFinalize       1004eb00 f   interop.obj
 0001:0004db90       _charFunc                  1004eb90 f   interop.obj
 0001:0004dcd0       _compileoptiongetFunc      1004ecd0 f   interop.obj
 0001:0004dd30       _sourceidFunc              1004ed30 f   interop.obj
 0001:0004dd70       _versionFunc               1004ed70 f   interop.obj
 0001:0004ddb0       _randomBlob                1004edb0 f   interop.obj
 0001:0004de30       _typeofFunc                1004ee30 f   interop.obj
 0001:0004deac       $LN153                     1004eeac     * CIL library *:* CIL module *
 0001:0004dec0       _sqlite3SchemaClear        1004eec0 f   interop.obj
 0001:0004dfb0       _sqlite3AddCheckConstraint 1004efb0 f   interop.obj
 0001:0004e040       _sqlite3ResetAllSchemasOfConnection 1004f040 f   interop.obj
 0001:0004e0a0       _sqlite3ResetOneSchema     1004f0a0 f   interop.obj
 0001:0004e0e0       _statInit                  1004f0e0 f   interop.obj
 0001:0004e280       _sqlite3ExprCodeAtInit     1004f280 f   interop.obj
 0001:0004e2f0       _sqlite3ValueApplyAffinity 1004f2f0 f   interop.obj
 0001:0004e310       _sqlite3VdbeGetBoundValue  1004f310 f   interop.obj
 0001:0004e380       _valueBytes                1004f380 f   interop.obj
 0001:0004e3a0       _sqlite3AnalyzeFunctions   1004f3a0 f   interop.obj
 0001:0004e3b0       _sqlite3ValueText          1004f3b0 f   interop.obj
 0001:0004e3f0       _sqlite3VdbeMemCast        1004f3f0 f   interop.obj
 0001:0004e4c8       $LN136                     1004f4c8     * CIL library *:* CIL module *
 0001:0004e750       $LN279                     1004f750     * CIL library *:* CIL module *
 0001:0004e7b0       _yy_pop_parser_stack       1004f7b0 f   interop.obj
 0001:0004e7d0       _sqlite3WhereEnd           1004f7d0 f   interop.obj
 0001:0004ec70       _sqlite3UnlinkAndDeleteTrigger 1004fc70 f   interop.obj
 0001:0004ece0       _returnSingleText          1004fce0 f   interop.obj
 0001:0004ed50       _returnSingleInt           1004fd50 f   interop.obj
 0001:0004edd0       _sqlite3SchemaGet          1004fdd0 f   interop.obj
 0001:0004eea0       _callCollNeeded            1004fea0 f   interop.obj
 0001:0004ef60       _sqlite3ExprCodeExprList   1004ff60 f   interop.obj
 0001:0004f0b0       _sqlite3ExprCodeTemp       100500b0 f   interop.obj
 0001:0004f230       _vdbeCompareMemString      10050230 f   interop.obj
 0001:0004f340       _sqlite3ValueBytes         10050340 f   interop.obj
 0001:0004f380       _getTextArg                10050380 f   interop.obj
 0001:0004f3b0       _isDate                    100503b0 f   interop.obj
 0001:0004f4a0       _fts5RowidFunction         100504a0 f   interop.obj
 0001:0004f570       _differenceFunc            10050570 f   interop.obj
 0001:0004f690       _charindexFunc             10050690 f   interop.obj
 0001:0004f760       _sqlite3ParserFree         10050760 f   interop.obj
 0001:0004f790       _isLikeOrGlob              10050790 f   interop.obj
 0001:0004fa00       _soundexFunc               10050a00 f   interop.obj
 0001:0004fb60       _unicodeFunc               10050b60 f   interop.obj
 0001:0004fba0       _statGet                   10050ba0 f   interop.obj
 0001:0004fe60       _exprCodeBetween           10050e60 f   interop.obj
 0001:00050010       _sqlite3MemCompare         10051010 f   interop.obj
 0001:00050150       _sqlite3VXPrintf           10051150 f   interop.obj
 0001:00051128       $LN1141                    10052128     * CIL library *:* CIL module *
 0001:00051144       $LN1070                    10052144     * CIL library *:* CIL module *
 0001:00051158       $LN1142                    10052158     * CIL library *:* CIL module *
 0001:000511a0       _strftimeFunc              100521a0 f   interop.obj
 0001:00051650       $LN284                     10052650     * CIL library *:* CIL module *
 0001:00051668       $LN271                     10052668     * CIL library *:* CIL module *
 0001:000516bc       $LN285                     100526bc     * CIL library *:* CIL module *
 0001:000516ec       $LN274                     100526ec     * CIL library *:* CIL module *
 0001:00051720       _dateFunc                  10052720 f   interop.obj
 0001:000517b0       _timeFunc                  100527b0 f   interop.obj
 0001:00051840       _datetimeFunc              10052840 f   interop.obj
 0001:000518e0       _juliandayFunc             100528e0 f   interop.obj
 0001:00051950       _torealFunc                10052950 f   interop.obj
 0001:00051b8c       $LN21                      10052b8c     * CIL library *:* CIL module *
 0001:00051ba0       _tointegerFunc             10052ba0 f   interop.obj
 0001:00051d4c       $LN156                     10052d4c     * CIL library *:* CIL module *
 0001:00051d60       _jsonAppendValue           10052d60 f   interop.obj
 0001:00051e24       $LN143                     10052e24     * CIL library *:* CIL module *
 0001:00051ea0       _rtreedepth                10052ea0 f   interop.obj
 0001:00051f20       _fts3ReadEndBlockField     10052f20 f   interop.obj
 0001:00052050       _groupConcatStep           10053050 f   interop.obj
 0001:00052110       _minmaxStep                10053110 f   interop.obj
 0001:000521d0       _trimFunc                  100531d0 f   interop.obj
 0001:000524e0       _replaceFunc               100534e0 f   interop.obj
 0001:000527a0       _hexFunc                   100537a0 f   interop.obj
 0001:00052870       _quoteFunc                 10053870 f   interop.obj
 0001:00052b14       $LN212                     10053b14     * CIL library *:* CIL module *
 0001:00052b30       _nullifFunc                10053b30 f   interop.obj
 0001:00052b70       _likeFunc                  10053b70 f   interop.obj
 0001:00052c70       _lowerFunc                 10053c70 f   interop.obj
 0001:00052d20       _upperFunc                 10053d20 f   interop.obj
 0001:00052de0       _substrFunc                10053de0 f   interop.obj
 0001:00053100       _instrFunc                 10054100 f   interop.obj
 0001:00053270       _lengthFunc                10054270 f   interop.obj
 0001:0005331c       $LN58                      1005431c     * CIL library *:* CIL module *
 0001:00053330       _minmaxFunc                10054330 f   interop.obj
 0001:000533f0       _statPush                  100543f0 f   interop.obj
 0001:00053670       _sqlite3XPrintf            10054670 f   interop.obj
 0001:00053690       _renderLogMsg              10054690 f   interop.obj
 0001:00053720       _sqlite3VMPrintf           10054720 f   interop.obj
 0001:000537b0       _ctimestampFunc            100547b0 f   interop.obj
 0001:000537d0       _cdateFunc                 100547d0 f   interop.obj
 0001:000537f0       _ctimeFunc                 100547f0 f   interop.obj
 0001:00053810       _jsonObjectStep            10054810 f   interop.obj
 0001:000538d0       _jsonArrayStep             100548d0 f   interop.obj
 0001:00053970       _jsonObjectFunc            10054970 f   interop.obj
 0001:00053b00       _jsonArrayFunc             10054b00 f   interop.obj
 0001:00053bc0       _jsonQuoteFunc             10054bc0 f   interop.obj
 0001:00053c50       _jsonRenderNode            10054c50 f   interop.obj
 0001:00053e44       $LN186                     10054e44     * CIL library *:* CIL module *
 0001:00053f20       _explainIndexRange         10054f20 f   interop.obj
 0001:00054090       _printfFunc                10055090 f   interop.obj
 0001:00054160       _sqlite3UniqueConstraint   10055160 f   interop.obj
 0001:00054250       _sqlite3NestedParse        10055250 f   interop.obj
 0001:000542f0       _openStatTable             100552f0 f   interop.obj
 0001:000544a0       _sqlite3VdbeExpandSql      100554a0 f   interop.obj
 0001:00054860       _displayP4                 10055860 f   interop.obj
 0001:00054b9c       $LN131                     10055b9c     * CIL library *:* CIL module *
 0001:00054be0       _sqlite3VdbeError          10055be0 f   interop.obj
 0001:00054c10       _checkAppendMsg            10055c10 f   interop.obj
 0001:00054c80       _sqlite3ErrorMsg           10055c80 f   interop.obj
 0001:00054cd0       _sqlite3ErrorWithMsg       10055cd0 f   interop.obj
 0001:00054da0       _sqlite3MPrintf            10055da0 f   interop.obj
 0001:00054dc0       _sqlite3RegisterDateTimeFunctions 10055dc0 f   interop.obj
 0001:00054dd0       _jsonReturnJson            10055dd0 f   interop.obj
 0001:00054e50       _reportError               10055e50 f   interop.obj
 0001:00054e80       _yy_syntax_error           10055e80 f   interop.obj
 0001:00054eb0       _yyStackOverflow           10055eb0 f   interop.obj
 0001:00054ef0       _parserAddExprIdListTerm   10055ef0 f   interop.obj
 0001:00054f50       _parserDoubleLinkSelect    10055f50 f   interop.obj
 0001:00054fa0       _vtabBestIndex             10055fa0 f   interop.obj
 0001:00055040       _allocateIndexInfo         10056040 f   interop.obj
 0001:000551e0       _sqlite3WhereExplainOneScan 100561e0 f   interop.obj
 0001:000554c0       _vtabCallConstructor       100564c0 f   interop.obj
 0001:00055810       _sqlite3VtabFinishParse    10056810 f   interop.obj
 0001:000559d0       _explainSimpleCount        100569d0 f   interop.obj
 0001:00055a60       _cannotBeFunction          10056a60 f   interop.obj
 0001:00055a90       _sqlite3IndexedByLookup    10056a90 f   interop.obj
 0001:00055b00       _sqlite3SelectWrongNumTermsError 10056b00 f   interop.obj
 0001:00055b90       _sqlite3ColumnsFromExprList 10056b90 f   interop.obj
 0001:00055dd0       _generateColumnNames       10056dd0 f   interop.obj
 0001:00055f90       _explainComposite          10056f90 f   interop.obj
 0001:00056030       _explainTempTable          10057030 f   interop.obj
 0001:00056080       _checkForMultiColumnSelectError 10057080 f   interop.obj
 0001:000560b0       _sqlite3JoinType           100570b0 f   interop.obj
 0001:000561f0       _sqlite3AutoLoadExtensions 100571f0 f   interop.obj
 0001:000562c0       _sqlite3FkLocateIndex      100572c0 f   interop.obj
 0001:000564d0       _errlogFunc                100574d0 f   interop.obj
 0001:00056500       _sqlite3IsReadOnly         10057500 f   interop.obj
 0001:00056590       _sqlite3GetCollSeq         10057590 f   interop.obj
 0001:00056660       _sqlite3WithAdd            10057660 f   interop.obj
 0001:00056770       _sqlite3RowidConstraint    10057770 f   interop.obj
 0001:000567e0       _sqlite3SrcListAppendFromTerm 100577e0 f   interop.obj
 0001:000568b0       _sqlite3CreateForeignKey   100578b0 f   interop.obj
 0001:00056ba0       _sqlite3ClearStatTables    10057ba0 f   interop.obj
 0001:00056c30       _destroyRootPage           10057c30 f   interop.obj
 0001:00056cc0       _sqlite3LocateCollSeq      10057cc0 f   interop.obj
 0001:00056d20       _sqlite3AddCollateType     10057d20 f   interop.obj
 0001:00056dc0       _sqlite3AddDefaultValue    10057dc0 f   interop.obj
 0001:00056ee0       _sqlite3AddColumn          10057ee0 f   interop.obj
 0001:00057090       _sqlite3CheckObjectName    10058090 f   interop.obj
 0001:000570f0       _sqlite3TwoPartName        100580f0 f   interop.obj
 0001:00057180       _sqliteAuthBadReturnCode   10058180 f   interop.obj
 0001:000571a0       _sqlite3FixExpr            100581a0 f   interop.obj
 0001:00057230       _sqlite3FixSelect          10058230 f   interop.obj
 0001:000572d0       _sqlite3FixSrcList         100582d0 f   interop.obj
 0001:00057390       _isSystemTable             10058390 f   interop.obj
 0001:000573f0       _whereOrName               100583f0 f   interop.obj
 0001:00057440       _renameTriggerFunc         10058440 f   interop.obj
 0001:00057540       _renameParentFunc          10058540 f   interop.obj
 0001:00057720       _renameTableFunc           10058720 f   interop.obj
 0001:000577f0       _codeInteger               100587f0 f   interop.obj
 0001:00057910       _sqlite3ExprListCheckLength 10058910 f   interop.obj
 0001:00057940       _sqlite3ExprAssignVarNumber 10058940 f   interop.obj
 0001:00057bd0       _sqlite3ExprCheckHeight    10058bd0 f   interop.obj
 0001:00057c00       _resolveOutOfRangeError    10058c00 f   interop.obj
 0001:00057c20       _notValid                  10058c20 f   interop.obj
 0001:00057c60       _vdbeSafety                10058c60 f   interop.obj
 0001:00057c80       _sqlite3VdbeCheckFk        10058c80 f   interop.obj
 0001:00057cf0       _sqlite3VdbeList           10058cf0 f   interop.obj
 0001:000580e0       _checkReadTransaction      100590e0 f   interop.obj
 0001:00058110       _checkRef                  10059110 f   interop.obj
 0001:00058180       _walLimitSize              10059180 f   interop.obj
 0001:00058200       _pager_playback            10059200 f   interop.obj
 0001:000584c0       _winLogIoerr               100594c0 f   interop.obj
 0001:000584f0       _winLogErrorAtLine         100594f0 f   interop.obj
 0001:000585c0       _winMemShutdown            100595c0 f   interop.obj
 0001:00058610       _winMemInit                10059610 f   interop.obj
 0001:00058680       _winMemSize                10059680 f   interop.obj
 0001:000586c0       _winMemRealloc             100596c0 f   interop.obj
 0001:00058730       _winMemFree                10059730 f   interop.obj
 0001:00058770       _winMemMalloc              10059770 f   interop.obj
 0001:00058820       _logBadConnection          10059820 f   interop.obj
 0001:00058840       _sqlite3CantopenError      10059840 f   interop.obj
 0001:00058870       _sqlite3MisuseError        10059870 f   interop.obj
 0001:000588a0       _sqlite3CorruptError       100598a0 f   interop.obj
 0001:000588d0       _createCollation           100598d0 f   interop.obj
 0001:00058a90       _sqlite3CreateFunc         10059a90 f   interop.obj
 0001:00058ecc       $LN167                     10059ecc     * CIL library *:* CIL module *
 0001:00058ee8       $LN150                     10059ee8     * CIL library *:* CIL module *
 0001:00058f40       $LN168                     10059f40     * CIL library *:* CIL module *
 0001:00058f50       $LN151                     10059f50     * CIL library *:* CIL module *
 0001:00058f90       _yy_shift                  10059f90 f   interop.obj
 0001:00058fd0       _whereLoopAddVirtualOne    10059fd0 f   interop.obj
 0001:00059360       _sqlite3VtabEponymousTableInit 1005a360 f   interop.obj
 0001:00059480       _sqlite3VtabCallCreate     1005a480 f   interop.obj
 0001:00059570       _sqlite3VtabCallConnect    1005a570 f   interop.obj
 0001:00059640       _createModule              1005a640 f   interop.obj
 0001:00059790       _withExpand                1005a790 f   interop.obj
 0001:00059a10       _convertCompoundSelectToSubquery 1005aa10 f   interop.obj
 0001:00059ba0       _corruptSchema             1005aba0 f   interop.obj
 0001:00059c40       _sqlite3FkOldmask          1005ac40 f   interop.obj
 0001:00059d20       _sqlite3RegisterLikeFunctions 1005ad20 f   interop.obj
 0001:00059df0       _sqlite3CheckCollSeq       1005adf0 f   interop.obj
 0001:00059e20       _sqlite3KeyInfoOfIndex     1005ae20 f   interop.obj
 0001:00059ed0       _destroyTable              1005aed0 f   interop.obj
 0001:00059f60       _sqlite3AuthCheck          1005af60 f   interop.obj
 0001:0005a000       _sqlite3AuthReadCol        1005b000 f   interop.obj
 0001:0005a0e0       _sqlite3FixTriggerStep     1005b0e0 f   interop.obj
 0001:0005a130       _whereTempTriggers         1005b130 f   interop.obj
 0001:0005a1e0       _whereForeignKeys          1005b1e0 f   interop.obj
 0001:0005a250       _sqlite3AlterFunctions     1005b250 f   interop.obj
 0001:0005a260       _sqlite3PExpr              1005b260 f   interop.obj
 0001:0005a2d0       _sqlite3ExprSetHeightAndFlags 1005b2d0 f   interop.obj
 0001:0005a310       _sqlite3ExprCollSeq        1005b310 f   interop.obj
 0001:0005a4a0       _sqlite3ResolveOrderGroupBy 1005b4a0 f   interop.obj
 0001:0005a5a0       _columnName                1005b5a0 f   interop.obj
 0001:0005a650       _vdbeSafetyNotNull         1005b650 f   interop.obj
 0001:0005a690       _sqlite3VdbeRecordCompareWithSkip 1005b690 f   interop.obj
 0001:0005ac10       _sqlite3VdbeSetP4KeyInfo   1005bc10 f   interop.obj
 0001:0005ac30       _sqlite3Stat4Column        1005bc30 f   interop.obj
 0001:0005adc0       _valueNew                  1005bdc0 f   interop.obj
 0001:0005af30       _rebuildPage               1005bf30 f   interop.obj
 0001:0005b060       _sqlite3BtreeCursor        1005c060 f   interop.obj
 0001:0005b0d0       _decodeFlags               1005c0d0 f   interop.obj
 0001:0005b1b0       _freeSpace                 1005c1b0 f   interop.obj
 0001:0005b520       _pageFindSlot              1005c520 f   interop.obj
 0001:0005b650       _defragmentPage            1005c650 f   interop.obj
 0001:0005b850       _sqlite3WalFindFrame       1005c850 f   interop.obj
 0001:0005b990       _walIndexAppend            1005c990 f   interop.obj
 0001:0005ba90       _pagerUndoCallback         1005ca90 f   interop.obj
 0001:0005bb20       _winFullPathname           1005cb20 f   interop.obj
 0001:0005bcb0       _winAccess                 1005ccb0 f   interop.obj
 0001:0005be20       _winDelete                 1005ce20 f   interop.obj
 0001:0005bf20       _winGetTempname            1005cf20 f   interop.obj
 0001:0005c200       _winUnmapfile              1005d200 f   interop.obj
 0001:0005c2b0       _winUnlockReadLock         1005d2b0 f   interop.obj
 0001:0005c310       _winFileSize               1005d310 f   interop.obj
 0001:0005c380       _winSync                   1005d380 f   interop.obj
 0001:0005c400       _winWrite                  1005d400 f   interop.obj
 0001:0005c550       _winRead                   1005d550 f   interop.obj
 0001:0005c6c0       _winClose                  1005d6c0 f   interop.obj
 0001:0005c740       _winSeekFile               1005d740 f   interop.obj
 0001:0005c7b0       _sqlite3MemGetWin32        1005d7b0 f   interop.obj
 0001:0005c880       _sqlite3SafetyCheckSickOrOk 1005d880 f   interop.obj
 0001:0005c8c0       _sqlite3SafetyCheckOk      1005d8c0 f   interop.obj
 0001:0005c9f0       _winMutexFree              1005d9f0 f   interop.obj
 0001:0005ca40       _winMutexAlloc             1005da40 f   interop.obj
 0001:0005cf5c       $LN247                     1005df5c     * CIL library *:* CIL module *
 0001:0005d120       _fts5SetVtabError          1005e120 f   interop.obj
 0001:0005d140       _sqlite3Fts5ParseError     1005e140 f   interop.obj
 0001:0005d170       _sqlite3Fts5Mprintf        1005e170 f   interop.obj
 0001:0005d1a0       _fts5yy_syntax_error       1005e1a0 f   interop.obj
 0001:0005d1d0       _sqlite3Fts3ErrMsg         1005e1d0 f   interop.obj
 0001:0005e3f0       _spanUnaryPrefix           1005f3f0 f   interop.obj
 0001:0005e430       _spanUnaryPostfix          1005f430 f   interop.obj
 0001:0005e460       _exprNot                   1005f460 f   interop.obj
 0001:0005e480       _spanBinaryExpr            1005f480 f   interop.obj
 0001:0005e4b0       _spanExpr                  1005f4b0 f   interop.obj
 0001:0005e4e0       _whereLoopAddVirtual       1005f4e0 f   interop.obj
 0001:0005e7e0       _findIndexCol              1005f7e0 f   interop.obj
 0001:0005e880       _sqlite3WhereTabFuncArgs   1005f880 f   interop.obj
 0001:0005e9d0       _exprAnalyzeOrTerm         1005f9d0 f   interop.obj
 0001:0005f140       _exprCommute               10060140 f   interop.obj
 0001:0005f390       _sqlite3DropTriggerPtr     10060390 f   interop.obj
 0001:0005f4b0       _updateAccumulator         100604b0 f   interop.obj
 0001:0005f710       _flattenSubquery           10060710 f   interop.obj
 0001:0005fcf0       _multiSelectCollSeq        10060cf0 f   interop.obj
 0001:0005fd40       _sqlite3SelectAddColumnTypeAndCollation 10060d40 f   interop.obj
 0001:0005fee0       _keyInfoFromExprList       10060ee0 f   interop.obj
 0001:0005ff70       _pushOntoSorter            10060f70 f   interop.obj
 0001:00060300       _addWhereTerm              10061300 f   interop.obj
 0001:00060380       _sqlite3OpenTable          10061380 f   interop.obj
 0001:00060450       _fkActionTrigger           10061450 f   interop.obj
 0001:000609f0       _fkLookupParent            100619f0 f   interop.obj
 0001:00060dd0       _compileoptionusedFunc     10061dd0 f   interop.obj
 0001:00060e00       _total_changes             10061e00 f   interop.obj
 0001:00060e20       _changes                   10061e20 f   interop.obj
 0001:00060e40       _last_insert_rowid         10061e40 f   interop.obj
 0001:00060e90       _sqlite3Savepoint          10061e90 f   interop.obj
 0001:00060f20       _sqlite3RollbackTransaction 10061f20 f   interop.obj
 0001:00060f70       _sqlite3CommitTransaction  10061f70 f   interop.obj
 0001:00060fc0       _sqlite3BeginTransaction   10061fc0 f   interop.obj
 0001:00061090       _sqlite3AuthRead           10062090 f   interop.obj
 0001:00061220       _reloadTableSchema         10062220 f   interop.obj
 0001:00061370       _sqlite3ExprFunction       10062370 f   interop.obj
 0001:000613d0       _sqlite3PExprAddSelect     100623d0 f   interop.obj
 0001:00061410       _sqlite3BinaryCompareCollSeq 10062410 f   interop.obj
 0001:00061450       _lookupName                10062450 f   interop.obj
 0001:00061b70       _vdbeSorterCompareTail     10062b70 f   interop.obj
 0001:00061c30       _vdbeUnbind                10062c30 f   interop.obj
 0001:00061ef0       _vdbeRecordCompareString   10062ef0 f   interop.obj
 0001:00062050       _sqlite3VdbeRecordCompare  10063050 f   interop.obj
 0001:00062070       _valueFromFunction         10063070 f   interop.obj
 0001:000622d0       _pageFreeArray             100632d0 f   interop.obj
 0001:00062390       _pageInsertArray           10063390 f   interop.obj
 0001:00062470       _dropCell                  10063470 f   interop.obj
 0001:000625a0       _zeroPage                  100635a0 f   interop.obj
 0001:00062670       _btreeInitPage             10063670 f   interop.obj
 0001:000629d0       _allocateSpace             100639d0 f   interop.obj
 0001:00062af0       _walIndexRecover           10063af0 f   interop.obj
 0001:00062e60       _pagerRollbackWal          10063e60 f   interop.obj
 0001:00062ed0       _winOpen                   10063ed0 f   interop.obj
 0001:000631c0       _winUnfetch                100641c0 f   interop.obj
 0001:000631e0       _winMapfile                100641e0 f   interop.obj
 0001:00063350       _winShmPurge               10064350 f   interop.obj
 0001:00063430       _winUnlock                 10064430 f   interop.obj
 0001:00063500       _winLock                   10064500 f   interop.obj
 0001:000636f0       _winTruncate               100646f0 f   interop.obj
 0001:000637d0       _sqlite3MemSetDefault      100647d0 f   interop.obj
 0001:00063870       _sqlite3MallocInit         10064870 f   interop.obj
 0001:00063990       _sqlite3DefaultMutex       10064990 f   interop.obj
 0001:000639a0       _sqlite3MutexInit          100649a0 f   interop.obj
 0001:00063ae0       _jsonWrongNumArgs          10064ae0 f   interop.obj
 0001:00063b20       _jsonPathSyntaxError       10064b20 f   interop.obj
 0001:00063b40       _sqlite3Fts5GetTokenizer   10064b40 f   interop.obj
 0001:00063be0       _fts5ApiCallback           10064be0 f   interop.obj
 0001:00063c90       _fts5SpecialMatch          10064c90 f   interop.obj
 0001:00063d40       _fts5PrepareStatement      10064d40 f   interop.obj
 0001:00063dd0       _fts5IdxSelectStmt         10064dd0 f   interop.obj
 0001:00063e10       _fts5PrintfAppend          10064e10 f   interop.obj
 0001:00063e60       _sqlite3Fts5ParseSetColset 10064e60 f   interop.obj
 0001:00063ea0       _sqlite3Fts5ParseSetDistance 10064ea0 f   interop.obj
 0001:00063f30       _sqlite3Fts5ParseNear      10064f30 f   interop.obj
 0001:00063f60       _fts5ExprGetToken          10064f60 f   interop.obj
 0001:00064188       $LN62                      10065188     * CIL library *:* CIL module *
 0001:000641b4       $LN55                      100651b4     * CIL library *:* CIL module *
 0001:00064240       _fts5ConfigParseColumn     10065240 f   interop.obj
 0001:000642e0       _fts5ConfigDefaultTokenizer 100652e0 f   interop.obj
 0001:00064300       _fts5HighlightAppend       10065300 f   interop.obj
 0001:00064350       _vtshimRollbackTo          10065350 f   interop.obj
 0001:000643b0       _vtshimRelease             100653b0 f   interop.obj
 0001:00064410       _vtshimSavepoint           10065410 f   interop.obj
 0001:00064470       _vtshimRename              10065470 f   interop.obj
 0001:000644d0       _vtshimFindFunction        100654d0 f   interop.obj
 0001:00064530       _vtshimRollback            10065530 f   interop.obj
 0001:00064590       _vtshimCommit              10065590 f   interop.obj
 0001:000645f0       _vtshimSync                100655f0 f   interop.obj
 0001:00064650       _vtshimBegin               10065650 f   interop.obj
 0001:000646b0       _vtshimUpdate              100656b0 f   interop.obj
 0001:00064710       _vtshimRowid               10065710 f   interop.obj
 0001:00064770       _vtshimColumn              10065770 f   interop.obj
 0001:000647d0       _vtshimEof                 100657d0 f   interop.obj
 0001:00064820       _vtshimNext                10065820 f   interop.obj
 0001:00064880       _vtshimFilter              10065880 f   interop.obj
 0001:000648e0       _vtshimClose               100658e0 f   interop.obj
 0001:00064950       _vtshimBestIndex           10065950 f   interop.obj
 0001:00064e90       _lastRowsFunc              10065e90 f   interop.obj
 0001:00064ee0       _rtreenode                 10065ee0 f   interop.obj
 0001:000650d0       _rtreeBestIndex            100660d0 f   interop.obj
 0001:000652c4       $LN53                      100662c4     * CIL library *:* CIL module *
 0001:000652dc       $LN49                      100662dc     * CIL library *:* CIL module *
 0001:00065300       _fts3MatchinfoCheck        10066300 f   interop.obj
 0001:00065370       _fts3tokQueryTokenizer     10066370 f   interop.obj
 0001:000653d0       _fts3FunctionArg           100663d0 f   interop.obj
 0001:00065460       _fts3CursorSeekStmt        10066460 f   interop.obj
 0001:000654d0       _fts3Appendf               100664d0 f   interop.obj
 0001:00065540       _fts3IsSpecialColumn       10066540 f   interop.obj
 0001:000655a0       _sqlite3ParseUri           100665a0 f   interop.obj
 0001:00065f4c       $LN62                      10066f4c     * CIL library *:* CIL module *
 0001:00065fc0       _whereKeyStats             10066fc0 f   interop.obj
 0001:00066180       _whereScanNext             10067180 f   interop.obj
 0001:000663d0       _termIsEquivalence         100673d0 f   interop.obj
 0001:000664d0       _sqlite3_get_table_cb      100674d0 f   interop.obj
 0001:00066650       _resetAccumulator          10067650 f   interop.obj
 0001:00066710       _selectAddSubqueryTypeInfo 10067710 f   interop.obj
 0001:00066780       _multiSelectOrderByKeyInfo 10067780 f   interop.obj
 0001:00066860       _sqlite3ResultSetOfSelect  10067860 f   interop.obj
 0001:00066930       _selectInnerLoop           10067930 f   interop.obj
 0001:00067044       $LN309                     10068044     * CIL library *:* CIL module *
 0001:00067080       _sqliteProcessJoin         10068080 f   interop.obj
 0001:000672e0       _sqlite3LoadExtension      100682e0 f   interop.obj
 0001:00067700       _sqlite3OpenTableAndIndices 10068700 f   interop.obj
 0001:00067890       _autoIncrementEnd          10068890 f   interop.obj
 0001:00067940       _sqlite3AutoincrementBegin 10068940 f   interop.obj
 0001:00067a10       _sqlite3FkActions          10068a10 f   interop.obj
 0001:00067a90       _roundFunc                 10068a90 f   interop.obj
 0001:00067c10       _sqlite3ViewGetColumnNames 10068c10 f   interop.obj
 0001:00067dc0       _codeCompare               10068dc0 f   interop.obj
 0001:00067e50       _resolveExprStep           10068e50 f   interop.obj
 0001:0006825c       $LN209                     1006925c     * CIL library *:* CIL module *
 0001:00068274       $LN203                     10069274     * CIL library *:* CIL module *
 0001:00068300       _sqlite3VdbeSorterCompare  10069300 f   interop.obj
 0001:000683c0       _vdbeSorterCompareInt      100693c0 f   interop.obj
 0001:000684e0       _vdbeSorterCompareText     100694e0 f   interop.obj
 0001:00068620       _vdbeSorterCompare         10069620 f   interop.obj
 0001:00068800       _bindText                  10069800 f   interop.obj
 0001:000688e0       _sqlite3InvalidFunction    100698e0 f   interop.obj
 0001:00068930       _vdbeRecordCompareInt      10069930 f   interop.obj
 0001:00068b50       $LN137                     10069b50     * CIL library *:* CIL module *
 0001:00068b80       _valueFromExpr             10069b80 f   interop.obj
 0001:00068f90       _editPage                  10069f90 f   interop.obj
 0001:000691e0       _modifyPagePointer         1006a1e0 f   interop.obj
 0001:00069350       _pageReinit                1006a350 f   interop.obj
 0001:00069380       _walIndexReadHdr           1006a380 f   interop.obj
 0001:000694d0       _pagerPlaybackSavepoint    1006a4d0 f   interop.obj
 0001:00069730       _sqlite3PCacheSetDefault   1006a730 f   interop.obj
 0001:00069750       _sqlite3PcacheInitialize   1006a750 f   interop.obj
 0001:000697f0       _winFetch                  1006a7f0 f   interop.obj
 0001:00069860       _winShmUnmap               1006a860 f   interop.obj
 0001:000698e0       _winFileControl            1006a8e0 f   interop.obj
 0001:00069ae0       $LN121                     1006aae0     * CIL library *:* CIL module *
 0001:00069b0c       $LN114                     1006ab0c     * CIL library *:* CIL module *
 0001:00069c00       _sqlite3OsInit             1006ac00 f   interop.obj
 0001:00069c40       _fts5FindFunctionMethod    1006ac40 f   interop.obj
 0001:00069c70       _fts5ExprPrintTcl          1006ac70 f   interop.obj
 0001:00069ec0       _fts5HighlightCb           1006aec0 f   interop.obj
 0001:0006a190       _sqlite3RtreeInit          1006b190 f   interop.obj
 0001:0006a340       _whereScanInit             1006b340 f   interop.obj
 0001:0006a3f0       _exprAnalyze               1006b3f0 f   interop.obj
 0001:0006adb0       _sqlite3SelectAddTypeInfo  1006bdb0 f   interop.obj
 0001:0006adf0       _multiSelectOrderBy        1006bdf0 f   interop.obj
 0001:0006b6d0       _generateWithRecursiveQuery 1006c6d0 f   interop.obj
 0001:0006bac0       _sqlite3AutoincrementEnd   1006cac0 f   interop.obj
 0001:0006bae0       _sqlite3RegisterPerConnectionBuiltinFunctions 1006cae0 f   interop.obj
 0001:0006bb10       _loadExt                   1006cb10 f   interop.obj
 0001:0006bbc0       _sqlite3ResolveExprNames   1006cbc0 f   interop.obj
 0001:0006bca0       _resolveOrderGroupBy       1006cca0 f   interop.obj
 0001:0006be20       _resolveOrderByTermToExprList 1006ce20 f   interop.obj
 0001:0006bec0       _vdbeSorterGetCompare      1006cec0 f   interop.obj
 0001:0006c0a0       _sqlite3VdbeFindCompare    1006d0a0 f   interop.obj
 0001:0006c100       _stat4ValueFromExpr        1006d100 f   interop.obj
 0001:0006c260       _sqlite3ValueFromExpr      1006d260 f   interop.obj
 0001:0006c280       _sqlite3WalCheckpoint      1006d280 f   interop.obj
 0001:0006c450       _walTryBeginRead           1006d450 f   interop.obj
 0001:0006c750       _sqlite3WalClose           1006d750 f   interop.obj
 0001:0006c870       _sqlite3PagerCloseWal      1006d870 f   interop.obj
 0001:0006c940       _sqlite3PagerCheckpoint    1006d940 f   interop.obj
 0001:0006c9a0       _sqlite3PagerSavepoint     1006d9a0 f   interop.obj
 0001:0006ca80       _sqlite3PagerRollback      1006da80 f   interop.obj
 0001:0006cb50       _pagerUnlockAndRollback    1006db50 f   interop.obj
 0001:0006cbb0       _fts5HighlightFunction     1006dbb0 f   interop.obj
 0001:0006cd30       _sqlite3WhereFindTerm      1006dd30 f   interop.obj
 0001:0006cdb0       _sqlite3WhereExprAnalyze   1006ddb0 f   interop.obj
 0001:0006cde0       _sqlite3ColumnDefault      1006dde0 f   interop.obj
 0001:0006ce70       _multiSelect               1006de70 f   interop.obj
 0001:0006d780       _sqlite3RegisterBuiltinFunctions 1006e780 f   interop.obj
 0001:0006d7c0       _resolveAttachExpr         1006e7c0 f   interop.obj
 0001:0006d7e0       _sqlite3AlterFinishAddColumn 1006e7e0 f   interop.obj
 0001:0006db30       _sqlite3ExprCodeGetColumnOfTable 1006eb30 f   interop.obj
 0001:0006dc00       _sqlite3ExprCodeLoadIndexColumn 1006ec00 f   interop.obj
 0001:0006dc50       _sqlite3ResolveExprListNames 1006ec50 f   interop.obj
 0001:0006dcb0       _resolveCompoundOrderBy    1006ecb0 f   interop.obj
 0001:0006dfd0       _vdbeSorterSetupMerge      1006efd0 f   interop.obj
 0001:0006e190       _vdbeSorterSort            1006f190 f   interop.obj
 0001:0006e3e4       $LN272                     1006f3e4     * CIL library *:* CIL module *
 0001:0006e400       _sqlite3Stat4ValueFromExpr 1006f400 f   interop.obj
 0001:0006e420       _sqlite3Stat4ProbeSetValue 1006f420 f   interop.obj
 0001:0006e470       _sqlite3BtreeCheckpoint    1006f470 f   interop.obj
 0001:0006e4d0       _walRestartLog             1006f4d0 f   interop.obj
 0001:0006e590       _sqlite3WalBeginReadTransaction 1006f590 f   interop.obj
 0001:0006e5c0       _pagerUnlockIfUnused       1006f5c0 f   interop.obj
 0001:0006e5f0       _sqlite3PagerClose         1006f5f0 f   interop.obj
 0001:0006e710       _pagerBeginReadTransaction 1006f710 f   interop.obj
 0001:0006e7a0       _fts3SqlStmt               1006f7a0 f   interop.obj
 0001:0006ea50       _sqlite3Checkpoint         1006fa50 f   interop.obj
 0001:0006eeb0       _whereShortCut             1006feb0 f   interop.obj
 0001:0006f0c0       _wherePathSatisfiesOrderBy 100700c0 f   interop.obj
 0001:0006f760       _whereEqualScanEst         10070760 f   interop.obj
 0001:0006f840       _whereRangeSkipScanEst     10070840 f   interop.obj
 0001:0006fa20       _isDistinctRedundant       10070a20 f   interop.obj
 0001:0006fc60       _sqlite3GenerateIndexKey   10070c60 f   interop.obj
 0001:0006fd80       _sqlite3GenerateRowIndexDelete 10070d80 f   interop.obj
 0001:0006fe60       _sqlite3RefillIndex        10070e60 f   interop.obj
 0001:000701c0       _analyzeOneTable           100711c0 f   interop.obj
 0001:00070ac0       _sqlite3ExprCodeGetColumn  10071ac0 f   interop.obj
 0001:00070bf0       _sqlite3ResolveSelfReference 10071bf0 f   interop.obj
 0001:00070cb0       _resolveSelectStep         10071cb0 f   interop.obj
 0001:00071120       _vdbeSorterListToPMA       10072120 f   interop.obj
 0001:000712f0       _sqlite3PagerGet           100722f0 f   interop.obj
 0001:00071820       _sqlite3PagerSharedLock    10072820 f   interop.obj
 0001:00071fe0       _re_resize                 10072fe0 f   interop.obj
 0001:00072060       _sqlite3re_match           10073060 f   interop.obj
 0001:0007254c       $LN277                     1007354c     * CIL library *:* CIL module *
 0001:00072590       _percentStep               10073590 f   interop.obj
 0001:000727a0       _jsonEachOpenEach          100737a0 f   interop.obj
 0001:000727f0       _jsonParseFindParents      100737f0 f   interop.obj
 0001:00072850       _jsonParseAddNodeExpand    10073850 f   interop.obj
 0001:000728d0       _jsonReturn                100738d0 f   interop.obj
 0001:00072cdc       $LN322                     10073cdc     * CIL library *:* CIL module *
 0001:00072d00       _fts5PorterCreate          10073d00 f   interop.obj
 0001:00072df0       _fts5UnicodeTokenize       10073df0 f   interop.obj
 0001:00073170       _fts5UnicodeAddExceptions  10074170 f   interop.obj
 0001:00073300       _fts5AsciiTokenize         10074300 f   interop.obj
 0001:000734c0       _fts5AsciiCreate           100744c0 f   interop.obj
 0001:000735e0       _fts5CreateTokenizer       100745e0 f   interop.obj
 0001:00073690       _fts5CreateAux             10074690 f   interop.obj
 0001:00073750       _fts5WriteDlidxGrow        10074750 f   interop.obj
 0001:000737f0       _fts5SegIterReverseInitPage 100747f0 f   interop.obj
 0001:00073950       _fts5StructureExtendLevel  10074950 f   interop.obj
 0001:00073a10       _fts5StructureAddLevel     10074a10 f   interop.obj
 0001:00073a90       _fts5HashEntrySort         10074a90 f   interop.obj
 0001:00073c10       _fts5HashResize            10074c10 f   interop.obj
 0001:00073d40       _sqlite3Fts5HashNew        10074d40 f   interop.obj
 0001:00073de0       _sqlite3Fts5ExprClearPoslists 10074de0 f   interop.obj
 0001:00073eb0       _fts5ExprTermPrint         10074eb0 f   interop.obj
 0001:00073f80       _fts5ParseColset           10074f80 f   interop.obj
 0001:00074030       _fts5ParseAlloc            10075030 f   interop.obj
 0001:00074060       _fts5ConfigGobbleWord      10075060 f   interop.obj
 0001:00074170       _sqlite3Fts5Strndup        10075170 f   interop.obj
 0001:00074200       _sqlite3Fts5MallocZero     10075200 f   interop.obj
 0001:00074270       _sqlite3Fts5BufferSize     10075270 f   interop.obj
 0001:000742f0       _fts5Bm25GetData           100752f0 f   interop.obj
 0001:00074500       _fts5SnippetFunction       10075500 f   interop.obj
 0001:000749b0       _vtshimCopyModule          100759b0 f   interop.obj
 0001:00074a10       _vtshimOpen                10075a10 f   interop.obj
 0001:00074af0       _vtshimConnect             10075af0 f   interop.obj
 0001:00074bd0       _vtshimCreate              10075bd0 f   interop.obj
 0001:00074cb0       _CreateCryptBlock          10075cb0 f   interop.obj
 0001:00074da0       _InitializeProvider        10075da0 f   interop.obj
 0001:00074e20       _reverseFunc               10075e20 f   interop.obj
 0001:00074f70       _rightFunc                 10075f70 f   interop.obj
 0001:000750d0       _leftFunc                  100760d0 f   interop.obj
 0001:00075210       _strfilterFunc             10076210 f   interop.obj
 0001:000753d0       _replicateFunc             100763d0 f   interop.obj
 0001:000755c0       _sqlite3StrDup             100765c0 f   interop.obj
 0001:00075620       _statDecodePage            10076620 f   interop.obj
 0001:00075980       _splitNodeStartree         10076980 f   interop.obj
 0001:00075e50       _deserializeGeometry       10076e50 f   interop.obj
 0001:00075f60       _rtreeOpen                 10076f60 f   interop.obj
 0001:00075fd0       _nodeNew                   10076fd0 f   interop.obj
 0001:00076050       _unicodeNext               10077050 f   interop.obj
 0001:00076330       _unicodeOpen               10077330 f   interop.obj
 0001:000763c0       _unicodeAddExceptions      100773c0 f   interop.obj
 0001:000765b0       _fts3StringAppend          100775b0 f   interop.obj
 0001:00076660       _fts3MIBufferAlloc         10077660 f   interop.obj
 0001:00076720       _fts3MIBufferNew           10077720 f   interop.obj
 0001:000767d0       _sqlite3Fts3DeferToken     100777d0 f   interop.obj
 0001:00076830       _sqlite3Fts3DeferredTokenList 10077830 f   interop.obj
 0001:000768c0       _blobGrowBuffer            100778c0 f   interop.obj
 0001:00076920       _fts3MsrBufferData         10077920 f   interop.obj
 0001:000769a0       _fts3NodeAddTerm           100779a0 f   interop.obj
 0001:00076c80       _sqlite3Fts3SegReaderPending 10077c80 f   interop.obj
 0001:00076ed0       _sqlite3Fts3SegReaderNew   10077ed0 f   interop.obj
 0001:00076fe0       _fts3PendingListAppendVarint 10077fe0 f   interop.obj
 0001:000770b0       _sqlite3Fts3AllSegdirs     100780b0 f   interop.obj
 0001:000771d0       _fts3tokFilterMethod       100781d0 f   interop.obj
 0001:000772a0       _fts3tokOpenMethod         100782a0 f   interop.obj
 0001:000772f0       _fts3tokDequoteArray       100782f0 f   interop.obj
 0001:000773f0       _simpleNext                100783f0 f   interop.obj
 0001:00077530       _simpleOpen                10078530 f   interop.obj
 0001:000775c0       _simpleCreate              100785c0 f   interop.obj
 0001:000776c0       _sqlite3Fts3InitTokenizer  100786c0 f   interop.obj
 0001:00077880       _porterNext                10078880 f   interop.obj
 0001:000779a0       _porterOpen                100789a0 f   interop.obj
 0001:00077a30       _porterCreate              10078a30 f   interop.obj
 0001:00077a70       _fts3HashMalloc            10078a70 f   interop.obj
 0001:00077ac0       _fts3ReallocOrFree         10078ac0 f   interop.obj
 0001:00077b20       _fts3MallocZero            10078b20 f   interop.obj
 0001:00077b70       _fts3auxGrowStatArray      10078b70 f   interop.obj
 0001:00077bf0       _fts3auxOpenMethod         10078bf0 f   interop.obj
 0001:00077c40       _fts3EvalNearTest          10078c40 f   interop.obj
 0001:00077dd0       _fts3EvalDeferredPhrase    10078dd0 f   interop.obj
 0001:00078000       _fts3DoclistPhraseMerge    10079000 f   interop.obj
 0001:00078370       _fts3DoclistOrMerge        10079370 f   interop.obj
 0001:000787a0       _fts3ScanInteriorNode      100797a0 f   interop.obj
 0001:00078a20       _fts3OpenMethod            10079a20 f   interop.obj
 0001:00078a80       _fts3PrefixParameter       10079a80 f   interop.obj
 0001:00078b90       _fts3QuoteId               10079b90 f   interop.obj
 0001:00078c30       _sqlite3WalDefaultHook     10079c30 f   interop.obj
 0001:00078d20       _wherePathSolver           10079d20 f   interop.obj
 0001:00079330       _whereInScanEst            1007a330 f   interop.obj
 0001:000793e0       _whereRangeScanEst         1007a3e0 f   interop.obj
 0001:000796a0       _constructAutomaticIndex   1007a6a0 f   interop.obj
 0001:00079d70       _sqlite3ExprCodeGetColumnToReg 1007ad70 f   interop.obj
 0001:00079db0       _sqlite3ResolveSelectNames 1007adb0 f   interop.obj
 0001:00079df0       _memjrnlWrite              1007adf0 f   interop.obj
 0001:00079f20       _vdbeSorterFlushThread     1007af20 f   interop.obj
 0001:00079fe0       _getAndInitPage            1007afe0 f   interop.obj
 0001:0007a0e0       _btreeGetPage              1007b0e0 f   interop.obj
 0001:0007a140       _ptrmapGet                 1007b140 f   interop.obj
 0001:0007a1f0       _walRewriteChecksums       1007b1f0 f   interop.obj
 0001:0007a380       _sqlite3PagerSetJournalMode 1007b380 f   interop.obj
 0001:0007a490       _pagerWriteLargeSector     1007b490 f   interop.obj
 0001:0007a600       _winOpenSharedMemory       1007b600 f   interop.obj
 0001:0007a880       _re_copy                   1007b880 f   interop.obj
 0001:0007a8f0       _re_insert                 1007b8f0 f   interop.obj
 0001:0007a990       _jsonEachColumn            1007b990 f   interop.obj
 0001:0007ada0       $LN251                     1007bda0     * CIL library *:* CIL module *
 0001:0007add0       _jsonEachOpenTree          1007bdd0 f   interop.obj
 0001:0007adf0       _jsonParseAddNode          1007bdf0 f   interop.obj
 0001:0007ae40       _fts5VocabTableType        1007be40 f   interop.obj
 0001:0007af00       _fts5UnicodeCreate         1007bf00 f   interop.obj
 0001:0007b090       _fts5ApiSetAuxdata         1007c090 f   interop.obj
 0001:0007b120       _fts5MergeRowidLists       1007c120 f   interop.obj
 0001:0007b370       _fts5AppendPoslist         1007c370 f   interop.obj
 0001:0007b3f0       _fts5IndexOptimizeStruct   1007c3f0 f   interop.obj
 0001:0007b550       _fts5WriteInit             1007c550 f   interop.obj
 0001:0007b610       _fts5StructurePromoteTo    1007c610 f   interop.obj
 0001:0007b6f0       _fts5StructureDecode       1007c6f0 f   interop.obj
 0001:0007b8c0       _fts5IdxMalloc             1007c8c0 f   interop.obj
 0001:0007b8d0       _sqlite3Fts5HashScanInit   1007c8d0 f   interop.obj
 0001:0007b8f0       _sqlite3Fts5HashWrite      1007c8f0 f   interop.obj
 0001:0007bcd0       _fts5ExprPrint             1007ccd0 f   interop.obj
 0001:0007bf20       _sqlite3Fts5ParseColset    1007cf20 f   interop.obj
 0001:0007bff0       _fts5ParseTokenize         1007cff0 f   interop.obj
 0001:0007c180       _fts5ParseStringFromToken  1007d180 f   interop.obj
 0001:0007c1b0       _sqlite3Fts5ConfigParseRank 1007d1b0 f   interop.obj
 0001:0007c2f0       _fts5ConfigParseSpecial    1007d2f0 f   interop.obj
 0001:0007c790       _sqlite3Fts5TermsetAdd     1007d790 f   interop.obj
 0001:0007c8c0       _sqlite3Fts5TermsetNew     1007d8c0 f   interop.obj
 0001:0007c8f0       _sqlite3Fts5PoslistWriterAppend 1007d8f0 f   interop.obj
 0001:0007c950       _sqlite3Fts5BufferAppendBlob 1007d950 f   interop.obj
 0001:0007c990       _sqlite3Fts5BufferAppendVarint 1007d990 f   interop.obj
 0001:0007c9d0       _fts5Bm25Function          1007d9d0 f   interop.obj
 0001:0007cee0       _DeriveKey                 1007dee0 f   interop.obj
 0001:0007cfe0       _padcFunc                  1007dfe0 f   interop.obj
 0001:0007d250       _padrFunc                  1007e250 f   interop.obj
 0001:0007d460       _padlFunc                  1007e460 f   interop.obj
 0001:0007d670       _properFunc                1007e670 f   interop.obj
 0001:0007d790       _geomCallback              1007e790 f   interop.obj
 0001:0007d8e0       _unicodeCreate             1007e8e0 f   interop.obj
 0001:0007dad0       _fts3SnippetText           1007ead0 f   interop.obj
 0001:0007dda0       _fts3IncrmergeHintPush     1007eda0 f   interop.obj
 0001:0007ddf0       _fts3AppendToNode          1007edf0 f   interop.obj
 0001:0007def0       _nodeReaderNext            1007eef0 f   interop.obj
 0001:0007e020       _fts3PendingListAppend     1007f020 f   interop.obj
 0001:0007e170       _fts3Rehash                1007f170 f   interop.obj
 0001:0007e210       _getNextString             1007f210 f   interop.obj
 0001:0007e470       _getNextToken              1007f470 f   interop.obj
 0001:0007e610       _fts3EvalTestExpr          1007f610 f   interop.obj
 0001:0007e820       $LN177                     1007f820     * CIL library *:* CIL module *
 0001:0007e830       _fts3EvalPhraseMergeToken  1007f830 f   interop.obj
 0001:0007e900       _fts3TermSelectMerge       1007f900 f   interop.obj
 0001:0007ea20       _fts3TermSelectFinishMerge 1007fa20 f   interop.obj
 0001:0007eac0       _fts3WriteExprList         1007fac0 f   interop.obj
 0001:0007eb60       _fts3ReadExprList          1007fb60 f   interop.obj
 0001:0007ed20       _whereLoopAddBtreeIndex    1007fd20 f   interop.obj
 0001:0007f420       _sqlite3WhereCodeOneLoopStart 10080420 f   interop.obj
 0001:00080b60       _vdbeSorterFlushPMA        10081b60 f   interop.obj
 0001:00080c60       _checkPtrmap               10081c60 f   interop.obj
 0001:00080ce0       _moveToChild               10081ce0 f   interop.obj
 0001:00080d50       _getOverflowPage           10081d50 f   interop.obj
 0001:00080e50       _lockBtree                 10081e50 f   interop.obj
 0001:000810e0       _btreeGetUnusedPage        100820e0 f   interop.obj
 0001:00081150       _sqlite3WalFrames          10082150 f   interop.obj
 0001:00081610       _sqlite3PagerWrite         10082610 f   interop.obj
 0001:00081680       _pagerWalFrames            10082680 f   interop.obj
 0001:00081720       _winShmMap                 10082720 f   interop.obj
 0001:00081930       _re_append                 10082930 f   interop.obj
 0001:00081950       _jsonLookupAppend          10082950 f   interop.obj
 0001:000819f0       _jsonLookupStep            100829f0 f   interop.obj
 0001:00081d30       _jsonParseValue            10082d30 f   interop.obj
 0001:00082170       _sqlite3Fts5TokenizerInit  10083170 f   interop.obj
 0001:00082210       _fts5StorageIntegrityCallback 10083210 f   interop.obj
 0001:00082370       _fts5CursorParseRank       10083370 f   interop.obj
 0001:00082440       _sqlite3Fts5IndexWrite     10083440 f   interop.obj
 0001:000824e0       _fts5AppendRowid           100834e0 f   interop.obj
 0001:00082510       _fts5WriteBtreeNoTerm      10083510 f   interop.obj
 0001:00082540       _fts5IndexExtractColset    10083540 f   interop.obj
 0001:000825b0       _fts5MultiIterAlloc        100835b0 f   interop.obj
 0001:00082600       _fts5StructurePromote      10083600 f   interop.obj
 0001:000826d0       _fts5ExprPopulatePoslistsCb 100836d0 f   interop.obj
 0001:00082800       _fts5ExprNearIsMatch       10083800 f   interop.obj
 0001:00082b30       _fts5ExprSynonymList       10083b30 f   interop.obj
 0001:00082db0       _sqlite3Fts5ConfigSetValue 10083db0 f   interop.obj
 0001:00082fa0       _sqlite3Fts5BufferSet      10083fa0 f   interop.obj
 0001:00082fb0       _sqlite3Fts5BufferAppendString 10083fb0 f   interop.obj
 0001:00082ff0       _sqlite3Fts5AuxInit        10083ff0 f   interop.obj
 0001:00083370       _sqlite3Fts3UnicodeTokenizer 10084370 f   interop.obj
 0001:00083380       _sqlite3Fts3CacheDeferredDoclists 10084380 f   interop.obj
 0001:00083620       _nodeReaderInit            10084620 f   interop.obj
 0001:00083680       _sqlite3Fts3HashInsert     10084680 f   interop.obj
 0001:000837c0       _getNextNode               100847c0 f   interop.obj
 0001:00083a20       _whereLoopAddBtree         10084a20 f   interop.obj
 0001:00083f10       _sqlite3VdbeSorterRewind   10084f10 f   interop.obj
 0001:00083f70       _sqlite3VdbeSorterWrite    10084f70 f   interop.obj
 0001:00084120       _checkList                 10085120 f   interop.obj
 0001:000842c0       _sqlite3BtreeUpdateMeta    100852c0 f   interop.obj
 0001:00084330       _allocateBtreePage         10085330 f   interop.obj
 0001:00084980       _moveToRightmost           10085980 f   interop.obj
 0001:000849e0       _moveToLeftmost            100859e0 f   interop.obj
 0001:00084a40       _moveToRoot                10085a40 f   interop.obj
 0001:00084b70       _copyPayload               10085b70 f   interop.obj
 0001:00084ba0       _newDatabase               10085ba0 f   interop.obj
 0001:00084c40       _ptrmapPut                 10085c40 f   interop.obj
 0001:00084d30       _sqlite3PagerMovepage      10085d30 f   interop.obj
 0001:00084e60       _pager_incr_changecounter  10085e60 f   interop.obj
 0001:00084ec0       _pagerStress               10085ec0 f   interop.obj
 0001:00084f80       _re_subcompile_string      10085f80 f   interop.obj
 0001:00085434       $LN248                     10086434     * CIL library *:* CIL module *
 0001:0008545c       $LN240                     1008645c     * CIL library *:* CIL module *
 0001:000854b8       $LN249                     100864b8     * CIL library *:* CIL module *
 0001:000854d8       $LN241                     100864d8     * CIL library *:* CIL module *
 0001:00085510       _re_subcompile_re          10086510 f   interop.obj
 0001:00085590       _jsonLookup                10086590 f   interop.obj
 0001:00085630       _jsonParse                 10086630 f   interop.obj
 0001:000856f0       _fts5StorageInsertCallback 100866f0 f   interop.obj
 0001:00085730       _fts5IntegrityCheckPgidx   10086730 f   interop.obj
 0001:00085880       _fts5MergePrefixLists      10086880 f   interop.obj
 0001:00085ea0       _sqlite3Fts5ExprPhraseCollist 10086ea0 f   interop.obj
 0001:00085f30       _sqlite3Fts5ExprPopulatePoslists 10086f30 f   interop.obj
 0001:00086000       _fts5ExprPhraseIsMatch     10087000 f   interop.obj
 0001:00086330       _sqlite3Fts5BufferAppendPrintf 10087330 f   interop.obj
 0001:000863b0       _fts3TruncateNode          100873b0 f   interop.obj
 0001:00086590       _fts3PendingTermsAddOne    10087590 f   interop.obj
 0001:00086650       _fts3TokenizerFunc         10087650 f   interop.obj
 0001:000867f0       _whereLoopAddOr            100877f0 f   interop.obj
 0001:00086c30       _checkTreePage             10087c30 f   interop.obj
 0001:00087130       _sqlite3BtreeCount         10088130 f   interop.obj
 0001:00087240       _fillInCell                10088240 f   interop.obj
 0001:000874e0       _freePage2                 100884e0 f   interop.obj
 0001:000877a0       _sqlite3BtreeLast          100887a0 f   interop.obj
 0001:00087800       _sqlite3BtreeFirst         10088800 f   interop.obj
 0001:00087830       _accessPayload             10088830 f   interop.obj
 0001:00087b40       _sqlite3BtreeSavepoint     10088b40 f   interop.obj
 0001:00087bc0       _sqlite3BtreeBeginTrans    10088bc0 f   interop.obj
 0001:00087de0       _sqlite3BtreeNewDb         10088de0 f   interop.obj
 0001:00087e20       _ptrmapPutOvflPtr          10088e20 f   interop.obj
 0001:00087e70       _sqlite3PagerCommitPhaseOne 10088e70 f   interop.obj
 0001:000880c0       _sqlite3PagerOpen          100890c0 f   interop.obj
 0001:000885e0       _sqlite3PagerFlush         100895e0 f   interop.obj
 0001:00088840       _jsonEachFilter            10089840 f   interop.obj
 0001:00088ad0       _jsonValidFunc             10089ad0 f   interop.obj
 0001:00088b20       _jsonTypeFunc              10089b20 f   interop.obj
 0001:00088bd0       _jsonSetFunc               10089bd0 f   interop.obj
 0001:00088d10       _jsonReplaceFunc           10089d10 f   interop.obj
 0001:00088df0       _jsonRemoveFunc            10089df0 f   interop.obj
 0001:00088e90       _jsonExtractFunc           10089e90 f   interop.obj
 0001:00089000       _jsonArrayLengthFunc       1008a000 f   interop.obj
 0001:00089120       _fts5PoslistBlob           1008a120 f   interop.obj
 0001:000892e0       _fts5DecodeRowidList       1008a2e0 f   interop.obj
 0001:00089380       _fts5DecodePoslist         1008a380 f   interop.obj
 0001:000893d0       _fts5DecodeAverages        1008a3d0 f   interop.obj
 0001:00089430       _fts5DebugStructure        1008a430 f   interop.obj
 0001:000894d0       _fts5DebugRowid            1008a4d0 f   interop.obj
 0001:00089580       _fts5ExprNearTest          1008a580 f   interop.obj
 0001:00089690       _fts5ConfigMakeExprlist    1008a690 f   interop.obj
 0001:00089740       _fts3PendingTermsAdd       1008a740 f   interop.obj
 0001:000898a0       _sqlite3Fts3InitHashTable  1008a8a0 f   interop.obj
 0001:000899e0       _whereLoopAddAll           1008a9e0 f   interop.obj
 0001:00089c20       _sqlite3VdbeCloseStatement 1008ac20 f   interop.obj
 0001:00089d50       _sqlite3BtreeSetVersion    1008ad50 f   interop.obj
 0001:00089dd0       _sqlite3BtreeIntegrityCheck 1008add0 f   interop.obj
 0001:0008a110       _insertCell                1008b110 f   interop.obj
 0001:0008a250       _clearCell                 1008b250 f   interop.obj
 0001:0008a3e0       _freePage                  1008b3e0 f   interop.obj
 0001:0008a400       _sqlite3BtreeMovetoUnpacked 1008b400 f   interop.obj
 0001:0008a7e0       _sqlite3BtreeKey           1008b7e0 f   interop.obj
 0001:0008a800       _setChildPtrmaps           1008b800 f   interop.obj
 0001:0008a8d0       _sqlite3BtreeOpen          1008b8d0 f   interop.obj
 0001:0008af50       _btreeMoveto               1008bf50 f   interop.obj
 0001:0008b070       _saveCursorKey             1008c070 f   interop.obj
 0001:0008b0f0       _re_sql_func               1008c0f0 f   interop.obj
 0001:0008b2f0       _fts5DecodeDoclist         1008c2f0 f   interop.obj
 0001:0008b430       _fts5DecodeStructure       1008c430 f   interop.obj
 0001:0008b480       _sqlite3Fts5ConfigParse    1008c480 f   interop.obj
 0001:0008b7a0       _fts3InsertTerms           1008c7a0 f   interop.obj
 0001:0008b830       _sqlite3OpenTempDatabase   1008c830 f   interop.obj
 0001:0008b8d0       _handleDeferredMoveto      1008c8d0 f   interop.obj
 0001:0008b940       _findBtree                 1008c940 f   interop.obj
 0001:0008ba30       _clearDatabasePage         1008ca30 f   interop.obj
 0001:0008bbd0       _copyNodeContent           1008cbd0 f   interop.obj
 0001:0008bca0       _balance_quick             1008cca0 f   interop.obj
 0001:0008be40       _relocatePage              1008ce40 f   interop.obj
 0001:0008bf70       _btreeRestoreCursorPosition 1008cf70 f   interop.obj
 0001:0008bfe0       _saveCursorPosition        1008cfe0 f   interop.obj
 0001:0008c060       _fts5DecodeFunction        1008d060 f   interop.obj
 0001:0008c640       _sqlite3CodeVerifySchema   1008d640 f   interop.obj
 0001:0008c820       _balance_deeper            1008d820 f   interop.obj
 0001:0008c930       _balance_nonroot           1008d930 f   interop.obj
 0001:0008dc70       _btreePrevious             1008ec70 f   interop.obj
 0001:0008dd60       _btreeNext                 1008ed60 f   interop.obj
 0001:0008de50       _sqlite3BtreeData          1008ee50 f   interop.obj
 0001:0008dea0       _sqlite3BtreeTripAllCursors 1008eea0 f   interop.obj
 0001:0008df90       _incrVacuumStep            1008ef90 f   interop.obj
 0001:0008e160       _sqlite3BtreeCursorRestore 1008f160 f   interop.obj
 0001:0008e190       _saveCursorsOnList         1008f190 f   interop.obj
 0001:0008e1e0       _saveAllCursors            1008f1e0 f   interop.obj
 0001:0008e220       _sqlite3Fts5IndexInit      1008f220 f   interop.obj
 0001:0008e290       _sqlite3WhereBegin         1008f290 f   interop.obj
 0001:0008ebb0       _fkScanChildren            1008fbb0 f   interop.obj
 0001:0008eeb0       _sqlite3BeginWriteOperation 1008feb0 f   interop.obj
 0001:0008eef0       _sqlite3CodeVerifyNamedSchema 1008fef0 f   interop.obj
 0001:0008ef50       _sqlite3CodeDropTable      1008ff50 f   interop.obj
 0001:0008f0a0       _analyzeTable              100900a0 f   interop.obj
 0001:0008f140       _analyzeDatabase           10090140 f   interop.obj
 0001:0008f1d0       _handleMovedCursor         100901d0 f   interop.obj
 0001:0008f200       _vdbeMemFromBtreeResize    10090200 f   interop.obj
 0001:0008f2f0       _sqlite3BtreePutData       100902f0 f   interop.obj
 0001:0008f360       _sqlite3BtreeClearTable    10090360 f   interop.obj
 0001:0008f3d0       _btreeCreateTable          100903d0 f   interop.obj
 0001:0008f660       _balance                   10090660 f   interop.obj
 0001:0008f7b0       _sqlite3BtreePrevious      100907b0 f   interop.obj
 0001:0008f810       _sqlite3BtreeNext          10090810 f   interop.obj
 0001:0008f880       _sqlite3BtreeRollback      10090880 f   interop.obj
 0001:0008f960       _autoVacuumCommit          10090960 f   interop.obj
 0001:0008fad0       _sqlite3BtreeIncrVacuum    10090ad0 f   interop.obj
 0001:0008fbc0       _sqlite3BtreeClose         10090bc0 f   interop.obj
 0001:0008fc80       _sqlite3RollbackAll        10090c80 f   interop.obj
 0001:0008fdb0       _sqlite3LeaveMutexAndCloseZombie 10090db0 f   interop.obj
 0001:0008ffc0       _sqlite3Close              10090fc0 f   interop.obj
 0001:000900c0       _sqlite3FinishTrigger      100910c0 f   interop.obj
 0001:00090340       _invalidateTempStorage     10091340 f   interop.obj
 0001:00090390       _reindexTable              10091390 f   interop.obj
 0001:00090420       _detachFunc                10091420 f   interop.obj
 0001:00090570       _sqlite3VdbeCursorMoveto   10091570 f   interop.obj
 0001:000905c0       _sqlite3VdbeCursorRestore  100915c0 f   interop.obj
 0001:000905e0       _sqlite3VdbeFreeCursor     100915e0 f   interop.obj
 0001:00090630       _sqlite3VdbeFrameDelete    10091630 f   interop.obj
 0001:00090690       _resolveP2Values           10091690 f   interop.obj
 0001:00090788       $LN54                      10091788     * CIL library *:* CIL module *
 0001:000907c0       _sqlite3VdbeMemFromBtree   100917c0 f   interop.obj
 0001:00090910       _btreeDropTable            10091910 f   interop.obj
 0001:00090b20       _sqlite3BtreeClearTableOfCursor 10091b20 f   interop.obj
 0001:00090b40       _sqlite3BtreeCreateTable   10091b40 f   interop.obj
 0001:00090b80       _sqlite3BtreeDelete        10091b80 f   interop.obj
 0001:00090e70       _sqlite3BtreeInsert        10091e70 f   interop.obj
 0001:00091070       _sqlite3BtreeCommitPhaseOne 10092070 f   interop.obj
 0001:00091220       _changeTempStorage         10092220 f   interop.obj
 0001:00091260       _reindexDatabases          10092260 f   interop.obj
 0001:000912e0       _allocateCursor            100922e0 f   interop.obj
 0001:000913d0       _sqlite3VdbeIdxKeyCompare  100923d0 f   interop.obj
 0001:00091490       _sqlite3VdbeIdxRowid       10092490 f   interop.obj
 0001:000915d0       _vdbeCommit                100925d0 f   interop.obj
 0001:00091b50       _closeCursorsInFrame       10092b50 f   interop.obj
 0001:00091b90       _sqlite3VdbeMakeReady      10092b90 f   interop.obj
 0001:00091df0       _sqlite3VdbeTakeOpArray    10092df0 f   interop.obj
 0001:00092350       _sqlite3BtreeDropTable     10093350 f   interop.obj
 0001:00092390       _sqlite3BtreeCommit        10093390 f   interop.obj
 0001:000925e0       _schemaIsValid             100935e0 f   interop.obj
 0001:000926b0       _sqlite3VdbeFrameRestore   100936b0 f   interop.obj
 0001:00092740       _sqlite3BtreeCopyFile      10093740 f   interop.obj
 0001:00092860       _closeAllCursors           10093860 f   interop.obj
 0001:00092900       _sqlite3VdbeHalt           10093900 f   interop.obj
 0001:00092bd0       _sqlite3VdbeReset          10093bd0 f   interop.obj
 0001:00092d10       _sqlite3VdbeFinalize       10093d10 f   interop.obj
 0001:00092d40       _fts5StorageGetStmt        10093d40 f   interop.obj
 0001:00092f40       $LN232                     10093f40     * CIL library *:* CIL module *
 0001:00092f54       $LN228                     10093f54     * CIL library *:* CIL module *
 0001:00092f80       _statResetCsr              10093f80 f   interop.obj
 0001:00092fd0       _vacuumFinalize            10093fd0 f   interop.obj
 0001:00093410       _blobReadWrite             10094410 f   interop.obj
 0001:00093660       _sqlite3Fts5StorageStmtRelease 10094660 f   interop.obj
 0001:000936a0       _sqlite3Fts5StorageStmt    100946a0 f   interop.obj
 0001:000936d0       _sqlite3Fts5StorageClose   100946d0 f   interop.obj
 0001:00093710       _fts5ExecPrintf            10094710 f   interop.obj
 0001:00093760       _sqlite3Fts5IndexClose     10094760 f   interop.obj
 0001:00093820       _statClose                 10094820 f   interop.obj
 0001:00093850       _rtreeRename               10094850 f   interop.obj
 0001:000938b0       _rtreeConstraintError      100948b0 f   interop.obj
 0001:00093990       _rtreeRelease              10094990 f   interop.obj
 0001:00093a10       _fts3auxDisconnectMethod   10094a10 f   interop.obj
 0001:00093a60       _fts3ContentColumns        10094a60 f   interop.obj
 0001:00093c00       _fts3DbExec                10094c00 f   interop.obj
 0001:00093c50       _fts3DisconnectMethod      10094c50 f   interop.obj
 0001:00093ce0       _execSql                   10094ce0 f   interop.obj
 0001:00093f70       _sqlite3InitCallback       10094f70 f   interop.obj
 0001:00094110       _loadStatTbl               10095110 f   interop.obj
 0001:00094580       _sqlite3Fts5CreateTable    10095580 f   interop.obj
 0001:00094600       _fts5StorageRenameOne      10095600 f   interop.obj
 0001:00094640       _sqlite3Fts5DropAll        10095640 f   interop.obj
 0001:000946b0       _fts5FreeVtab              100956b0 f   interop.obj
 0001:000946e0       _fts5CloseReader           100956e0 f   interop.obj
 0001:00094720       _rtreeDestroy              10095720 f   interop.obj
 0001:00094780       _rtreeDisconnect           10095780 f   interop.obj
 0001:00094790       _sqlite3Fts3SegReaderFree  10095790 f   interop.obj
 0001:000947d0       _fts3SegReaderSetEof       100957d0 f   interop.obj
 0001:00094800       _fts3SegReaderIncrRead     10095800 f   interop.obj
 0001:00094870       _sqlite3Fts3SegmentsClose  10095870 f   interop.obj
 0001:00094890       _fts3SegReaderCursorAppend 10095890 f   interop.obj
 0001:00094910       _sqlite3Fts3CreateStatTable 10095910 f   interop.obj
 0001:00094940       _fts3DestroyMethod         10095940 f   interop.obj
 0001:000949e0       _execExecSql               100959e0 f   interop.obj
 0001:00094a90       _loadStat4                 10095a90 f   interop.obj
 0001:00094ef0       _fts5DestroyMethod         10095ef0 f   interop.obj
 0001:00094f20       _fts5DisconnectMethod      10095f20 f   interop.obj
 0001:00094f40       _sqlite3Fts5IterClose      10095f40 f   interop.obj
 0001:00094f70       _sqlite3Fts5IndexRollback  10095f70 f   interop.obj
 0001:00094fc0       _fts5ExprPhraseFree        10095fc0 f   interop.obj
 0001:00095080       _sqlite3Fts3SegReaderFinish 10096080 f   interop.obj
 0001:000950d0       _fts3SegReaderRequire      100960d0 f   interop.obj
 0001:00095110       _fts3auxCloseMethod        10096110 f   interop.obj
 0001:00095170       _fts3SegReaderCursorFree   10096170 f   interop.obj
 0001:00095190       _fts3CreateTables          10096190 f   interop.obj
 0001:000952d0       _sqlite3RunVacuum          100962d0 f   interop.obj
 0001:000956c0       _sqlite3AnalysisLoad       100966c0 f   interop.obj
 0001:00095810       _sqlite3VdbeExec           10096810 f   interop.obj
 0001:0009bd74       $LN3271                    1009cd74     * CIL library *:* CIL module *
 0001:0009bff0       $LN3272                    1009cff0     * CIL library *:* CIL module *
 0001:0009c000       $LN3273                    1009d000     * CIL library *:* CIL module *
 0001:0009c010       $LN3274                    1009d010     * CIL library *:* CIL module *
 0001:0009c030       _sqlite3Step               1009d030 f   interop.obj
 0001:0009c190       _fts5VocabResetCursor      1009d190 f   interop.obj
 0001:0009c1d0       _sqlite3Fts5StorageRollback 1009d1d0 f   interop.obj
 0001:0009c1f0       _fts5RollbackToMethod      1009d1f0 f   interop.obj
 0001:0009c220       _fts5RollbackMethod        1009d220 f   interop.obj
 0001:0009c240       _sqlite3Fts5ParseTerm      1009d240 f   interop.obj
 0001:0009c3c0       _sqlite3Fts5ParseNearsetFree 1009d3c0 f   interop.obj
 0001:0009c400       _sqlite3Fts5ParsePhraseFree 1009d400 f   interop.obj
 0001:0009c410       _sqlite3Fts5ParseNearset   1009d410 f   interop.obj
 0001:0009c540       _sqlite3Fts5ParseNodeFree  1009d540 f   interop.obj
 0001:0009c590       _fts5yy_destructor         1009d590 f   interop.obj
 0001:0009c5cc       $LN285                     1009d5cc     * CIL library *:* CIL module *
 0001:0009c5f0       _fts3SegReaderNextDocid    1009d5f0 f   interop.obj
 0001:0009c760       _fts3SegReaderFirstDocid   1009d760 f   interop.obj
 0001:0009c810       _sqlite3Fts3EvalPhraseCleanup 1009d810 f   interop.obj
 0001:0009c8a0       _sqlite3InitOne            1009d8a0 f   interop.obj
 0001:0009cc00       _fts5VocabCloseMethod      1009dc00 f   interop.obj
 0001:0009cc50       _sqlite3Fts5ExprFree       1009dc50 f   interop.obj
 0001:0009cc80       _fts5yy_pop_parser_stack   1009dc80 f   interop.obj
 0001:0009ccc8       $LN282                     1009dcc8     * CIL library *:* CIL module *
 0001:0009ccf0       _sqlite3Fts3MsrIncrNext    1009dcf0 f   interop.obj
 0001:0009ce50       _fts3FreeExprNode          1009de50 f   interop.obj
 0001:0009ce80       _incrPhraseTokenNext       1009de80 f   interop.obj
 0001:0009cf10       _sqlite3Init               1009df10 f   interop.obj
 0001:0009cff0       _attachFunc                1009dff0 f   interop.obj
 0001:0009d43c       $LN321                     1009e43c     * CIL library *:* CIL module *
 0001:0009d450       _fts5FreeCursorComponents  1009e450 f   interop.obj
 0001:0009d560       _fts5yyStackOverflow       1009e560 f   interop.obj
 0001:0009d5a0       _sqlite3Fts5ParserFree     1009e5a0 f   interop.obj
 0001:0009d5d0       _sqlite3Fts3ExprFree       1009e5d0 f   interop.obj
 0001:0009d660       _fts3ExprBalance           1009e660 f   interop.obj
 0001:0009d9d0       _fts3ExprParse             1009e9d0 f   interop.obj
 0001:0009dc40       _fts3EvalIncrPhraseNext    1009ec40 f   interop.obj
 0001:0009e010       _fts3CloseMethod           1009f010 f   interop.obj
 0001:0009e310       _sqlite3ReadSchema         1009f310 f   interop.obj
 0001:0009e340       _sqlite3Reindex            1009f340 f   interop.obj
 0001:0009e4b0       _sqlite3DropIndex          1009f4b0 f   interop.obj
 0001:0009e6b0       _sqlite3StartTable         1009f6b0 f   interop.obj
 0001:0009eb10       _sqlite3LocateTable        1009fb10 f   interop.obj
 0001:0009ec00       _sqlite3Analyze            1009fc00 f   interop.obj
 0001:0009ed70       _fts5CloseMethod           1009fd70 f   interop.obj
 0001:0009edb0       _fts5yy_shift              1009fdb0 f   interop.obj
 0001:0009ee80       _fts3ExprParseUnbalanced   1009fe80 f   interop.obj
 0001:0009ef00       _fts3EvalPhraseNext        1009ff00 f   interop.obj
 0001:0009ef80       _sqlite3VtabBeginParse     1009ff80 f   interop.obj
 0001:0009f070       _sqlite3DropTrigger        100a0070 f   interop.obj
 0001:0009f180       _sqlite3Pragma             100a0180 f   interop.obj
 0001:000a1afc       $LN2593                    100a2afc     * CIL library *:* CIL module *
 0001:000a1ba0       $LN2594                    100a2ba0     * CIL library *:* CIL module *
 0001:000a1bb0       $LN2595                    100a2bb0     * CIL library *:* CIL module *
 0001:000a1bc0       _sqlite3FkCheck            100a2bc0 f   interop.obj
 0001:000a2040       _sqlite3LocateTableItem    100a3040 f   interop.obj
 0001:000a20b0       _sqlite3AlterBeginAddColumn 100a30b0 f   interop.obj
 0001:000a22c0       _sqlite3AlterRenameTable   100a32c0 f   interop.obj
 0001:000a2660       _sqlite3Fts3ExprParse      100a3660 f   interop.obj
 0001:000a2760       _fts3EvalNextRow           100a3760 f   interop.obj
 0001:000a2b80       $LN208                     100a3b80     * CIL library *:* CIL module *
 0001:000a2b90       _selectExpander            100a3b90 f   interop.obj
 0001:000a3370       _xferOptimization          100a4370 f   interop.obj
 0001:000a3b40       _sqlite3SrcListLookup      100a4b40 f   interop.obj
 0001:000a3ba0       _sqlite3CreateIndex        100a4ba0 f   interop.obj
 0001:000a4780       _convertToWithoutRowidTable 100a5780 f   interop.obj
 0001:000a4b50       _sqlite3AddPrimaryKey      100a5b50 f   interop.obj
 0001:000a4d10       _sqlite3BeginTrigger       100a5d10 f   interop.obj
 0001:000a5120       _sqlite3SelectExpand       100a6120 f   interop.obj
 0001:000a5190       _sqlite3SelectPrep         100a6190 f   interop.obj
 0001:000a5240       _sqlite3Select             100a6240 f   interop.obj
 0001:000a6780       _sqlite3MaterializeView    100a7780 f   interop.obj
 0001:000a6890       _sqlite3EndTable           100a7890 f   interop.obj
 0001:000a6d20       _sqlite3CodeSubselect      100a7d20 f   interop.obj
 0001:000a7190       _sqlite3FindInIndex        100a8190 f   interop.obj
 0001:000a7500       _sqlite3CreateView         100a8500 f   interop.obj
 0001:000a76e0       _sqlite3ExprCodeIN         100a86e0 f   interop.obj
 0001:000a7a30       _sqlite3ExprIfTrue         100a8a30 f   interop.obj
 0001:000a7cd0       $LN136                     100a8cd0     * CIL library *:* CIL module *
 0001:000a7cf4       $LN130                     100a8cf4     * CIL library *:* CIL module *
 0001:000a7d80       _sqlite3ExprIfFalse        100a8d80 f   interop.obj
 0001:000a8044       $LN139                     100a9044     * CIL library *:* CIL module *
 0001:000a8068       $LN133                     100a9068     * CIL library *:* CIL module *
 0001:000a80f0       _sqlite3ExprCodeTarget     100a90f0 f   interop.obj
 0001:000a8d9c       $LN686                     100a9d9c     * CIL library *:* CIL module *
 0001:000a8e00       $LN669                     100a9e00     * CIL library *:* CIL module *
 0001:000a8e90       _sqlite3ExprCode           100a9e90 f   interop.obj
 0001:000a8ef0       _updateVirtualTable        100a9ef0 f   interop.obj
 0001:000a91c0       _sqlite3GenerateConstraintChecks 100aa1c0 f   interop.obj
 0001:000a9c28       $LN580                     100aac28     * CIL library *:* CIL module *
 0001:000a9c38       $LN581                     100aac38     * CIL library *:* CIL module *
 0001:000a9c50       _sqlite3FinishCoding       100aac50 f   interop.obj
 0001:000a9ee0       _codeAttach                100aaee0 f   interop.obj
 0001:000aa0c0       _sqlite3ExprCodeAndCache   100ab0c0 f   interop.obj
 0001:000aa110       _sqlite3ExprCodeFactorable 100ab110 f   interop.obj
 0001:000aa160       _sqlite3Update             100ab160 f   interop.obj
 0001:000ab3c0       _sqlite3Insert             100ac3c0 f   interop.obj
 0001:000ac580       _sqlite3Attach             100ad580 f   interop.obj
 0001:000ac5a0       _sqlite3Detach             100ad5a0 f   interop.obj
 0001:000ac5c0       _codeTriggerProgram        100ad5c0 f   interop.obj
 0001:000ac760       _codeRowTrigger            100ad760 f   interop.obj
 0001:000aca20       _getRowTrigger             100ada20 f   interop.obj
 0001:000aca70       _sqlite3CodeRowTriggerDirect 100ada70 f   interop.obj
 0001:000acb10       _sqlite3CodeRowTrigger     100adb10 f   interop.obj
 0001:000acb80       _sqlite3GenerateRowDelete  100adb80 f   interop.obj
 0001:000ace50       _sqlite3DeleteFrom         100ade50 f   interop.obj
 0001:000ad890       _sqlite3FkDropTable        100ae890 f   interop.obj
 0001:000ad9d0       _sqlite3DropTable          100ae9d0 f   interop.obj
 0001:000adc60       _yy_reduce                 100aec60 f   interop.obj
 0001:000af6e0       $LN2307                    100b06e0     * CIL library *:* CIL module *
 0001:000afb20       _sqlite3Parser             100b0b20 f   interop.obj
 0001:000afbd0       _sqlite3RunParser          100b0bd0 f   interop.obj
 0001:000b0230       _sqlite3Prepare            100b1230 f   interop.obj
 0001:000b0560       _jsonEachConnect           100b1560 f   interop.obj
 0001:000b05d0       _fts5VocabInitVtab         100b15d0 f   interop.obj
 0001:000b0730       _sqlite3Fts5ConfigDeclareVtab 100b1730 f   interop.obj
 0001:000b07d0       _statConnect               100b17d0 f   interop.obj
 0001:000b08e0       _fts3tokConnectMethod      100b18e0 f   interop.obj
 0001:000b0a10       _fts3auxConnectMethod      100b1a10 f   interop.obj
 0001:000b0b90       _fts3DeclareVtab           100b1b90 f   interop.obj
 0001:000b0c60       _sqlite3LockAndPrepare     100b1c60 f   interop.obj
 0001:000b0d50       _fts5VocabCreateMethod     100b1d50 f   interop.obj
 0001:000b0d70       _fts5VocabConnectMethod    100b1d70 f   interop.obj
 0001:000b0d90       _sqlite3Fts3InitTok        100b1d90 f   interop.obj
 0001:000b0df0       _sqlite3Prepare16          100b1df0 f   interop.obj
 0001:000b0f40       _sqlite3Reprepare          100b1f40 f   interop.obj
 0001:000b1130       _fts5VocabOpenMethod       100b2130 f   interop.obj
 0001:000b12c0       _sqlite3Fts5StorageDocsize 100b22c0 f   interop.obj
 0001:000b13c0       _fts5StorageCount          100b23c0 f   interop.obj
 0001:000b1490       _fts5StorageNewRowid       100b2490 f   interop.obj
 0001:000b1560       _fts5StorageInsertDocsize  100b2560 f   interop.obj
 0001:000b1610       _fts5SeekCursor            100b2610 f   interop.obj
 0001:000b16e0       _fts5FindRankFunction      100b26e0 f   interop.obj
 0001:000b1840       _fts5SorterNext            100b2840 f   interop.obj
 0001:000b1970       _fts5IndexDataVersion      100b2970 f   interop.obj
 0001:000b1a40       _fts5DataDelete            100b2a40 f   interop.obj
 0001:000b1b00       _fts5DataWrite             100b2b00 f   interop.obj
 0001:000b1bc0       _sqlite3Fts5ConfigLoad     100b2bc0 f   interop.obj
 0001:000b1d40       _statNext                  100b2d40 f   interop.obj
 0001:000b2270       $LN408                     100b3270     * CIL library *:* CIL module *
 0001:000b227c       $LN400                     100b327c     * CIL library *:* CIL module *
 0001:000b2290       _getIntFromStmt            100b3290 f   interop.obj
 0001:000b2310       _rtreeQueryStat1           100b3310 f   interop.obj
 0001:000b2490       _newRowid                  100b3490 f   interop.obj
 0001:000b2520       _parentWrite               100b3520 f   interop.obj
 0001:000b2570       _rowidWrite                100b3570 f   interop.obj
 0001:000b25c0       _nodeWrite                 100b35c0 f   interop.obj
 0001:000b26c0       _nodeAcquire               100b36c0 f   interop.obj
 0001:000b2920       _fts3DoAutoincrmerge       100b3920 f   interop.obj
 0001:000b29f0       _fts3IncrmergeHintLoad     100b39f0 f   interop.obj
 0001:000b2ae0       _fts3IncrmergeHintStore    100b3ae0 f   interop.obj
 0001:000b2b80       _fts3RepackSegdirLevel     100b3b80 f   interop.obj
 0001:000b2d30       _fts3RemoveSegdirEntry     100b3d30 f   interop.obj
 0001:000b2da0       _fts3IncrmergeOutputIdx    100b3da0 f   interop.obj
 0001:000b2e20       _fts3IsAppendable          100b3e20 f   interop.obj
 0001:000b2e80       _fts3IncrmergeCsr          100b3e80 f   interop.obj
 0001:000b3070       _fts3UpdateDocTotals       100b4070 f   interop.obj
 0001:000b3370       _fts3InsertDocsize         100b4370 f   interop.obj
 0001:000b34d0       _fts3PromoteSegments       100b44d0 f   interop.obj
 0001:000b3760       _fts3DeleteSegment         100b4760 f   interop.obj
 0001:000b37d0       _fts3SegmentIsMaxLevel     100b47d0 f   interop.obj
 0001:000b3890       _fts3SegmentMaxLevel       100b4890 f   interop.obj
 0001:000b3970       _fts3IsEmpty               100b4970 f   interop.obj
 0001:000b39f0       _fts3WriteSegdir           100b49f0 f   interop.obj
 0001:000b3b20       _sqlite3Fts3MaxLevel       100b4b20 f   interop.obj
 0001:000b3b90       _fts3WriteSegment          100b4b90 f   interop.obj
 0001:000b3c30       _fts3AllocateSegdirIdx     100b4c30 f   interop.obj
 0001:000b3d10       _fts3InsertData            100b4d10 f   interop.obj
 0001:000b3e50       _fts3Writelock             100b4e50 f   interop.obj
 0001:000b3ec0       _fts3SqlExec               100b4ec0 f   interop.obj
 0001:000b3f10       _sqlite3Fts3SelectDoctotal 100b4f10 f   interop.obj
 0001:000b3fd0       _fts3SelectDocsize         100b4fd0 f   interop.obj
 0001:000b4080       _fts3EvalAverageDocsize    100b5080 f   interop.obj
 0001:000b41b0       _fts3SetHasStat            100b51b0 f   interop.obj
 0001:000b4260       _fts3CursorSeek            100b5260 f   interop.obj
 0001:000b42f0       _fts3DatabasePageSize      100b52f0 f   interop.obj
 0001:000b43f0       _blobSeekToRow             100b53f0 f   interop.obj
 0001:000b4550       _sqlite3Fts5StorageContentInsert 100b5550 f   interop.obj
 0001:000b4620       _fts5ColumnMethod          100b5620 f   interop.obj
 0001:000b4770       _fts5ApiColumnText         100b5770 f   interop.obj
 0001:000b4810       _fts5CursorFirstSorted     100b5810 f   interop.obj
 0001:000b4940       _sqlite3Fts5IndexReset     100b5940 f   interop.obj
 0001:000b4980       _sqlite3Fts5IndexSetAverages 100b5980 f   interop.obj
 0001:000b49b0       _fts5WriteFlushLeaf        100b59b0 f   interop.obj
 0001:000b4a60       _fts5WriteDlidxAppend      100b5a60 f   interop.obj
 0001:000b4c30       _fts5WriteDlidxClear       100b5c30 f   interop.obj
 0001:000b4cd0       _fts5StructureWrite        100b5cd0 f   interop.obj
 0001:000b4e40       _fts5DataRemoveSegment     100b5e40 f   interop.obj
 0001:000b4f50       _statFilter                100b5f50 f   interop.obj
 0001:000b5050       _getNodeSize               100b6050 f   interop.obj
 0001:000b5110       _rtreeSqlInit              100b6110 f   interop.obj
 0001:000b5250       _fixLeafParent             100b6250 f   interop.obj
 0001:000b5350       _findLeafNode              100b6350 f   interop.obj
 0001:000b5400       _rtreeNodeOfFirstSearchPoint 100b6400 f   interop.obj
 0001:000b5460       _nodeRelease               100b6460 f   interop.obj
 0001:000b54d0       _fts3MatchinfoSelectDoctotal 100b64d0 f   interop.obj
 0001:000b5550       _fts3IncrmergeWriter       100b6550 f   interop.obj
 0001:000b5730       _fts3IncrmergeRelease      100b6730 f   interop.obj
 0001:000b58b0       _fts3IncrmergePush         100b68b0 f   interop.obj
 0001:000b5ae0       _fts3DeleteSegdir          100b6ae0 f   interop.obj
 0001:000b5c00       _fts3SegWriterAdd          100b6c00 f   interop.obj
 0001:000b5fb0       _fts3NodeWrite             100b6fb0 f   interop.obj
 0001:000b60c0       _fts3DeleteAll             100b70c0 f   interop.obj
 0001:000b61f0       _sqlite3Fts3SelectDocsize  100b71f0 f   interop.obj
 0001:000b6210       _sqlite3Fts3EvalTestDeferred 100b7210 f   interop.obj
 0001:000b62a0       _fts3BeginMethod           100b72a0 f   interop.obj
 0001:000b62c0       _fts3ColumnMethod          100b72c0 f   interop.obj
 0001:000b6430       _fts3InitVtab              100b7430 f   interop.obj
 0001:000b73c8       $LN644                     100b83c8     * CIL library *:* CIL module *
 0001:000b7a70       _sqlite3Fts5StorageReset   100b8a70 f   interop.obj
 0001:000b7a80       _fts5StorageSaveTotals     100b8a80 f   interop.obj
 0001:000b7b40       _fts5ApiColumnSize         100b8b40 f   interop.obj
 0001:000b7c90       _fts5CsrPoslist            100b8c90 f   interop.obj
 0001:000b7e00       _fts5NewTransaction        100b8e00 f   interop.obj
 0001:000b7e30       _sqlite3Fts5IndexSetCookie 100b8e30 f   interop.obj
 0001:000b7ea0       _sqlite3Fts5IndexReinit    100b8ea0 f   interop.obj
 0001:000b7f20       _fts5WriteAppendPoslistData 100b8f20 f   interop.obj
 0001:000b7fe0       _fts5WriteAppendRowid      100b8fe0 f   interop.obj
 0001:000b8080       _fts5WriteFlushDlidx       100b9080 f   interop.obj
 0001:000b80c0       _fts5DataRead              100b90c0 f   interop.obj
 0001:000b8210       _sqlite3DbstatRegister     100b9210 f   interop.obj
 0001:000b8270       _rtreeInit                 100b9270 f   interop.obj
 0001:000b8540       _deleteCell                100b9540 f   interop.obj
 0001:000b85d0       _removeNode                100b95d0 f   interop.obj
 0001:000b86d0       _updateMapping             100b96d0 f   interop.obj
 0001:000b8770       _ChooseLeaf                100b9770 f   interop.obj
 0001:000b8960       _rtreeColumn               100b9960 f   interop.obj
 0001:000b8a60       _rtreeRowid                100b9a60 f   interop.obj
 0001:000b8ad0       _rtreeSearchPointSwap      100b9ad0 f   interop.obj
 0001:000b8b50       _rtreeClose                100b9b50 f   interop.obj
 0001:000b8bb0       _rtreeConnect              100b9bb0 f   interop.obj
 0001:000b8be0       _rtreeCreate               100b9be0 f   interop.obj
 0001:000b8c10       _fts3IncrmergeAppend       100b9c10 f   interop.obj
 0001:000b8df0       _fts3SegWriterFlush        100b9df0 f   interop.obj
 0001:000b8ed0       _sqlite3Fts3ReadBlock      100b9ed0 f   interop.obj
 0001:000b9030       _fts3EvalNext              100ba030 f   interop.obj
 0001:000b90f0       _fts3NextMethod            100ba0f0 f   interop.obj
 0001:000b9170       _fts3SelectLeaf            100ba170 f   interop.obj
 0001:000b9290       _fts3CreateMethod          100ba290 f   interop.obj
 0001:000b92c0       _fts3ConnectMethod         100ba2c0 f   interop.obj
 0001:000b92f0       _sqlite3Fts5StorageConfigValue 100ba2f0 f   interop.obj
 0001:000b93a0       _sqlite3Fts5StorageDeleteAll 100ba3a0 f   interop.obj
 0001:000b9410       _sqlite3Fts5StorageOpen    100ba410 f   interop.obj
 0001:000b9600       _fts5ApiPhraseFirstColumn  100ba600 f   interop.obj
 0001:000b9700       _fts5ApiPhraseFirst        100ba700 f   interop.obj
 0001:000b9750       _fts5CacheInstArray        100ba750 f   interop.obj
 0001:000b9950       _fts5BeginMethod           100ba950 f   interop.obj
 0001:000b9970       _fts5OpenMethod            100ba970 f   interop.obj
 0001:000b9a30       _fts5IndexIntegrityCheckEmpty 100baa30 f   interop.obj
 0001:000b9ac0       _sqlite3Fts5IndexGetAverages 100baac0 f   interop.obj
 0001:000b9b80       _sqlite3Fts5IndexOpen      100bab80 f   interop.obj
 0001:000b9c40       _fts5MergeChunkCallback    100bac40 f   interop.obj
 0001:000b9c60       _fts5TrimSegments          100bac60 f   interop.obj
 0001:000b9e60       _fts5WriteFlushBtree       100bae60 f   interop.obj
 0001:000b9f20       _fts5ChunkIterate          100baf20 f   interop.obj
 0001:000ba000       _fts5SegIterReverse        100bb000 f   interop.obj
 0001:000ba1a0       _fts5SegIterReverseNewPage 100bb1a0 f   interop.obj
 0001:000ba280       _fts5SegIterNextPage       100bb280 f   interop.obj
 0001:000ba320       _fts5DlidxIterPrevR        100bb320 f   interop.obj
 0001:000ba3e0       _fts5DlidxIterLast         100bb3e0 f   interop.obj
 0001:000ba4a0       _fts5DlidxIterNextR        100bb4a0 f   interop.obj
 0001:000ba550       _fts5StructureReadUncached 100bb550 f   interop.obj
 0001:000ba5f0       _Reinsert                  100bb5f0 f   interop.obj
 0001:000baac0       _SplitNode                 100bbac0 f   interop.obj
 0001:000baf40       _rtreeSearchPointPop       100bbf40 f   interop.obj
 0001:000bb060       _rtreeEnqueue              100bc060 f   interop.obj
 0001:000bb150       _fts3TruncateSegment       100bc150 f   interop.obj
 0001:000bb4d0       _fts3IncrmergeLoad         100bc4d0 f   interop.obj
 0001:000bb9b0       _sqlite3Fts3MsrOvfl        100bc9b0 f   interop.obj
 0001:000bba70       _fts3SegReaderNext         100bca70 f   interop.obj
 0001:000bbd20       _fts3EvalTokenCosts        100bcd20 f   interop.obj
 0001:000bbe10       _fts3SegReaderCursor       100bce10 f   interop.obj
 0001:000bc0a0       _fts5StorageLoadTotals     100bd0a0 f   interop.obj
 0001:000bc0d0       _fts5ApiInst               100bd0d0 f   interop.obj
 0001:000bc130       _fts5ApiInstCount          100bd130 f   interop.obj
 0001:000bc160       _fts5WriteFinish           100bd160 f   interop.obj
 0001:000bc260       _fts5WriteBtreeTerm        100bd260 f   interop.obj
 0001:000bc2a0       _fts5SegiterPoslist        100bd2a0 f   interop.obj
 0001:000bc380       _fts5SegIterGotoPage       100bd380 f   interop.obj
 0001:000bc410       _fts5SegIterNext_Reverse   100bd410 f   interop.obj
 0001:000bc490       _fts5SegIterLoadRowid      100bd490 f   interop.obj
 0001:000bc4e0       _fts5DlidxIterInit         100bd4e0 f   interop.obj
 0001:000bc610       _fts5DlidxIterPrev         100bd610 f   interop.obj
 0001:000bc620       _fts5DlidxIterNext         100bd620 f   interop.obj
 0001:000bc630       _fts5StructureRead         100bd630 f   interop.obj
 0001:000bc680       _rtreeInsertCell           100bd680 f   interop.obj
 0001:000bc790       _rtreeSearchPointNew       100bd790 f   interop.obj
 0001:000bc880       _fts3IncrmergeChomp        100bd880 f   interop.obj
 0001:000bc940       _sqlite3Fts3SegReaderStep  100bd940 f   interop.obj
 0001:000bcee0       _fts3SegReaderStart        100bdee0 f   interop.obj
 0001:000bcfa0       _fts3auxNextMethod         100bdfa0 f   interop.obj
 0001:000bd1f0       _fts3SegReaderCursorAddZero 100be1f0 f   interop.obj
 0001:000bd210       _sqlite3Fts3SegReaderCursor 100be210 f   interop.obj
 0001:000bd250       _sqlite3Fts5StorageRowCount 100be250 f   interop.obj
 0001:000bd290       _sqlite3Fts5StorageSize    100be290 f   interop.obj
 0001:000bd340       _fts5ApiRowCount           100be340 f   interop.obj
 0001:000bd360       _fts5ApiColumnTotalSize    100be360 f   interop.obj
 0001:000bd380       _fts5IndexIntegrityCheckSegment 100be380 f   interop.obj
 0001:000bd720       _sqlite3Fts5IndexLoadConfig 100be720 f   interop.obj
 0001:000bd740       _fts5WriteAppendTerm       100be740 f   interop.obj
 0001:000bd8c0       _fts5IterSetOutputs_Full   100be8c0 f   interop.obj
 0001:000bd970       _fts5IterSetOutputs_Col    100be970 f   interop.obj
 0001:000bd9c0       _fts5IterSetOutputs_Nocolset 100be9c0 f   interop.obj
 0001:000bda20       _fts5SegIterNextFrom       100bea20 f   interop.obj
 0001:000bdb40       _fts5LeafSeek              100beb40 f   interop.obj
 0001:000bddf0       _fts5SegIterLoadDlidx      100bedf0 f   interop.obj
 0001:000bde40       _fts5SegIterLoadTerm       100bee40 f   interop.obj
 0001:000bdef0       _reinsertNodeContent       100beef0 f   interop.obj
 0001:000bdfa0       _rtreeStepToLeaf           100befa0 f   interop.obj
 0001:000be1c0       _sqlite3Fts3MsrIncrStart   100bf1c0 f   interop.obj
 0001:000be270       _sqlite3Fts3SegReaderStart 100bf270 f   interop.obj
 0001:000be290       _fts3auxFilterMethod       100bf290 f   interop.obj
 0001:000be450       _fts3TermSelect            100bf450 f   interop.obj
 0001:000be5c0       _fts3TermSegReaderCursor   100bf5c0 f   interop.obj
 0001:000be7d0       _fts5InitVtab              100bf7d0 f   interop.obj
 0001:000be8f0       _fts5IterSetOutputs_Col100 100bf8f0 f   interop.obj
 0001:000be9b0       _fts5MultiIterNext         100bf9b0 f   interop.obj
 0001:000beaa0       _fts5SegIterNext           100bfaa0 f   interop.obj
 0001:000bed90       _fts5SegIterNext_None      100bfd90 f   interop.obj
 0001:000bef40       _fts5SegIterSetNext        100bff40 f   interop.obj
 0001:000bef70       _rtreeDeleteRowid          100bff70 f   interop.obj
 0001:000bf120       _rtreeFilter               100c0120 f   interop.obj
 0001:000bf3a0       _rtreeNext                 100c03a0 f   interop.obj
 0001:000bf3c0       _fts3ChecksumIndex         100c03c0 f   interop.obj
 0001:000bf570       _sqlite3Fts3Incrmerge      100c0570 f   interop.obj
 0001:000bfa80       _fts3SegmentMerge          100c0a80 f   interop.obj
 0001:000bfd00       _sqlite3Fts3InitAux        100c0d00 f   interop.obj
 0001:000bfd60       _fts3EvalSelectDeferred    100c0d60 f   interop.obj
 0001:000bff30       _fts3EvalPhraseLoad        100c0f30 f   interop.obj
 0001:000bffa0       _fts3EvalAllocateReaders   100c0fa0 f   interop.obj
 0001:000c0060       _sqlite3Fts3Init           100c1060 f   interop.obj
 0001:000c0270       _openDatabase              100c1270 f   interop.obj
 0001:000c0860       _fts5CreateMethod          100c1860 f   interop.obj
 0001:000c0890       _fts5ConnectMethod         100c1890 f   interop.obj
 0001:000c08c0       _sqlite3Fts5IterNextScan   100c18c0 f   interop.obj
 0001:000c0930       _sqlite3Fts5IterNext       100c1930 f   interop.obj
 0001:000c0960       _fts5MultiIterNextFrom     100c1960 f   interop.obj
 0001:000c09e0       _fts5MultiIterNew2         100c19e0 f   interop.obj
 0001:000c0ab0       _fts5IterSetOutputCb       100c1ab0 f   interop.obj
 0001:000c0b10       _fts5SegIterHashInit       100c1b10 f   interop.obj
 0001:000c0c60       _fts5SegIterSeekInit       100c1c60 f   interop.obj
 0001:000c0e10       _fts5SegIterInit           100c1e10 f   interop.obj
 0001:000c0eb0       _rtreeUpdate               100c1eb0 f   interop.obj
 0001:000c1130       _fts3IntegrityCheck        100c2130 f   interop.obj
 0001:000c1550       _fts3DoIncrmerge           100c2550 f   interop.obj
 0001:000c1610       _fts3DoOptimize            100c2610 f   interop.obj
 0001:000c1740       _sqlite3Fts3PendingTermsFlush 100c2740 f   interop.obj
 0001:000c1850       _fts3PendingTermsDocid     100c2850 f   interop.obj
 0001:000c18e0       _fts3EvalPhraseStart       100c28e0 f   interop.obj
 0001:000c19e0       _fts3RenameMethod          100c29e0 f   interop.obj
 0001:000c1ab0       _fts3SyncMethod            100c2ab0 f   interop.obj
 0001:000c1c70       _fts5VocabNextMethod       100c2c70 f   interop.obj
 0001:000c2050       _sqlite3Fts5IterNextFrom   100c3050 f   interop.obj
 0001:000c2080       _fts5MultiIterNew          100c3080 f   interop.obj
 0001:000c2300       _fts5ExprNodeNext_TERM     100c3300 f   interop.obj
 0001:000c2380       _fts5ExprSynonymAdvanceto  100c3380 f   interop.obj
 0001:000c2440       _fts5ExprAdvanceto         100c3440 f   interop.obj
 0001:000c2510       _sqlite3Fts3Optimize       100c3510 f   interop.obj
 0001:000c25c0       _fts3DoIntegrityCheck      100c35c0 f   interop.obj
 0001:000c25f0       _fts3DoRebuild             100c35f0 f   interop.obj
 0001:000c2900       _fts3DeleteTerms           100c3900 f   interop.obj
 0001:000c2aa0       _fts3EvalRestart           100c3aa0 f   interop.obj
 0001:000c2ba0       _fts3EvalStartReaders      100c3ba0 f   interop.obj
 0001:000c2c60       _fts3SavepointMethod       100c3c60 f   interop.obj
 0001:000c2c80       _fts3OptimizeFunc          100c3c80 f   interop.obj
 0001:000c2d10       _sqlite3Fts5IndexIntegrityCheck 100c3d10 f   interop.obj
 0001:000c2f30       _fts5SetupPrefixIter       100c3f30 f   interop.obj
 0001:000c3230       _fts5IndexMergeLevel       100c4230 f   interop.obj
 0001:000c3660       _fts5ExprNodeTest_STRING   100c4660 f   interop.obj
 0001:000c3870       _fts3DeleteByRowid         100c4870 f   interop.obj
 0001:000c39a0       _fts3SpecialInsert         100c49a0 f   interop.obj
 0001:000c3ac0       _sqlite3Fts3EvalPhrasePoslist 100c4ac0 f   interop.obj
 0001:000c3ee0       _fts3EvalGatherStats       100c4ee0 f   interop.obj
 0001:000c40d0       _fts3EvalStart             100c50d0 f   interop.obj
 0001:000c4240       _fts3FilterMethod          100c5240 f   interop.obj
 0001:000c4540       _sqlite3Fts5StorageIntegrity 100c5540 f   interop.obj
 0001:000c4950       _sqlite3Fts5IndexQuery     100c5950 f   interop.obj
 0001:000c4ae0       _fts5IndexCrisismerge      100c5ae0 f   interop.obj
 0001:000c4b50       _fts5IndexMerge            100c5b50 f   interop.obj
 0001:000c4c30       _fts5ExprNodeTest          100c5c30 f   interop.obj
 0001:000c4c74       $LN169                     100c5c74     * CIL library *:* CIL module *
 0001:000c4c88       $LN166                     100c5c88     * CIL library *:* CIL module *
 0001:000c4ca0       _fts5ExprNodeNext_STRING   100c5ca0 f   interop.obj
 0001:000c4e20       _fts5ExprNearInitAll       100c5e20 f   interop.obj
 0001:000c4f50       _fts3ExprTermOffsetInit    100c5f50 f   interop.obj
 0001:000c4fd0       _fts3MatchinfoLcs          100c5fd0 f   interop.obj
 0001:000c51b0       _fts3ExprLocalHitsCb       100c61b0 f   interop.obj
 0001:000c5230       _fts3SnippetFindPositions  100c6230 f   interop.obj
 0001:000c52a0       _sqlite3Fts3UpdateMethod   100c62a0 f   interop.obj
 0001:000c55f0       _sqlite3Fts3EvalPhraseStats 100c65f0 f   interop.obj
 0001:000c5690       _fts3UpdateMethod          100c6690 f   interop.obj
 0001:000c56b0       _fts5VocabFilterMethod     100c66b0 f   interop.obj
 0001:000c57f0       _sqlite3Fts5IndexMerge     100c67f0 f   interop.obj
 0001:000c5890       _fts5IndexAutomerge        100c6890 f   interop.obj
 0001:000c5930       _fts5ExprAssignXNext       100c6930 f   interop.obj
 0001:000c5990       _sqlite3Fts5ExprClonePhrase 100c6990 f   interop.obj
 0001:000c5be0       _fts5ExprNodeFirst         100c6be0 f   interop.obj
 0001:000c5ce0       _sqlite3Fts3Offsets        100c6ce0 f   interop.obj
 0001:000c6140       _fts3ExprGlobalHitsCb      100c7140 f   interop.obj
 0001:000c6170       _fts3BestSnippet           100c7170 f   interop.obj
 0001:000c6330       _fts3OffsetsFunc           100c7330 f   interop.obj
 0001:000c6380       _sqlite3Fts5VocabInit      100c7380 f   interop.obj
 0001:000c63e0       _sqlite3Fts5StorageMerge   100c73e0 f   interop.obj
 0001:000c63f0       _fts5FlushOneHash          100c73f0 f   interop.obj
 0001:000c6860       _sqlite3Fts5ParseNode      100c7860 f   interop.obj
 0001:000c69c0       _sqlite3Fts5ExprFirst      100c79c0 f   interop.obj
 0001:000c6a40       _sqlite3Fts3Snippet        100c7a40 f   interop.obj
 0001:000c6d60       _fts3MatchinfoValues       100c7d60 f   interop.obj
 0001:000c7020       $LN198                     100c8020     * CIL library *:* CIL module *
 0001:000c7040       $LN194                     100c8040     * CIL library *:* CIL module *
 0001:000c7060       _fts3SnippetFunc           100c8060 f   interop.obj
 0001:000c71dc       $LN235                     100c81dc     * CIL library *:* CIL module *
 0001:000c71f0       _fts5CursorFirst           100c81f0 f   interop.obj
 0001:000c7230       _fts5CursorReseek          100c8230 f   interop.obj
 0001:000c72c0       _fts5IndexFlush            100c82c0 f   interop.obj
 0001:000c72e0       _sqlite3Fts5ParseImplicitAnd 100c82e0 f   interop.obj
 0001:000c73b0       _fts5yy_reduce             100c83b0 f   interop.obj
 0001:000c75d8       $LN230                     100c85d8     * CIL library *:* CIL module *
 0001:000c7640       _fts3GetMatchinfo          100c8640 f   interop.obj
 0001:000c7890       _fts5NextMethod            100c8890 f   interop.obj
 0001:000c7930       _sqlite3Fts5IndexSync      100c8930 f   interop.obj
 0001:000c7980       _sqlite3Fts5IndexBeginWrite 100c8980 f   interop.obj
 0001:000c7a10       _sqlite3Fts5IndexOptimize  100c8a10 f   interop.obj
 0001:000c7ae0       _sqlite3Fts5Parser         100c8ae0 f   interop.obj
 0001:000c7bb8       $LN297                     100c8bb8     * CIL library *:* CIL module *
 0001:000c7be0       _sqlite3Fts3Matchinfo      100c8be0 f   interop.obj
 0001:000c7c60       _fts3MatchinfoFunc         100c8c60 f   interop.obj
 0001:000c7cb0       _sqlite3Fts5StorageSync    100c8cb0 f   interop.obj
 0001:000c7ce0       _sqlite3Fts5StorageIndexInsert 100c8ce0 f   interop.obj
 0001:000c7e30       _sqlite3Fts5StorageOptimize 100c8e30 f   interop.obj
 0001:000c7e40       _sqlite3Fts5StorageRebuild 100c8e40 f   interop.obj
 0001:000c8080       _fts5StorageDeleteFromIndex 100c9080 f   interop.obj
 0001:000c8210       _sqlite3Fts5StorageRename  100c9210 f   interop.obj
 0001:000c8310       _fts5ReleaseMethod         100c9310 f   interop.obj
 0001:000c8330       _fts5SavepointMethod       100c9330 f   interop.obj
 0001:000c8350       _fts5RenameMethod          100c9350 f   interop.obj
 0001:000c8370       _fts5ApiQueryPhrase        100c9370 f   interop.obj
 0001:000c8460       _fts5SyncMethod            100c9460 f   interop.obj
 0001:000c84b0       _fts5StorageInsert         100c94b0 f   interop.obj
 0001:000c8500       _fts5SpecialInsert         100c9500 f   interop.obj
 0001:000c8670       _sqlite3Fts5ExprNew        100c9670 f   interop.obj
 0001:000c87f0       _fts3FindFunctionMethod    100c97f0 f   interop.obj
 0001:000c88b0       _sqlite3Fts5StorageDelete  100c98b0 f   interop.obj
 0001:000c89a0       _fts5SpecialDelete         100c99a0 f   interop.obj
 0001:000c89e0       _fts5FilterMethod          100c99e0 f   interop.obj
 0001:000c8d50       _fts5ExprFunction          100c9d50 f   interop.obj
 0001:000c8ff0       _fts5UpdateMethod          100c9ff0 f   interop.obj
 0001:000c92c0       _fts5ExprFunctionTcl       100ca2c0 f   interop.obj
 0001:000c92e0       _fts5ExprFunctionHr        100ca2e0 f   interop.obj
 0001:000c9300       _sqlite3Fts5ExprInit       100ca300 f   interop.obj
 0001:000c9390       _fts5Init                  100ca390 f   interop.obj
 0001:000c9500       $$000000                   100ca500     MSVCRT:_ftol3_.obj
 0001:000c9880       $$000000                   100ca880     MSVCRT:lldiv.obj
 0001:000c9930       $$000000                   100ca930     MSVCRT:llshl.obj
 0001:000c9950       $$000000                   100ca950     MSVCRT:ulldiv.obj
 0001:000c99c0       $$000000                   100ca9c0     MSVCRT:llrem.obj
 0001:000c9a80       $$000000                   100caa80     MSVCRT:llmul.obj
 0001:000c9ac0       $$000000                   100caac0     MSVCRT:ullshr.obj
 0001:000c9ae0       $$000000                   100caae0     MSVCRT:lldvrm.obj
 0001:000c9bc0       $$000000                   100cabc0     MSVCRT:_ftol2_.obj
 0001:000c9c80       $$000000                   100cac80     MSVCRT:ullrem.obj
 0001:000c9d00       $$000000                   100cad00     MSVCRT:ulldvrm.obj
 0001:000c9da0       $$000000                   100cada0     MSVCRT:chkstk.obj
 0001:000c9dd0       $$000000                   100cadd0     MSVCRT:llshr.obj
 0002:00000270       _GS_ExceptionPointers      100cb270     MSVCRT:gs_report.obj
 0002:00008de0       ?aFlagOp@?4??sqlite3_db_config@@9@9 100d3de0     interop.obj
 0002:00008e00       ?max32BitValue@?1??winCurrentTimeInt64@@9@9 100d3e00     interop.obj
 0002:00008e08       ?aEnc@?1??synthCollSeq@@9@9 100d3e08     interop.obj
 0002:00008e0b       ?zerobyte@?5??syncJournal@@9@9 100d3e0b     interop.obj
 0002:00008e0c       ?aFlag@?LK@??sqlite3VdbeExec@@9@9 100d3e0c     interop.obj
 0002:00008e10       ?isFtsIdChar@?1??sqlite3Fts3IsIdChar@@9@9 100d3e10     interop.obj
 0002:00008e90       _winIoNolockMethod         100d3e90     interop.obj
 0002:00008edc       ?defaultMethods@?1??sqlite3PCacheSetDefault@@9@9 100d3edc     interop.obj
 0002:00008f10       _aPragmaNames              100d3f10     interop.obj
 0002:00009210       ?aSpecial@?5??jsonAppendString@@9@9 100d4210     interop.obj
 0002:00009230       ?aMsg@?1??sqlite3ErrStr@@9@9 100d4230     interop.obj
 0002:0000929c       ?readCookie@?MG@??sqlite3Pragma@@9@9 100d429c     interop.obj
 0002:000092a8       ?aHash@?1??keywordCode@@9@9 100d42a8     interop.obj
 0002:00009327       ?lenOne@?3??trimFunc@@9@9  100d4327     interop.obj
 0002:00009328       ?zTrans@?1??re_esc_char@@9@9 100d4328     interop.obj
 0002:00009330       ?encnames@?LM@??sqlite3Pragma@@9@9 100d4330     interop.obj
 0002:00009378       _fts5yy_lookahead          100d4378     interop.obj
 0002:000093c8       ?az@?2??sqlite3Savepoint@@9@9 100d43c8     interop.obj
 0002:000093d4       _likeInfoNorm              100d43d4     interop.obj
 0002:000093d8       ?iLn@?3??sqlite3AutoincrementBegin@@9@9 100d43d8     interop.obj
 0002:000093e0       ?azSql@?1??rtreeSqlInit@@9@9 100d43e0     interop.obj
 0002:00009404       _aPrefix                   100d4404     interop.obj
 0002:00009410       ?aKeyword@?1??getNextNode@@9@9 100d4410     interop.obj
 0002:00009430       _winIoMethod               100d4430     interop.obj
 0002:00009480       _sqlite3Utf8Trans1         100d4480     interop.obj
 0002:000094c0       ?iLn@?3??autoIncrementEnd@@9@9 100d44c0     interop.obj
 0002:000094c4       ?detach_func@?1??sqlite3Detach@@9@9 100d44c4     interop.obj
 0002:000094e0       ?aCode@?1??keywordCode@@9@9 100d44e0     interop.obj
 0002:00009560       ?autoInc@?3??sqlite3AutoincrementBegin@@9@9 100d4560     interop.obj
 0002:00009588       ?aLen@?6??vdbeSorterCompareInt@@9@9 100d4588     interop.obj
 0002:00009590       ?aFuncs@?1??RegisterExtensionFunctions@@9@9 100d4590     interop.obj
 0002:00009788       ?iLn@?BM@??sqlite3_blob_open@@9@9 100d4788     interop.obj
 0002:00009790       ?aFunc@?1??sqlite3Json1Init@@9@9 100d4790     interop.obj
 0002:00009870       _cType                     100d4870     interop.obj
 0002:0000988c       ?aCopy@?L@??sqlite3RunVacuum@@9@9 100d488c     interop.obj
 0002:00009898       ?zText@?1??getSafetyLevel@@9@9 100d4898     interop.obj
 0002:000098b8       ?fts5Mod@?1??fts5Init@@9@9 100d48b8     interop.obj
 0002:00009914       ?nullRow@?BC@??sqlite3StartTable@@9@9 100d4914     interop.obj
 0002:00009920       ?aEntry@?1??sqlite3Fts5UnicodeFold@@9@9 100d4920     interop.obj
 0002:00009bb0       ?aAgg@?1??sqlite3Json1Init@@9@9 100d4bb0     interop.obj
 0002:00009bd0       ?aEntry@?1??sqlite3FtsUnicodeIsalnum@@9@9 100d4bd0     interop.obj
 0002:0000a228       _yy_default                100d5228     interop.obj
 0002:0000a5a0       _jsonIsSpace               100d55a0     interop.obj
 0002:0000a6a0       ?aiOff@?1??sqlite3FtsUnicodeFold@@9@9 100d56a0     interop.obj
 0002:0000a740       ?aEntry@?1??sqlite3Fts5UnicodeIsalnum@@9@9 100d5740     interop.obj
 0002:0000ad98       ?aCode@?6??sqlite3StartTable@@9@9 100d5d98     interop.obj
 0002:0000ad9c       _fts5yy_default            100d5d9c     interop.obj
 0002:0000adb8       _yyRuleInfo                100d5db8     interop.obj
 0002:0000b048       ?azModeName@?1??sqlite3JournalModename@@9@9 100d6048     interop.obj
 0002:0000b060       ?aOffset@?1??keywordCode@@9@9 100d6060     interop.obj
 0002:0000b158       ?colmask@?1??sqlite3Fts5PoslistSafeAppend@@9@9 100d6158     interop.obj
 0002:0000b160       ?zEsc@?1??re_esc_char@@9@9 100d6160     interop.obj
 0002:0000b178       ?or_logic@?IM@??sqlite3VdbeExec@@9@9 100d6178     interop.obj
 0002:0000b184       _xtra_utf8_bits            100d6184     interop.obj
 0002:0000b194       ?totals@?1??sqliteDefaultBusyCallback@@9@9 100d6194     interop.obj
 0002:0000b1a0       ?aEntry@?1??sqlite3FtsUnicodeFold@@9@9 100d61a0     interop.obj
 0002:0000b42c       ?zeroHdr@?4??zeroJournalHdr@@9@9 100d642c     interop.obj
 0002:0000b448       ?aAscii@?1??sqlite3FtsUnicodeIsalnum@@9@9 100d6448     interop.obj
 0002:0000b458       ?aiOff@?1??sqlite3Fts5UnicodeFold@@9@9 100d6458     interop.obj
 0002:0000b4f4       ?aFlag@?M@??sqlite3VdbeSerialGet@@9@9 100d64f4     interop.obj
 0002:0000b4f8       ?fts3aux_module@?1??sqlite3Fts3InitAux@@9@9 100d64f8     interop.obj
 0002:0000b554       ?azEndings@?1??sqlite3LoadExtension@@9@9 100d6554     interop.obj
 0002:0000b558       ?minInt@?1??doubleToInt64@@9@9 100d6558     interop.obj
 0002:0000b560       ?autoIncEnd@?3??autoIncrementEnd@@9@9 100d6560     interop.obj
 0002:0000b574       ?attach_func@?1??sqlite3Attach@@9@9 100d6574     interop.obj
 0002:0000b590       _MemJournalMethods         100d6590     interop.obj
 0002:0000b5e0       _azInteropCompileOpt       100d65e0     interop.obj
 0002:0000b600       _jsonType                  100d6600     interop.obj
 0002:0000b620       ?azColName@?BA@??sqlite3Prepare@@9@9 100d6620     interop.obj
 0002:0000b650       ?aTable@?1??openStatTable@@9@9 100d6650     interop.obj
 0002:0000b668       ?aMJNeeded@?4??vdbeCommit@@9@9 100d6668     interop.obj
 0002:0000b670       _aDigits                   100d6670     interop.obj
 0002:0000b694       _aHardLimit                100d6694     interop.obj
 0002:0000b6d0       _sqlite3CtypeMap           100d66d0     interop.obj
 0002:0000b7d0       ?azType@?8??createTableStmt@@9@9 100d67d0     interop.obj
 0002:0000b7e4       _statMutex                 100d67e4     interop.obj
 0002:0000b7f0       ?fts3tok_module@?1??sqlite3Fts3InitTok@@9@9 100d67f0     interop.obj
 0002:0000b84c       ?iOffset@?1??getSafetyLevel@@9@9 100d684c     interop.obj
 0002:0000b854       _likeInfoAlt               100d6854     interop.obj
 0002:0000b858       _yy_reduce_ofst            100d6858     interop.obj
 0002:0000bad4       ?aStep@?FH@??sqlite3WhereCodeOneLoopStart@@9@9 100d6ad4     interop.obj
 0002:0000bad8       ?iLn@?LK@??sqlite3Pragma@@9@9 100d6ad8     interop.obj
 0002:0000bae0       ?aMod@?1??sqlite3Json1Init@@9@9 100d6ae0     interop.obj
 0002:0000baf0       _fts5yy_reduce_ofst        100d6af0     interop.obj
 0002:0000bb00       _sqlite3StrBINARY          100d6b00     interop.obj
 0002:0000bb08       _globInfo                  100d6b08     interop.obj
 0002:0000bb0c       ?aMx@?1??getDigits@@9@9    100d6b0c     interop.obj
 0002:0000bb18       _sqlite3SmallTypeSizes     100d6b18     interop.obj
 0002:0000bb98       ?aAscii@?1??sqlite3Fts5UnicodeIsalnum@@9@9 100d6b98     interop.obj
 0002:0000bba8       _porterTokenizerModule     100d6ba8     interop.obj
 0002:0000bbc4       ?azOne@?3??trimFunc@@9@9   100d6bc4     interop.obj
 0002:0000bbc8       _xtra_utf8_bytes           100d6bc8     interop.obj
 0002:0000bcc8       _sqlite3Apis               100d6cc8     interop.obj
 0002:0000c028       _statGetFuncdef            100d7028     interop.obj
 0002:0000c044       ?iLength@?1??getSafetyLevel@@9@9 100d7044     interop.obj
 0002:0000c04c       ?iLn@?P@??sqlite3Pragma@@9@9 100d704c     interop.obj
 0002:0000c050       ?nullMem@?1??columnNullValue@@9@9 100d7050     interop.obj
 0002:0000c078       ?vfsFlags@?BBB@??sqlite3VdbeExec@@9@9 100d7078     interop.obj
 0002:0000c080       _sqlite3UpperToLower       100d7080     interop.obj
 0002:0000c180       ?a@?1??sqlite3LogEst@@9@9  100d7180     interop.obj
 0002:0000c190       _sFts5Api                  100d7190     interop.obj
 0002:0000c1e0       ?fts5Vocab@?1??sqlite3Fts5VocabInit@@9@9 100d71e0     interop.obj
 0002:0000c23c       _statInitFuncdef           100d723c     interop.obj
 0002:0000c258       ?delays@?1??sqliteDefaultBusyCallback@@9@9 100d7258     interop.obj
 0002:0000c264       _simpleTokenizerModule     100d7264     interop.obj
 0002:0000c280       _aJournalMagic             100d7280     interop.obj
 0002:0000c288       _fts5yy_action             100d7288     interop.obj
 0002:0000c2d8       _yy_action                 100d72d8     interop.obj
 0002:0000cea0       _hexdigits                 100d7ea0     interop.obj
 0002:0000ceb0       ?aKeyword@?1??sqlite3JoinType@@9@9 100d7eb0     interop.obj
 0002:0000cec8       ?zKeyText@?1??sqlite3JoinType@@9@9 100d7ec8     interop.obj
 0002:0000ceec       _utf_mask                  100d7eec     interop.obj
 0002:0000cf00       _sqlite3OpcodeProperty     100d7f00     interop.obj
 0002:0000cfa4       _sqlite3IntTokens          100d7fa4     interop.obj
 0002:0000cfb4       ?iLn@?DE@??sqlite3Pragma@@9@9 100d7fb4     interop.obj
 0002:0000cfb8       ?maxInt@?1??doubleToInt64@@9@9 100d7fb8     interop.obj
 0002:0000cfc0       ?aStartOp@?BK@??sqlite3WhereCodeOneLoopStart@@9@9 100d7fc0     interop.obj
 0002:0000cfc8       ?setCookie@?MF@??sqlite3Pragma@@9@9 100d7fc8     interop.obj
 0002:0000cfd0       ?getCacheSize@?P@??sqlite3Pragma@@9@9 100d7fd0     interop.obj
 0002:0000cff4       ?zero@?1??fts5WriteFlushLeaf@@9@9 100d7ff4     interop.obj
 0002:0000cff8       ?aEndOp@?BK@??sqlite3WhereCodeOneLoopStart@@9@9 100d7ff8     interop.obj
 0002:0000d000       ?iCode@?1??soundexFunc@@9@9 100d8000     interop.obj
 0002:0000d080       ?winMemMethods@?1??sqlite3MemGetWin32@@9@9 100d8080     interop.obj
 0002:0000d0a0       _yy_lookahead              100d80a0     interop.obj
 0002:0000d684       ?x@?1??sqlite3LogEstAdd@@9@9 100d8684     interop.obj
 0002:0000d6a4       _fts5yy_shift_ofst         100d86a4     interop.obj
 0002:0000d6c0       ?endCode@?LK@??sqlite3Pragma@@9@9 100d86c0     interop.obj
 0002:0000d6d0       _porterIdChar              100d86d0     interop.obj
 0002:0000d720       _fmtinfo                   100d8720     interop.obj
 0002:0000d7ac       ?aType@?1??sqlite3_value_type@@9@9 100d87ac     interop.obj
 0002:0000d7d0       _yy_shift_ofst             100d87d0     interop.obj
 0002:0000db48       ?zOrd@?DH@??sqlite3VXPrintf@@9@9 100d8b48     interop.obj
 0002:0000db54       _zMagicHeader              100d8b54     interop.obj
 0002:0000db64       ?sMutex@?1??sqlite3DefaultMutex@@9@9 100d8b64     interop.obj
 0002:0000db88       ?sMutex@?1??sqlite3NoopMutex@@9@9 100d8b88     interop.obj
 0002:0000dbb0       ?aAggs@?1??RegisterExtensionFunctions@@9@9 100d8bb0     interop.obj
 0002:0000dc10       _yyFallback                100d8c10     interop.obj
 0002:0000dc70       ?zChars@?1??winGetTempname@@9@9 100d8c70     interop.obj
 0002:0000dcb0       ?aLen@?1??keywordCode@@9@9 100d8cb0     interop.obj
 0002:0000dd2c       ?and_logic@?IL@??sqlite3VdbeExec@@9@9 100d8d2c     interop.obj
 0002:0000dd38       ?winFiletimeEpoch@?1??winCurrentTimeInt64@@9@9 100d8d38     interop.obj
 0002:0000dd40       ?iValue@?1??getSafetyLevel@@9@9 100d8d40     interop.obj
 0002:0000dd48       ?flags@?2??sqlite3OpenTempDatabase@@9@9 100d8d48     interop.obj
 0002:0000dd50       _aiClass                   100d8d50     interop.obj
 0002:0000de50       _azCompileOpt              100d8e50     interop.obj
 0002:0000de84       _statPushFuncdef           100d8e84     interop.obj
 0002:0000dea0       ?aNext@?1??keywordCode@@9@9 100d8ea0     interop.obj
 0002:0000df1c       ?module@?1??sqlite3Fts3UnicodeTokenizer@@9@9 100d8f1c     interop.obj
 0002:0000df38       _fts3Module                100d8f38     interop.obj
 0002:0000df94       ?outOfMem@?1??sqlite3_errmsg16@@9@9 100d8f94     interop.obj
 0002:0000dfb0       ?trans@?1??sqlite3_complete@@9@9 100d8fb0     interop.obj
 0002:0000dff0       ?aStart@?FH@??sqlite3WhereCodeOneLoopStart@@9@9 100d8ff0     interop.obj
 0002:0000dff4       _fts5yyRuleInfo            100d8ff4     interop.obj
 0002:0000e024       ?aMap@?1??sqlite3_vtab_on_conflict@@9@9 100d9024     interop.obj
 0002:0000e030       ?setMeta6@?DE@??sqlite3Pragma@@9@9 100d9030     interop.obj
 0002:0000e044       ?azType@?BF@??sqlite3VdbeExec@@9@9 100d9044     interop.obj
 0002:0000e054       ?ops@?BB@??exprAnalyze@@9@9 100d9054     interop.obj
 0002:0000e058       ?azName@?1??sqlite3OpcodeName@@9@9 100d9058     interop.obj
 0002:0000e2e0       ?iCode@?1??soundex@@9@9    100d92e0     interop.obj
 0002:0000e360       ?zText@?1??keywordCode@@9@9 100d9360     interop.obj
 0002:0000e590       ?openBlob@?BM@??sqlite3_blob_open@@9@9 100d9590     interop.obj
 0002:0000e5b8       ?misuse@?1??sqlite3_errmsg16@@9@9 100d95b8     interop.obj
 0002:0000e650       _Int32ToUInt32             100d9650     MSVCRT:_ftol3_.obj
 0002:0000e658       _DP2to32                   100d9658     MSVCRT:_ftol3_.obj
 0002:0000e660       _MantissaMask              100d9660     MSVCRT:_ftol3_.obj
 0002:0000e668       _IntegerBit                100d9668     MSVCRT:_ftol3_.obj
 0002:0000e670       _SignBit64                 100d9670     MSVCRT:_ftol3_.obj
 0002:0000e678       _MinFP64                   100d9678     MSVCRT:_ftol3_.obj
 0002:0000e680       _MinInt64                  100d9680     MSVCRT:_ftol3_.obj
 0002:0000e688       _MaxInt64                  100d9688     MSVCRT:_ftol3_.obj
 0002:0000e690       _MaxUInt64                 100d9690     MSVCRT:_ftol3_.obj
 0002:0000e698       _MaxFP32                   100d9698     MSVCRT:_ftol3_.obj
 0002:0000e6a0       _MinFP32                   100d96a0     MSVCRT:_ftol3_.obj
 0002:0000e6a8       _MinSubInexact             100d96a8     MSVCRT:_ftol3_.obj
 0002:0000e6b0       _FpExcptTable              100d96b0     MSVCRT:_ftol3_.obj
 0002:0000e6c0       _i1075                     100d96c0     MSVCRT:_ftol3_.obj
 0002:0000e6c4       _i1087                     100d96c4     MSVCRT:_ftol3_.obj
 0002:0000e6c8       _x0800                     100d96c8     MSVCRT:_ftol3_.obj
 0002:0000e6cc       _x17FF                     100d96cc     MSVCRT:_ftol3_.obj
 0002:0000e6d0       _CWMask                    100d96d0     MSVCRT:_ftol3_.obj
 0002:0003fab8       __sehtable$?dllmain_crt_process_attach@@YAHQAUHINSTANCE__@@QAX@Z 1010aab8     MSVCRT:dll_dllmain.obj
 0002:0003fad8       __sehtable$?dllmain_crt_process_detach@@YAH_N@Z 1010aad8     MSVCRT:dll_dllmain.obj
 0002:0003faf8       __sehtable$?dllmain_dispatch@@YAHQAUHINSTANCE__@@KQAX@Z 1010aaf8     MSVCRT:dll_dllmain.obj
 0002:0003fb18       __sehtable$___scrt_is_nonwritable_in_current_image 1010ab18     MSVCRT:utility.obj
 0002:0003fb40       .edata                     1010ab40     System.Data.SQLite.exp
 0002:0003fb68       rgpv                       1010ab68     System.Data.SQLite.exp
 0002:00040024       rgszName                   1010b024     System.Data.SQLite.exp
 0002:000404e0       rgwOrd                     1010b4e0     System.Data.SQLite.exp
 0002:0004073e       szName                     1010b73e     System.Data.SQLite.exp
 0002:00040755       $N00001                    1010b755     System.Data.SQLite.exp
 0002:00040772       $N00002                    1010b772     System.Data.SQLite.exp
 0002:00040790       $N00003                    1010b790     System.Data.SQLite.exp
 0002:000407a6       $N00004                    1010b7a6     System.Data.SQLite.exp
 0002:000407ba       $N00005                    1010b7ba     System.Data.SQLite.exp
 0002:000407cf       $N00006                    1010b7cf     System.Data.SQLite.exp
 0002:000407e9       $N00007                    1010b7e9     System.Data.SQLite.exp
 0002:00040801       $N00008                    1010b801     System.Data.SQLite.exp
 0002:00040818       $N00009                    1010b818     System.Data.SQLite.exp
 0002:0004082e       $N00010                    1010b82e     System.Data.SQLite.exp
 0002:0004084f       $N00011                    1010b84f     System.Data.SQLite.exp
 0002:00040863       $N00012                    1010b863     System.Data.SQLite.exp
 0002:0004087c       $N00013                    1010b87c     System.Data.SQLite.exp
 0002:00040895       $N00014                    1010b895     System.Data.SQLite.exp
 0002:000408a9       $N00015                    1010b8a9     System.Data.SQLite.exp
 0002:000408bb       $N00016                    1010b8bb     System.Data.SQLite.exp
 0002:000408cf       $N00017                    1010b8cf     System.Data.SQLite.exp
 0002:000408e3       $N00018                    1010b8e3     System.Data.SQLite.exp
 0002:00040903       $N00019                    1010b903     System.Data.SQLite.exp
 0002:00040914       $N00020                    1010b914     System.Data.SQLite.exp
 0002:00040927       $N00021                    1010b927     System.Data.SQLite.exp
 0002:00040946       $N00022                    1010b946     System.Data.SQLite.exp
 0002:00040958       $N00023                    1010b958     System.Data.SQLite.exp
 0002:00040975       $N00024                    1010b975     System.Data.SQLite.exp
 0002:00040992       $N00025                    1010b992     System.Data.SQLite.exp
 0002:000409ae       $N00026                    1010b9ae     System.Data.SQLite.exp
 0002:000409d6       $N00027                    1010b9d6     System.Data.SQLite.exp
 0002:000409e8       $N00028                    1010b9e8     System.Data.SQLite.exp
 0002:000409fc       $N00029                    1010b9fc     System.Data.SQLite.exp
 0002:00040a10       $N00030                    1010ba10     System.Data.SQLite.exp
 0002:00040a23       $N00031                    1010ba23     System.Data.SQLite.exp
 0002:00040a39       $N00032                    1010ba39     System.Data.SQLite.exp
 0002:00040a51       $N00033                    1010ba51     System.Data.SQLite.exp
 0002:00040a64       $N00034                    1010ba64     System.Data.SQLite.exp
 0002:00040a77       $N00035                    1010ba77     System.Data.SQLite.exp
 0002:00040a95       $N00036                    1010ba95     System.Data.SQLite.exp
 0002:00040aa7       $N00037                    1010baa7     System.Data.SQLite.exp
 0002:00040ab9       $N00038                    1010bab9     System.Data.SQLite.exp
 0002:00040acd       $N00039                    1010bacd     System.Data.SQLite.exp
 0002:00040ae0       $N00040                    1010bae0     System.Data.SQLite.exp
 0002:00040af5       $N00041                    1010baf5     System.Data.SQLite.exp
 0002:00040b0a       $N00042                    1010bb0a     System.Data.SQLite.exp
 0002:00040b28       $N00043                    1010bb28     System.Data.SQLite.exp
 0002:00040b38       $N00044                    1010bb38     System.Data.SQLite.exp
 0002:00040b53       $N00045                    1010bb53     System.Data.SQLite.exp
 0002:00040b6a       $N00046                    1010bb6a     System.Data.SQLite.exp
 0002:00040b78       $N00047                    1010bb78     System.Data.SQLite.exp
 0002:00040b91       $N00048                    1010bb91     System.Data.SQLite.exp
 0002:00040ba2       $N00049                    1010bba2     System.Data.SQLite.exp
 0002:00040bbb       $N00050                    1010bbbb     System.Data.SQLite.exp
 0002:00040bd6       $N00051                    1010bbd6     System.Data.SQLite.exp
 0002:00040bea       $N00052                    1010bbea     System.Data.SQLite.exp
 0002:00040bff       $N00053                    1010bbff     System.Data.SQLite.exp
 0002:00040c16       $N00054                    1010bc16     System.Data.SQLite.exp
 0002:00040c2b       $N00055                    1010bc2b     System.Data.SQLite.exp
 0002:00040c48       $N00056                    1010bc48     System.Data.SQLite.exp
 0002:00040c67       $N00057                    1010bc67     System.Data.SQLite.exp
 0002:00040c92       $N00058                    1010bc92     System.Data.SQLite.exp
 0002:00040cbb       $N00059                    1010bcbb     System.Data.SQLite.exp
 0002:00040cd3       $N00060                    1010bcd3     System.Data.SQLite.exp
 0002:00040ced       $N00061                    1010bced     System.Data.SQLite.exp
 0002:00040d13       $N00062                    1010bd13     System.Data.SQLite.exp
 0002:00040d37       $N00063                    1010bd37     System.Data.SQLite.exp
 0002:00040d4d       $N00064                    1010bd4d     System.Data.SQLite.exp
 0002:00040d6f       $N00065                    1010bd6f     System.Data.SQLite.exp
 0002:00040d82       $N00066                    1010bd82     System.Data.SQLite.exp
 0002:00040d97       $N00067                    1010bd97     System.Data.SQLite.exp
 0002:00040db8       $N00068                    1010bdb8     System.Data.SQLite.exp
 0002:00040dcc       $N00069                    1010bdcc     System.Data.SQLite.exp
 0002:00040de2       $N00070                    1010bde2     System.Data.SQLite.exp
 0002:00040e04       $N00071                    1010be04     System.Data.SQLite.exp
 0002:00040e24       $N00072                    1010be24     System.Data.SQLite.exp
 0002:00040e3f       $N00073                    1010be3f     System.Data.SQLite.exp
 0002:00040e5c       $N00074                    1010be5c     System.Data.SQLite.exp
 0002:00040e85       $N00075                    1010be85     System.Data.SQLite.exp
 0002:00040eac       $N00076                    1010beac     System.Data.SQLite.exp
 0002:00040ec6       $N00077                    1010bec6     System.Data.SQLite.exp
 0002:00040ee2       $N00078                    1010bee2     System.Data.SQLite.exp
 0002:00040f0a       $N00079                    1010bf0a     System.Data.SQLite.exp
 0002:00040f30       $N00080                    1010bf30     System.Data.SQLite.exp
 0002:00040f44       $N00081                    1010bf44     System.Data.SQLite.exp
 0002:00040f5a       $N00082                    1010bf5a     System.Data.SQLite.exp
 0002:00040f7c       $N00083                    1010bf7c     System.Data.SQLite.exp
 0002:00040f9c       $N00084                    1010bf9c     System.Data.SQLite.exp
 0002:00040fb0       $N00085                    1010bfb0     System.Data.SQLite.exp
 0002:00040fc5       $N00086                    1010bfc5     System.Data.SQLite.exp
 0002:00040fd9       $N00087                    1010bfd9     System.Data.SQLite.exp
 0002:00040ff3       $N00088                    1010bff3     System.Data.SQLite.exp
 0002:0004100e       $N00089                    1010c00e     System.Data.SQLite.exp
 0002:0004101f       $N00090                    1010c01f     System.Data.SQLite.exp
 0002:00041032       $N00091                    1010c032     System.Data.SQLite.exp
 0002:00041041       $N00092                    1010c041     System.Data.SQLite.exp
 0002:00041069       $N00093                    1010c069     System.Data.SQLite.exp
 0002:0004108d       $N00094                    1010c08d     System.Data.SQLite.exp
 0002:000410a7       $N00095                    1010c0a7     System.Data.SQLite.exp
 0002:000410c0       $N00096                    1010c0c0     System.Data.SQLite.exp
 0002:000410db       $N00097                    1010c0db     System.Data.SQLite.exp
 0002:000410f7       $N00098                    1010c0f7     System.Data.SQLite.exp
 0002:00041118       $N00099                    1010c118     System.Data.SQLite.exp
 0002:00041146       $N00100                    1010c146     System.Data.SQLite.exp
 0002:0004115e       $N00101                    1010c15e     System.Data.SQLite.exp
 0002:00041178       $N00102                    1010c178     System.Data.SQLite.exp
 0002:0004119c       $N00103                    1010c19c     System.Data.SQLite.exp
 0002:000411b7       $N00104                    1010c1b7     System.Data.SQLite.exp
 0002:000411cd       $N00105                    1010c1cd     System.Data.SQLite.exp
 0002:000411e6       $N00106                    1010c1e6     System.Data.SQLite.exp
 0002:00041207       $N00107                    1010c207     System.Data.SQLite.exp
 0002:0004121a       $N00108                    1010c21a     System.Data.SQLite.exp
 0002:00041231       $N00109                    1010c231     System.Data.SQLite.exp
 0002:00041247       $N00110                    1010c247     System.Data.SQLite.exp
 0002:00041259       $N00111                    1010c259     System.Data.SQLite.exp
 0002:0004126d       $N00112                    1010c26d     System.Data.SQLite.exp
 0002:0004127f       $N00113                    1010c27f     System.Data.SQLite.exp
 0002:00041290       $N00114                    1010c290     System.Data.SQLite.exp
 0002:000412a4       $N00115                    1010c2a4     System.Data.SQLite.exp
 0002:000412be       $N00116                    1010c2be     System.Data.SQLite.exp
 0002:000412d0       $N00117                    1010c2d0     System.Data.SQLite.exp
 0002:000412e5       $N00118                    1010c2e5     System.Data.SQLite.exp
 0002:000412fc       $N00119                    1010c2fc     System.Data.SQLite.exp
 0002:0004131a       $N00120                    1010c31a     System.Data.SQLite.exp
 0002:00041336       $N00121                    1010c336     System.Data.SQLite.exp
 0002:00041346       $N00122                    1010c346     System.Data.SQLite.exp
 0002:00041355       $N00123                    1010c355     System.Data.SQLite.exp
 0002:00041366       $N00124                    1010c366     System.Data.SQLite.exp
 0002:00041380       $N00125                    1010c380     System.Data.SQLite.exp
 0002:0004138f       $N00126                    1010c38f     System.Data.SQLite.exp
 0002:0004139c       $N00127                    1010c39c     System.Data.SQLite.exp
 0002:000413b1       $N00128                    1010c3b1     System.Data.SQLite.exp
 0002:000413c1       $N00129                    1010c3c1     System.Data.SQLite.exp
 0002:000413da       $N00130                    1010c3da     System.Data.SQLite.exp
 0002:000413f8       $N00131                    1010c3f8     System.Data.SQLite.exp
 0002:0004140d       $N00132                    1010c40d     System.Data.SQLite.exp
 0002:0004141e       $N00133                    1010c41e     System.Data.SQLite.exp
 0002:0004143a       $N00134                    1010c43a     System.Data.SQLite.exp
 0002:00041447       $N00135                    1010c447     System.Data.SQLite.exp
 0002:0004145a       $N00136                    1010c45a     System.Data.SQLite.exp
 0002:0004146c       $N00137                    1010c46c     System.Data.SQLite.exp
 0002:0004147d       $N00138                    1010c47d     System.Data.SQLite.exp
 0002:00041494       $N00139                    1010c494     System.Data.SQLite.exp
 0002:000414a8       $N00140                    1010c4a8     System.Data.SQLite.exp
 0002:000414ba       $N00141                    1010c4ba     System.Data.SQLite.exp
 0002:000414d1       $N00142                    1010c4d1     System.Data.SQLite.exp
 0002:000414f7       $N00143                    1010c4f7     System.Data.SQLite.exp
 0002:0004150a       $N00144                    1010c50a     System.Data.SQLite.exp
 0002:0004151c       $N00145                    1010c51c     System.Data.SQLite.exp
 0002:0004152e       $N00146                    1010c52e     System.Data.SQLite.exp
 0002:0004153a       $N00147                    1010c53a     System.Data.SQLite.exp
 0002:00041549       $N00148                    1010c549     System.Data.SQLite.exp
 0002:00041563       $N00149                    1010c563     System.Data.SQLite.exp
 0002:00041588       $N00150                    1010c588     System.Data.SQLite.exp
 0002:0004159b       $N00151                    1010c59b     System.Data.SQLite.exp
 0002:000415b5       $N00152                    1010c5b5     System.Data.SQLite.exp
 0002:000415c3       $N00153                    1010c5c3     System.Data.SQLite.exp
 0002:000415da       $N00154                    1010c5da     System.Data.SQLite.exp
 0002:000415e6       $N00155                    1010c5e6     System.Data.SQLite.exp
 0002:000415f5       $N00156                    1010c5f5     System.Data.SQLite.exp
 0002:00041606       $N00157                    1010c606     System.Data.SQLite.exp
 0002:00041625       $N00158                    1010c625     System.Data.SQLite.exp
 0002:0004163a       $N00159                    1010c63a     System.Data.SQLite.exp
 0002:00041653       $N00160                    1010c653     System.Data.SQLite.exp
 0002:00041677       $N00161                    1010c677     System.Data.SQLite.exp
 0002:0004168b       $N00162                    1010c68b     System.Data.SQLite.exp
 0002:000416aa       $N00163                    1010c6aa     System.Data.SQLite.exp
 0002:000416ba       $N00164                    1010c6ba     System.Data.SQLite.exp
 0002:000416c8       $N00165                    1010c6c8     System.Data.SQLite.exp
 0002:000416dc       $N00166                    1010c6dc     System.Data.SQLite.exp
 0002:000416f0       $N00167                    1010c6f0     System.Data.SQLite.exp
 0002:00041703       $N00168                    1010c703     System.Data.SQLite.exp
 0002:00041717       $N00169                    1010c717     System.Data.SQLite.exp
 0002:00041729       $N00170                    1010c729     System.Data.SQLite.exp
 0002:0004173b       $N00171                    1010c73b     System.Data.SQLite.exp
 0002:00041748       $N00172                    1010c748     System.Data.SQLite.exp
 0002:00041757       $N00173                    1010c757     System.Data.SQLite.exp
 0002:00041772       $N00174                    1010c772     System.Data.SQLite.exp
 0002:0004178b       $N00175                    1010c78b     System.Data.SQLite.exp
 0002:0004179b       $N00176                    1010c79b     System.Data.SQLite.exp
 0002:000417aa       $N00177                    1010c7aa     System.Data.SQLite.exp
 0002:000417ba       $N00178                    1010c7ba     System.Data.SQLite.exp
 0002:000417d4       $N00179                    1010c7d4     System.Data.SQLite.exp
 0002:000417ec       $N00180                    1010c7ec     System.Data.SQLite.exp
 0002:000417fc       $N00181                    1010c7fc     System.Data.SQLite.exp
 0002:0004180e       $N00182                    1010c80e     System.Data.SQLite.exp
 0002:0004182c       $N00183                    1010c82c     System.Data.SQLite.exp
 0002:00041841       $N00184                    1010c841     System.Data.SQLite.exp
 0002:0004185d       $N00185                    1010c85d     System.Data.SQLite.exp
 0002:00041870       $N00186                    1010c870     System.Data.SQLite.exp
 0002:00041880       $N00187                    1010c880     System.Data.SQLite.exp
 0002:00041899       $N00188                    1010c899     System.Data.SQLite.exp
 0002:000418ac       $N00189                    1010c8ac     System.Data.SQLite.exp
 0002:000418bc       $N00190                    1010c8bc     System.Data.SQLite.exp
 0002:000418ce       $N00191                    1010c8ce     System.Data.SQLite.exp
 0002:000418e2       $N00192                    1010c8e2     System.Data.SQLite.exp
 0002:000418f0       $N00193                    1010c8f0     System.Data.SQLite.exp
 0002:00041901       $N00194                    1010c901     System.Data.SQLite.exp
 0002:00041918       $N00195                    1010c918     System.Data.SQLite.exp
 0002:00041926       $N00196                    1010c926     System.Data.SQLite.exp
 0002:00041943       $N00197                    1010c943     System.Data.SQLite.exp
 0002:0004195c       $N00198                    1010c95c     System.Data.SQLite.exp
 0002:00041970       $N00199                    1010c970     System.Data.SQLite.exp
 0002:00041986       $N00200                    1010c986     System.Data.SQLite.exp
 0002:0004199c       $N00201                    1010c99c     System.Data.SQLite.exp
 0002:000419bd       $N00202                    1010c9bd     System.Data.SQLite.exp
 0002:000419d2       $N00203                    1010c9d2     System.Data.SQLite.exp
 0002:000419e9       $N00204                    1010c9e9     System.Data.SQLite.exp
 0002:00041a03       $N00205                    1010ca03     System.Data.SQLite.exp
 0002:00041a1e       $N00206                    1010ca1e     System.Data.SQLite.exp
 0002:00041a3a       $N00207                    1010ca3a     System.Data.SQLite.exp
 0002:00041a4d       $N00208                    1010ca4d     System.Data.SQLite.exp
 0002:00041a62       $N00209                    1010ca62     System.Data.SQLite.exp
 0002:00041a82       $N00210                    1010ca82     System.Data.SQLite.exp
 0002:00041a96       $N00211                    1010ca96     System.Data.SQLite.exp
 0002:00041aad       $N00212                    1010caad     System.Data.SQLite.exp
 0002:00041ac1       $N00213                    1010cac1     System.Data.SQLite.exp
 0002:00041ad7       $N00214                    1010cad7     System.Data.SQLite.exp
 0002:00041aef       $N00215                    1010caef     System.Data.SQLite.exp
 0002:00041b07       $N00216                    1010cb07     System.Data.SQLite.exp
 0002:00041b1d       $N00217                    1010cb1d     System.Data.SQLite.exp
 0002:00041b32       $N00218                    1010cb32     System.Data.SQLite.exp
 0002:00041b4a       $N00219                    1010cb4a     System.Data.SQLite.exp
 0002:00041b64       $N00220                    1010cb64     System.Data.SQLite.exp
 0002:00041b7a       $N00221                    1010cb7a     System.Data.SQLite.exp
 0002:00041b9a       $N00222                    1010cb9a     System.Data.SQLite.exp
 0002:00041bb7       $N00223                    1010cbb7     System.Data.SQLite.exp
 0002:00041bce       $N00224                    1010cbce     System.Data.SQLite.exp
 0002:00041be2       $N00225                    1010cbe2     System.Data.SQLite.exp
 0002:00041bf3       $N00226                    1010cbf3     System.Data.SQLite.exp
 0002:00041c01       $N00227                    1010cc01     System.Data.SQLite.exp
 0002:00041c12       $N00228                    1010cc12     System.Data.SQLite.exp
 0002:00041c2a       $N00229                    1010cc2a     System.Data.SQLite.exp
 0002:00041c44       $N00230                    1010cc44     System.Data.SQLite.exp
 0002:00041c55       $N00231                    1010cc55     System.Data.SQLite.exp
 0002:00041c61       $N00232                    1010cc61     System.Data.SQLite.exp
 0002:00041c70       $N00233                    1010cc70     System.Data.SQLite.exp
 0002:00041c81       $N00234                    1010cc81     System.Data.SQLite.exp
 0002:00041c8e       $N00235                    1010cc8e     System.Data.SQLite.exp
 0002:00041ca0       $N00236                    1010cca0     System.Data.SQLite.exp
 0002:00041cb6       $N00237                    1010ccb6     System.Data.SQLite.exp
 0002:00041cca       $N00238                    1010ccca     System.Data.SQLite.exp
 0002:00041cda       $N00239                    1010ccda     System.Data.SQLite.exp
 0002:00041cea       $N00240                    1010ccea     System.Data.SQLite.exp
 0002:00041cfa       $N00241                    1010ccfa     System.Data.SQLite.exp
 0002:00041d0b       $N00242                    1010cd0b     System.Data.SQLite.exp
 0002:00041d20       $N00243                    1010cd20     System.Data.SQLite.exp
 0002:00041d3e       $N00244                    1010cd3e     System.Data.SQLite.exp
 0002:00041d68       $N00245                    1010cd68     System.Data.SQLite.exp
 0002:00041d89       $N00246                    1010cd89     System.Data.SQLite.exp
 0002:00041da0       $N00247                    1010cda0     System.Data.SQLite.exp
 0002:00041db5       $N00248                    1010cdb5     System.Data.SQLite.exp
 0002:00041dcc       $N00249                    1010cdcc     System.Data.SQLite.exp
 0002:00041ddf       $N00250                    1010cddf     System.Data.SQLite.exp
 0002:00041df5       $N00251                    1010cdf5     System.Data.SQLite.exp
 0002:00041e09       $N00252                    1010ce09     System.Data.SQLite.exp
 0002:00041e17       $N00253                    1010ce17     System.Data.SQLite.exp
 0002:00041e28       $N00254                    1010ce28     System.Data.SQLite.exp
 0002:00041e42       $N00255                    1010ce42     System.Data.SQLite.exp
 0002:00041e56       $N00256                    1010ce56     System.Data.SQLite.exp
 0002:00041e6a       $N00257                    1010ce6a     System.Data.SQLite.exp
 0002:00041e7c       $N00258                    1010ce7c     System.Data.SQLite.exp
 0002:00041e92       $N00259                    1010ce92     System.Data.SQLite.exp
 0002:00041ea4       $N00260                    1010cea4     System.Data.SQLite.exp
 0002:00041eb7       $N00261                    1010ceb7     System.Data.SQLite.exp
 0002:00041ecb       $N00262                    1010cecb     System.Data.SQLite.exp
 0002:00041ee1       $N00263                    1010cee1     System.Data.SQLite.exp
 0002:00041ef6       $N00264                    1010cef6     System.Data.SQLite.exp
 0002:00041f16       $N00265                    1010cf16     System.Data.SQLite.exp
 0002:00041f28       $N00266                    1010cf28     System.Data.SQLite.exp
 0002:00041f3b       $N00267                    1010cf3b     System.Data.SQLite.exp
 0002:00041f4d       $N00268                    1010cf4d     System.Data.SQLite.exp
 0002:00041f61       $N00269                    1010cf61     System.Data.SQLite.exp
 0002:00041f80       $N00270                    1010cf80     System.Data.SQLite.exp
 0002:00041f9b       $N00271                    1010cf9b     System.Data.SQLite.exp
 0002:00041fb1       $N00272                    1010cfb1     System.Data.SQLite.exp
 0002:00041fc4       $N00273                    1010cfc4     System.Data.SQLite.exp
 0002:00041fd9       $N00274                    1010cfd9     System.Data.SQLite.exp
 0002:00041ff9       $N00275                    1010cff9     System.Data.SQLite.exp
 0002:00042010       $N00276                    1010d010     System.Data.SQLite.exp
 0002:00042027       $N00277                    1010d027     System.Data.SQLite.exp
 0002:00042045       $N00278                    1010d045     System.Data.SQLite.exp
 0002:00042058       $N00279                    1010d058     System.Data.SQLite.exp
 0002:00042068       $N00280                    1010d068     System.Data.SQLite.exp
 0002:00042079       $N00281                    1010d079     System.Data.SQLite.exp
 0002:0004208e       $N00282                    1010d08e     System.Data.SQLite.exp
 0002:000420a5       $N00283                    1010d0a5     System.Data.SQLite.exp
 0002:000420b6       $N00284                    1010d0b6     System.Data.SQLite.exp
 0002:000420c8       $N00285                    1010d0c8     System.Data.SQLite.exp
 0002:000420dc       $N00286                    1010d0dc     System.Data.SQLite.exp
 0002:000420f5       $N00287                    1010d0f5     System.Data.SQLite.exp
 0002:00042109       $N00288                    1010d109     System.Data.SQLite.exp
 0002:00042124       $N00289                    1010d124     System.Data.SQLite.exp
 0002:0004213b       $N00290                    1010d13b     System.Data.SQLite.exp
 0002:00042155       $N00291                    1010d155     System.Data.SQLite.exp
 0002:00042166       $N00292                    1010d166     System.Data.SQLite.exp
 0002:00042181       $N00293                    1010d181     System.Data.SQLite.exp
 0002:00042195       $N00294                    1010d195     System.Data.SQLite.exp
 0002:000421b0       $N00295                    1010d1b0     System.Data.SQLite.exp
 0002:000421ce       $N00296                    1010d1ce     System.Data.SQLite.exp
 0002:000421e7       $N00297                    1010d1e7     System.Data.SQLite.exp
 0002:00042203       $N00298                    1010d203     System.Data.SQLite.exp
 0002:00042217       $N00299                    1010d217     System.Data.SQLite.exp
 0002:00042235       $N00300                    1010d235     System.Data.SQLite.exp
 0002:00042250       $N00301                    1010d250     System.Data.SQLite.exp
 0002:0004226e       $N00302                    1010d26e     System.Data.SQLite.exp
 0002:0004228c       $N00303                    1010d28c     System.Data.SQLite.exp
 0002:00042a92       .idata$6                   1010da92     kernel32:KERNEL32.dll
 0002:00042b46       .idata$6                   1010db46     advapi32:ADVAPI32.dll
 0002:00042ba2       .idata$6                   1010dba2     vcruntime:VCRUNTIME140.dll
 0002:00042d46       .idata$6                   1010dd46     ucrt:api-ms-win-crt-heap-l1-1-0.dll
 0002:00042d66       .idata$6                   1010dd66     ucrt:api-ms-win-crt-runtime-l1-1-0.dll
 0002:00042d88       .idata$6                   1010dd88     ucrt:api-ms-win-crt-string-l1-1-0.dll
 0002:00042daa       .idata$6                   1010ddaa     ucrt:api-ms-win-crt-time-l1-1-0.dll
 0002:00042dca       .idata$6                   1010ddca     ucrt:api-ms-win-crt-math-l1-1-0.dll
 0002:00042dea       .idata$6                   1010ddea     ucrt:api-ms-win-crt-utility-l1-1-0.dll
 0002:0004304e       .idata$6                   1010e04e     mscoree:mscoree.dll
 0003:00000020       _winNolockAppData          1010f020     interop.obj
 0003:0000002c       _winAppData                1010f02c     interop.obj
 0003:00000038       ?dbstat_module@?1??sqlite3DbstatRegister@@9@9 1010f038     interop.obj
 0003:00000094       _winIoerrRetry             1010f094     interop.obj
 0003:00000098       ?winVfs@?1??sqlite3_os_init@@9@9 1010f098     interop.obj
 0003:000000f0       ?aCacheMode@?BD@??sqlite3ParseUri@@9@9 1010f0f0     interop.obj
 0003:00000108       _sqlite3PendingByte        1010f108     interop.obj
 0003:0000010c       _winMutex_isNt             1010f10c     interop.obj
 0003:00000110       _jsonTreeModule            1010f110     interop.obj
 0003:0000016c       _winIoerrRetryDelay        1010f16c     interop.obj
 0003:00000170       ?azCol@?IK@??sqlite3Pragma@@9@9 1010f170     interop.obj
 0003:00000180       ?aOpenMode@?BE@??sqlite3ParseUri@@9@9 1010f180     interop.obj
 0003:000001a8       ?winLongPathNolockVfs@?1??sqlite3_os_init@@9@9 1010f1a8     interop.obj
 0003:00000200       ?azCol@?HL@??sqlite3Pragma@@9@9 1010f200     interop.obj
 0003:00000214       ?azCol@?HO@??sqlite3Pragma@@9@9 1010f214     interop.obj
 0003:00000220       _jsonEachModule            1010f220     interop.obj
 0003:00000280       ?aAlterTableFuncs@?1??sqlite3AlterFunctions@@9@9 1010f280     interop.obj
 0003:000002d8       _rtreeModule               1010f2d8     interop.obj
 0003:00000334       ?azCol@?IB@??sqlite3Pragma@@9@9 1010f334     interop.obj
 0003:00000340       _aSyscall                  1010f340     interop.obj
 0003:00000700       ?winNolockVfs@?1??sqlite3_os_init@@9@9 1010f700     interop.obj
 0003:00000758       _aAsciiTokenChar           1010f758     interop.obj
 0003:000007d8       ?azCol@?MJ@??sqlite3Pragma@@9@9 1010f7d8     interop.obj
 0003:000007e8       _sqlite3Config             1010f7e8     interop.obj
 0003:000008f8       ?winLongPathVfs@?1??sqlite3_os_init@@9@9 1010f8f8     interop.obj
 0003:00000950       ?aAnalyzeTableFuncs@?1??sqlite3AnalyzeFunctions@@9@9 1010f950     interop.obj
 0003:00000970       ?aDateTimeFuncs@?1??sqlite3RegisterDateTimeFunctions@@9@9 1010f970     interop.obj
 0003:00000a50       ?aBuiltinFunc@?1??sqlite3RegisterBuiltinFunctions@@9@9 1010fa50     interop.obj
 0003:000010e0       ?azCol@?GO@??sqlite3Pragma@@9@9 101100e0     interop.obj
 0003:000010f0       ?azCol@?IG@??sqlite3Pragma@@9@9 101100f0     interop.obj
 0003:00001110       ?azCol@?GF@??sqlite3Pragma@@9@9 10110110     interop.obj
 0003:00001130       ?azCol@?HE@??sqlite3Pragma@@9@9 10110130     interop.obj
 0003:00001150       _GS_ExceptionRecord        10110150     MSVCRT:gs_report.obj
 0003:000011a0       _GS_ContextRecord          101101a0     MSVCRT:gs_report.obj
 0003:0000146c       ?__proc_attached@@3HA      1011046c     MSVCRT:dll_dllmain.obj
 0003:00001478       ?module_local_atexit_table@@3U_onexit_table_t@@A 10110478     MSVCRT:utility.obj
 0003:00001484       ?module_local_at_quick_exit_table@@3U_onexit_table_t@@A 10110484     MSVCRT:utility.obj
 0003:00001490       ?is_initialized_as_dll@@3_NA 10110490     MSVCRT:utility.obj
 0003:000014c0       ?nCall@?1??fts5WriteFlushLeaf@@9@9 101104c0     interop.obj
 0003:000014cc       _sqlite3SharedCacheList    101104cc     interop.obj
 0003:000014d0       _mem0                      101104d0     interop.obj
 0003:000014f0       _sqlite3Hooks              101104f0     interop.obj
 0003:000014f8       _win_mem_data              101104f8     interop.obj
 0003:00001500       _sqlite3Stat               10110500     interop.obj
 0003:00001550       _winMutex_lock             10110550     interop.obj
 0003:00001558       _winShmNodeList            10110558     interop.obj
 0003:0000155c       _winMutex_isInit           1011055c     interop.obj
 0003:00001560       _winMutex_staticMutexes    10110560     interop.obj
 0003:000016b0       _sqlite3Autoext            101106b0     interop.obj
 0003:000016b8       _vfsList                   101106b8     interop.obj
 0003:00003064       ?dummy@?1??sqlite3VdbeGetOp@@9@9 10112064     interop.obj
 0003:00003078       _pcache1_g                 10112078     interop.obj
 0003:000030e0       _sqlite3SavedPrng          101120e0     interop.obj
 0003:000031f0       _sqlite3Prng               101121f0     interop.obj
 0003:00003300       _sqlite3BuiltinFunctions   10112300     interop.obj
 0003:0000335c       _winSysInfo                1011235c     interop.obj
 0003:00003380       ?aZero@?LO@??sqlite3VdbeExec@@9@9 10112380     interop.obj
 0004:00000000       __guard_fids_?dllmain_crt_process_attach@@YAHQAUHINSTANCE__@@QAX@Z 10113000     MSVCRT:dll_dllmain.obj
 0004:00000008       __guard_fids_?dllmain_dispatch@@YAHQAUHINSTANCE__@@KQAX@Z 10113008     MSVCRT:dll_dllmain.obj
 0004:0000000c       __guard_fids___except_handler4 1011300c     MSVCRT:_chandler4gs_.obj
 0004:00000010       __guard_fids__             10113010     MSVCRT:guard_support.obj
 0006:00000060       $R000000                   10115060     SQLite.Interop.res

 Exports

  ordinal    name

        1    _interop_compileoption_get@4
        2    _interop_compileoption_used@4
        3    _interop_libversion@0
        4    _interop_sourceid@0
        5    _sqlite3_activate_see
               exported name: sqlite3_activate_see
        6    _sqlite3_aggregate_context
               exported name: sqlite3_aggregate_context
        7    _sqlite3_aggregate_count
               exported name: sqlite3_aggregate_count
        8    _sqlite3_auto_extension
               exported name: sqlite3_auto_extension
        9    _sqlite3_backup_finish
               exported name: sqlite3_backup_finish
       10    _sqlite3_backup_finish_interop@4
       11    _sqlite3_backup_init
               exported name: sqlite3_backup_init
       12    _sqlite3_backup_pagecount
               exported name: sqlite3_backup_pagecount
       13    _sqlite3_backup_remaining
               exported name: sqlite3_backup_remaining
       14    _sqlite3_backup_step
               exported name: sqlite3_backup_step
       15    _sqlite3_bind_blob
               exported name: sqlite3_bind_blob
       16    _sqlite3_bind_blob64
               exported name: sqlite3_bind_blob64
       17    _sqlite3_bind_double
               exported name: sqlite3_bind_double
       18    _sqlite3_bind_double_interop@12
       19    _sqlite3_bind_int
               exported name: sqlite3_bind_int
       20    _sqlite3_bind_int64
               exported name: sqlite3_bind_int64
       21    _sqlite3_bind_int64_interop@12
       22    _sqlite3_bind_null
               exported name: sqlite3_bind_null
       23    _sqlite3_bind_parameter_count
               exported name: sqlite3_bind_parameter_count
       24    _sqlite3_bind_parameter_index
               exported name: sqlite3_bind_parameter_index
       25    _sqlite3_bind_parameter_name
               exported name: sqlite3_bind_parameter_name
       26    _sqlite3_bind_parameter_name_interop@12
       27    _sqlite3_bind_text
               exported name: sqlite3_bind_text
       28    _sqlite3_bind_text16
               exported name: sqlite3_bind_text16
       29    _sqlite3_bind_text64
               exported name: sqlite3_bind_text64
       30    _sqlite3_bind_value
               exported name: sqlite3_bind_value
       31    _sqlite3_bind_zeroblob
               exported name: sqlite3_bind_zeroblob
       32    _sqlite3_bind_zeroblob64
               exported name: sqlite3_bind_zeroblob64
       33    _sqlite3_blob_bytes
               exported name: sqlite3_blob_bytes
       34    _sqlite3_blob_close
               exported name: sqlite3_blob_close
       35    _sqlite3_blob_close_interop@4
       36    _sqlite3_blob_open
               exported name: sqlite3_blob_open
       37    _sqlite3_blob_read
               exported name: sqlite3_blob_read
       38    _sqlite3_blob_reopen
               exported name: sqlite3_blob_reopen
       39    _sqlite3_blob_write
               exported name: sqlite3_blob_write
       40    _sqlite3_busy_handler
               exported name: sqlite3_busy_handler
       41    _sqlite3_busy_timeout
               exported name: sqlite3_busy_timeout
       42    _sqlite3_cancel_auto_extension
               exported name: sqlite3_cancel_auto_extension
       43    _sqlite3_changes
               exported name: sqlite3_changes
       44    _sqlite3_changes_interop@4
       45    _sqlite3_clear_bindings
               exported name: sqlite3_clear_bindings
       46    _sqlite3_close
               exported name: sqlite3_close
       47    _sqlite3_close_interop@4
       48    _sqlite3_close_v2
               exported name: sqlite3_close_v2
       49    _sqlite3_collation_needed
               exported name: sqlite3_collation_needed
       50    _sqlite3_collation_needed16
               exported name: sqlite3_collation_needed16
       51    _sqlite3_column_blob
               exported name: sqlite3_column_blob
       52    _sqlite3_column_bytes
               exported name: sqlite3_column_bytes
       53    _sqlite3_column_bytes16
               exported name: sqlite3_column_bytes16
       54    _sqlite3_column_count
               exported name: sqlite3_column_count
       55    _sqlite3_column_database_name
               exported name: sqlite3_column_database_name
       56    _sqlite3_column_database_name16
               exported name: sqlite3_column_database_name16
       57    _sqlite3_column_database_name16_interop@12
       58    _sqlite3_column_database_name_interop@12
       59    _sqlite3_column_decltype
               exported name: sqlite3_column_decltype
       60    _sqlite3_column_decltype16
               exported name: sqlite3_column_decltype16
       61    _sqlite3_column_decltype16_interop@12
       62    _sqlite3_column_decltype_interop@12
       63    _sqlite3_column_double
               exported name: sqlite3_column_double
       64    _sqlite3_column_double_interop@12
       65    _sqlite3_column_int
               exported name: sqlite3_column_int
       66    _sqlite3_column_int64
               exported name: sqlite3_column_int64
       67    _sqlite3_column_int64_interop@12
       68    _sqlite3_column_name
               exported name: sqlite3_column_name
       69    _sqlite3_column_name16
               exported name: sqlite3_column_name16
       70    _sqlite3_column_name16_interop@12
       71    _sqlite3_column_name_interop@12
       72    _sqlite3_column_origin_name
               exported name: sqlite3_column_origin_name
       73    _sqlite3_column_origin_name16
               exported name: sqlite3_column_origin_name16
       74    _sqlite3_column_origin_name16_interop@12
       75    _sqlite3_column_origin_name_interop@12
       76    _sqlite3_column_table_name
               exported name: sqlite3_column_table_name
       77    _sqlite3_column_table_name16
               exported name: sqlite3_column_table_name16
       78    _sqlite3_column_table_name16_interop@12
       79    _sqlite3_column_table_name_interop@12
       80    _sqlite3_column_text
               exported name: sqlite3_column_text
       81    _sqlite3_column_text16
               exported name: sqlite3_column_text16
       82    _sqlite3_column_text16_interop@12
       83    _sqlite3_column_text_interop@12
       84    _sqlite3_column_type
               exported name: sqlite3_column_type
       85    _sqlite3_column_value
               exported name: sqlite3_column_value
       86    _sqlite3_commit_hook
               exported name: sqlite3_commit_hook
       87    _sqlite3_compileoption_get
               exported name: sqlite3_compileoption_get
       88    _sqlite3_compileoption_used
               exported name: sqlite3_compileoption_used
       89    _sqlite3_complete
               exported name: sqlite3_complete
       90    _sqlite3_complete16
               exported name: sqlite3_complete16
       91    _sqlite3_config
               exported name: sqlite3_config
       92    _sqlite3_context_collcompare_interop@20
       93    _sqlite3_context_collseq_interop@16
       94    _sqlite3_context_db_handle
               exported name: sqlite3_context_db_handle
       95    _sqlite3_create_collation
               exported name: sqlite3_create_collation
       96    _sqlite3_create_collation16
               exported name: sqlite3_create_collation16
       97    _sqlite3_create_collation_v2
               exported name: sqlite3_create_collation_v2
       98    _sqlite3_create_disposable_module
               exported name: sqlite3_create_disposable_module
       99    _sqlite3_create_disposable_module_interop@112
      100    _sqlite3_create_function
               exported name: sqlite3_create_function
      101    _sqlite3_create_function16
               exported name: sqlite3_create_function16
      102    _sqlite3_create_function_interop@36
      103    _sqlite3_create_function_v2
               exported name: sqlite3_create_function_v2
      104    _sqlite3_create_module
               exported name: sqlite3_create_module
      105    _sqlite3_create_module_v2
               exported name: sqlite3_create_module_v2
      106    _sqlite3_cursor_rowid_interop@12
      107    _sqlite3_data_count
               exported name: sqlite3_data_count
      108    _sqlite3_data_directory
               exported name: sqlite3_data_directory
      109    _sqlite3_db_cacheflush
               exported name: sqlite3_db_cacheflush
      110    _sqlite3_db_config
               exported name: sqlite3_db_config
      111    _sqlite3_db_filename
               exported name: sqlite3_db_filename
      112    _sqlite3_db_handle
               exported name: sqlite3_db_handle
      113    _sqlite3_db_mutex
               exported name: sqlite3_db_mutex
      114    _sqlite3_db_readonly
               exported name: sqlite3_db_readonly
      115    _sqlite3_db_release_memory
               exported name: sqlite3_db_release_memory
      116    _sqlite3_db_status
               exported name: sqlite3_db_status
      117    _sqlite3_declare_vtab
               exported name: sqlite3_declare_vtab
      118    _sqlite3_dispose_module
               exported name: sqlite3_dispose_module
      119    _sqlite3_enable_load_extension
               exported name: sqlite3_enable_load_extension
      120    _sqlite3_enable_shared_cache
               exported name: sqlite3_enable_shared_cache
      121    _sqlite3_errcode
               exported name: sqlite3_errcode
      122    _sqlite3_errmsg
               exported name: sqlite3_errmsg
      123    _sqlite3_errmsg16
               exported name: sqlite3_errmsg16
      124    _sqlite3_errmsg_interop@8
      125    _sqlite3_errstr
               exported name: sqlite3_errstr
      126    _sqlite3_exec
               exported name: sqlite3_exec
      127    _sqlite3_expanded_sql
               exported name: sqlite3_expanded_sql
      128    _sqlite3_expired
               exported name: sqlite3_expired
      129    _sqlite3_extended_errcode
               exported name: sqlite3_extended_errcode
      130    _sqlite3_extended_result_codes
               exported name: sqlite3_extended_result_codes
      131    _sqlite3_file_control
               exported name: sqlite3_file_control
      132    _sqlite3_finalize
               exported name: sqlite3_finalize
      133    _sqlite3_finalize_interop@4
      134    _sqlite3_free
               exported name: sqlite3_free
      135    _sqlite3_free_table
               exported name: sqlite3_free_table
      136    _sqlite3_fts5_init
               exported name: sqlite3_fts5_init
      137    _sqlite3_fts_init
               exported name: sqlite3_fts_init
      138    _sqlite3_get_autocommit
               exported name: sqlite3_get_autocommit
      139    _sqlite3_get_auxdata
               exported name: sqlite3_get_auxdata
      140    _sqlite3_get_table
               exported name: sqlite3_get_table
      141    _sqlite3_global_recover
               exported name: sqlite3_global_recover
      142    _sqlite3_index_column_info_interop@32
      143    _sqlite3_initialize
               exported name: sqlite3_initialize
      144    _sqlite3_interrupt
               exported name: sqlite3_interrupt
      145    _sqlite3_json_init
               exported name: sqlite3_json_init
      146    _sqlite3_key
               exported name: sqlite3_key
      147    _sqlite3_key_v2
               exported name: sqlite3_key_v2
      148    _sqlite3_last_insert_rowid
               exported name: sqlite3_last_insert_rowid
      149    _sqlite3_last_insert_rowid_interop@8
      150    _sqlite3_libversion
               exported name: sqlite3_libversion
      151    _sqlite3_libversion_number
               exported name: sqlite3_libversion_number
      152    _sqlite3_limit
               exported name: sqlite3_limit
      153    _sqlite3_load_extension
               exported name: sqlite3_load_extension
      154    _sqlite3_log
               exported name: sqlite3_log
      155    _sqlite3_malloc
               exported name: sqlite3_malloc
      156    _sqlite3_malloc64
               exported name: sqlite3_malloc64
      157    _sqlite3_malloc_size_interop@4
      158    _sqlite3_memory_alarm
               exported name: sqlite3_memory_alarm
      159    _sqlite3_memory_highwater
               exported name: sqlite3_memory_highwater
      160    _sqlite3_memory_highwater_interop@8
      161    _sqlite3_memory_used
               exported name: sqlite3_memory_used
      162    _sqlite3_memory_used_interop@4
      163    _sqlite3_mprintf
               exported name: sqlite3_mprintf
      164    _sqlite3_msize
               exported name: sqlite3_msize
      165    _sqlite3_mutex_alloc
               exported name: sqlite3_mutex_alloc
      166    _sqlite3_mutex_enter
               exported name: sqlite3_mutex_enter
      167    _sqlite3_mutex_free
               exported name: sqlite3_mutex_free
      168    _sqlite3_mutex_leave
               exported name: sqlite3_mutex_leave
      169    _sqlite3_mutex_try
               exported name: sqlite3_mutex_try
      170    _sqlite3_next_stmt
               exported name: sqlite3_next_stmt
      171    _sqlite3_open
               exported name: sqlite3_open
      172    _sqlite3_open16
               exported name: sqlite3_open16
      173    _sqlite3_open16_interop@20
      174    _sqlite3_open_interop@20
      175    _sqlite3_open_v2
               exported name: sqlite3_open_v2
      176    _sqlite3_os_end
               exported name: sqlite3_os_end
      177    _sqlite3_os_init
               exported name: sqlite3_os_init
      178    _sqlite3_overload_function
               exported name: sqlite3_overload_function
      179    _sqlite3_percentile_init
               exported name: sqlite3_percentile_init
      180    _sqlite3_prepare
               exported name: sqlite3_prepare
      181    _sqlite3_prepare16
               exported name: sqlite3_prepare16
      182    _sqlite3_prepare16_interop@24
      183    _sqlite3_prepare16_v2
               exported name: sqlite3_prepare16_v2
      184    _sqlite3_prepare_interop@24
      185    _sqlite3_prepare_v2
               exported name: sqlite3_prepare_v2
      186    _sqlite3_profile
               exported name: sqlite3_profile
      187    _sqlite3_progress_handler
               exported name: sqlite3_progress_handler
      188    _sqlite3_randomness
               exported name: sqlite3_randomness
      189    _sqlite3_realloc
               exported name: sqlite3_realloc
      190    _sqlite3_realloc64
               exported name: sqlite3_realloc64
      191    _sqlite3_regexp_init
               exported name: sqlite3_regexp_init
      192    _sqlite3_rekey
               exported name: sqlite3_rekey
      193    _sqlite3_rekey_v2
               exported name: sqlite3_rekey_v2
      194    _sqlite3_release_memory
               exported name: sqlite3_release_memory
      195    _sqlite3_reset
               exported name: sqlite3_reset
      196    _sqlite3_reset_auto_extension
               exported name: sqlite3_reset_auto_extension
      197    _sqlite3_reset_interop@4
      198    _sqlite3_result_blob
               exported name: sqlite3_result_blob
      199    _sqlite3_result_blob64
               exported name: sqlite3_result_blob64
      200    _sqlite3_result_double
               exported name: sqlite3_result_double
      201    _sqlite3_result_double_interop@8
      202    _sqlite3_result_error
               exported name: sqlite3_result_error
      203    _sqlite3_result_error16
               exported name: sqlite3_result_error16
      204    _sqlite3_result_error_code
               exported name: sqlite3_result_error_code
      205    _sqlite3_result_error_nomem
               exported name: sqlite3_result_error_nomem
      206    _sqlite3_result_error_toobig
               exported name: sqlite3_result_error_toobig
      207    _sqlite3_result_int
               exported name: sqlite3_result_int
      208    _sqlite3_result_int64
               exported name: sqlite3_result_int64
      209    _sqlite3_result_int64_interop@8
      210    _sqlite3_result_null
               exported name: sqlite3_result_null
      211    _sqlite3_result_subtype
               exported name: sqlite3_result_subtype
      212    _sqlite3_result_text
               exported name: sqlite3_result_text
      213    _sqlite3_result_text16
               exported name: sqlite3_result_text16
      214    _sqlite3_result_text16be
               exported name: sqlite3_result_text16be
      215    _sqlite3_result_text16le
               exported name: sqlite3_result_text16le
      216    _sqlite3_result_text64
               exported name: sqlite3_result_text64
      217    _sqlite3_result_value
               exported name: sqlite3_result_value
      218    _sqlite3_result_zeroblob
               exported name: sqlite3_result_zeroblob
      219    _sqlite3_result_zeroblob64
               exported name: sqlite3_result_zeroblob64
      220    _sqlite3_rollback_hook
               exported name: sqlite3_rollback_hook
      221    _sqlite3_rtree_geometry_callback
               exported name: sqlite3_rtree_geometry_callback
      222    _sqlite3_rtree_query_callback
               exported name: sqlite3_rtree_query_callback
      223    _sqlite3_set_authorizer
               exported name: sqlite3_set_authorizer
      224    _sqlite3_set_auxdata
               exported name: sqlite3_set_auxdata
      225    _sqlite3_shutdown
               exported name: sqlite3_shutdown
      226    _sqlite3_sleep
               exported name: sqlite3_sleep
      227    _sqlite3_snprintf
               exported name: sqlite3_snprintf
      228    _sqlite3_soft_heap_limit
               exported name: sqlite3_soft_heap_limit
      229    _sqlite3_soft_heap_limit64
               exported name: sqlite3_soft_heap_limit64
      230    _sqlite3_sourceid
               exported name: sqlite3_sourceid
      231    _sqlite3_sql
               exported name: sqlite3_sql
      232    _sqlite3_status
               exported name: sqlite3_status
      233    _sqlite3_status64
               exported name: sqlite3_status64
      234    _sqlite3_step
               exported name: sqlite3_step
      235    _sqlite3_stmt_busy
               exported name: sqlite3_stmt_busy
      236    _sqlite3_stmt_readonly
               exported name: sqlite3_stmt_readonly
      237    _sqlite3_stmt_status
               exported name: sqlite3_stmt_status
      238    _sqlite3_strglob
               exported name: sqlite3_strglob
      239    _sqlite3_stricmp
               exported name: sqlite3_stricmp
      240    _sqlite3_strlike
               exported name: sqlite3_strlike
      241    _sqlite3_strnicmp
               exported name: sqlite3_strnicmp
      242    _sqlite3_system_errno
               exported name: sqlite3_system_errno
      243    _sqlite3_table_column_metadata
               exported name: sqlite3_table_column_metadata
      244    _sqlite3_table_column_metadata_interop@44
      245    _sqlite3_table_cursor_interop@12
      246    _sqlite3_temp_directory
               exported name: sqlite3_temp_directory
      247    _sqlite3_test_control
               exported name: sqlite3_test_control
      248    _sqlite3_thread_cleanup
               exported name: sqlite3_thread_cleanup
      249    _sqlite3_threadsafe
               exported name: sqlite3_threadsafe
      250    _sqlite3_total_changes
               exported name: sqlite3_total_changes
      251    _sqlite3_totype_init
               exported name: sqlite3_totype_init
      252    _sqlite3_trace
               exported name: sqlite3_trace
      253    _sqlite3_trace_v2
               exported name: sqlite3_trace_v2
      254    _sqlite3_transfer_bindings
               exported name: sqlite3_transfer_bindings
      255    _sqlite3_update_hook
               exported name: sqlite3_update_hook
      256    _sqlite3_uri_boolean
               exported name: sqlite3_uri_boolean
      257    _sqlite3_uri_int64
               exported name: sqlite3_uri_int64
      258    _sqlite3_uri_parameter
               exported name: sqlite3_uri_parameter
      259    _sqlite3_user_data
               exported name: sqlite3_user_data
      260    _sqlite3_value_blob
               exported name: sqlite3_value_blob
      261    _sqlite3_value_bytes
               exported name: sqlite3_value_bytes
      262    _sqlite3_value_bytes16
               exported name: sqlite3_value_bytes16
      263    _sqlite3_value_double
               exported name: sqlite3_value_double
      264    _sqlite3_value_double_interop@8
      265    _sqlite3_value_dup
               exported name: sqlite3_value_dup
      266    _sqlite3_value_free
               exported name: sqlite3_value_free
      267    _sqlite3_value_int
               exported name: sqlite3_value_int
      268    _sqlite3_value_int64
               exported name: sqlite3_value_int64
      269    _sqlite3_value_int64_interop@8
      270    _sqlite3_value_numeric_type
               exported name: sqlite3_value_numeric_type
      271    _sqlite3_value_subtype
               exported name: sqlite3_value_subtype
      272    _sqlite3_value_text
               exported name: sqlite3_value_text
      273    _sqlite3_value_text16
               exported name: sqlite3_value_text16
      274    _sqlite3_value_text16_interop@8
      275    _sqlite3_value_text16be
               exported name: sqlite3_value_text16be
      276    _sqlite3_value_text16le
               exported name: sqlite3_value_text16le
      277    _sqlite3_value_text_interop@8
      278    _sqlite3_value_type
               exported name: sqlite3_value_type
      279    _sqlite3_version
               exported name: sqlite3_version
      280    _sqlite3_vfs_find
               exported name: sqlite3_vfs_find
      281    _sqlite3_vfs_register
               exported name: sqlite3_vfs_register
      282    _sqlite3_vfs_unregister
               exported name: sqlite3_vfs_unregister
      283    _sqlite3_vmprintf
               exported name: sqlite3_vmprintf
      284    _sqlite3_vsnprintf
               exported name: sqlite3_vsnprintf
      285    _sqlite3_vtab_config
               exported name: sqlite3_vtab_config
      286    _sqlite3_vtab_on_conflict
               exported name: sqlite3_vtab_on_conflict
      287    _sqlite3_vtshim_init
               exported name: sqlite3_vtshim_init
      288    _sqlite3_wal_autocheckpoint
               exported name: sqlite3_wal_autocheckpoint
      289    _sqlite3_wal_checkpoint
               exported name: sqlite3_wal_checkpoint
      290    _sqlite3_wal_checkpoint_v2
               exported name: sqlite3_wal_checkpoint_v2
      291    _sqlite3_wal_hook
               exported name: sqlite3_wal_hook
      292    _sqlite3_win32_compact_heap
               exported name: sqlite3_win32_compact_heap
      293    _sqlite3_win32_is_nt
               exported name: sqlite3_win32_is_nt
      294    _sqlite3_win32_mbcs_to_utf8
               exported name: sqlite3_win32_mbcs_to_utf8
      295    _sqlite3_win32_mbcs_to_utf8_v2
               exported name: sqlite3_win32_mbcs_to_utf8_v2
      296    _sqlite3_win32_reset_heap
               exported name: sqlite3_win32_reset_heap
      297    _sqlite3_win32_set_directory
               exported name: sqlite3_win32_set_directory
      298    _sqlite3_win32_sleep
               exported name: sqlite3_win32_sleep
      299    _sqlite3_win32_unicode_to_utf8
               exported name: sqlite3_win32_unicode_to_utf8
      300    _sqlite3_win32_utf8_to_mbcs
               exported name: sqlite3_win32_utf8_to_mbcs
      301    _sqlite3_win32_utf8_to_mbcs_v2
               exported name: sqlite3_win32_utf8_to_mbcs_v2
      302    _sqlite3_win32_utf8_to_unicode
               exported name: sqlite3_win32_utf8_to_unicode
      303    _sqlite3_win32_write_debug
               exported name: sqlite3_win32_write_debug
